ARM GAS  C:\Users\hanaj\AppData\Local\Temp\ccM3CaTy.s 			page 1


   1              		.cpu cortex-m4
   2              		.arch armv7e-m
   3              		.fpu fpv4-sp-d16
   4              		.eabi_attribute 27, 1
   5              		.eabi_attribute 28, 1
   6              		.eabi_attribute 20, 1
   7              		.eabi_attribute 21, 1
   8              		.eabi_attribute 23, 3
   9              		.eabi_attribute 24, 1
  10              		.eabi_attribute 25, 1
  11              		.eabi_attribute 26, 1
  12              		.eabi_attribute 30, 1
  13              		.eabi_attribute 34, 1
  14              		.eabi_attribute 18, 4
  15              		.file	"AdcSTM32F4.cpp"
  16              		.text
  17              	.Ltext0:
  18              		.cfi_sections	.debug_frame
  19              		.file 1 "Core/HALinterface/Src/AdcSTM32F4.cpp"
  20              		.section	.text._ZN10AdcSTM32F4D2Ev,"axG",%progbits,_ZN10AdcSTM32F4D5Ev,comdat
  21              		.align	1
  22              		.weak	_ZN10AdcSTM32F4D2Ev
  23              		.syntax unified
  24              		.thumb
  25              		.thumb_func
  27              	_ZN10AdcSTM32F4D2Ev:
  28              		.fnstart
  29              	.LVL0:
  30              	.LFB253:
  31              		.file 2 "Core/HALinterface/Src/../Inc/AdcSTM32F4.hpp"
   1:Core/HALinterface/Src/../Inc/AdcSTM32F4.hpp **** #pragma once
   2:Core/HALinterface/Src/../Inc/AdcSTM32F4.hpp **** 
   3:Core/HALinterface/Src/../Inc/AdcSTM32F4.hpp **** #include "IAdc.hpp"
   4:Core/HALinterface/Src/../Inc/AdcSTM32F4.hpp **** #include "stm32f4xx_hal.h"  // HALÈñ¢ÈÄ£„ÅÆ„Éò„ÉÉ„ÉÄ
   5:Core/HALinterface/Src/../Inc/AdcSTM32F4.hpp **** 
   6:Core/HALinterface/Src/../Inc/AdcSTM32F4.hpp **** class AdcSTM32F4 : public IAdc {
  32              		.loc 2 6 7 view -0
  33              		.cfi_startproc
  34              		@ args = 0, pretend = 0, frame = 0
  35              		@ frame_needed = 0, uses_anonymous_args = 0
  36              		@ link register save eliminated.
  37              	.LBB21:
  38              		.loc 2 6 7 is_stmt 0 view .LVU1
  39 0000 024A     		ldr	r2, .L2
  40 0002 0260     		str	r2, [r0]
  41              	.LVL1:
  42              	.LBB22:
  43              	.LBI22:
  44              		.file 3 "Core/HALinterface/Src/../Inc/IAdc.hpp"
   1:Core/HALinterface/Src/../Inc/IAdc.hpp **** #pragma once
   2:Core/HALinterface/Src/../Inc/IAdc.hpp **** 
   3:Core/HALinterface/Src/../Inc/IAdc.hpp **** #include <cstdint>
   4:Core/HALinterface/Src/../Inc/IAdc.hpp **** // ADCÁî®„Ç§„É≥„Çø„Éº„Éï„Çß„Éº„Çπ
   5:Core/HALinterface/Src/../Inc/IAdc.hpp **** class IAdc {
   6:Core/HALinterface/Src/../Inc/IAdc.hpp **** public:
   7:Core/HALinterface/Src/../Inc/IAdc.hpp ****     virtual ~IAdc() = default;
  45              		.loc 3 7 13 is_stmt 1 view .LVU2
ARM GAS  C:\Users\hanaj\AppData\Local\Temp\ccM3CaTy.s 			page 2


  46              	.LBB23:
  47 0004 024A     		ldr	r2, .L2+4
  48 0006 0260     		str	r2, [r0]
  49              	.LVL2:
  50              		.loc 3 7 13 is_stmt 0 view .LVU3
  51              	.LBE23:
  52              	.LBE22:
  53              	.LBE21:
  54              		.loc 2 6 7 view .LVU4
  55 0008 7047     		bx	lr
  56              	.L3:
  57 000a 00BF     		.align	2
  58              	.L2:
  59 000c 08000000 		.word	_ZTV10AdcSTM32F4+8
  60 0010 08000000 		.word	_ZTV4IAdc+8
  61              		.cfi_endproc
  62              	.LFE253:
  63              		.cantunwind
  64              		.fnend
  66              		.weak	_ZN10AdcSTM32F4D1Ev
  67              		.thumb_set _ZN10AdcSTM32F4D1Ev,_ZN10AdcSTM32F4D2Ev
  68              		.section	.text._ZN10AdcSTM32F4D0Ev,"axG",%progbits,_ZN10AdcSTM32F4D5Ev,comdat
  69              		.align	1
  70              		.weak	_ZN10AdcSTM32F4D0Ev
  71              		.syntax unified
  72              		.thumb
  73              		.thumb_func
  75              	_ZN10AdcSTM32F4D0Ev:
  76              		.fnstart
  77              	.LVL3:
  78              	.LFB255:
  79              		.loc 2 6 7 is_stmt 1 view -0
  80              		.cfi_startproc
  81              		@ args = 0, pretend = 0, frame = 0
  82              		@ frame_needed = 0, uses_anonymous_args = 0
  83              		.loc 2 6 7 is_stmt 0 view .LVU6
  84 0000 10B5     		push	{r4, lr}
  85              	.LCFI0:
  86              		.cfi_def_cfa_offset 8
  87              		.cfi_offset 4, -8
  88              		.cfi_offset 14, -4
  89 0002 0446     		mov	r4, r0
  90              	.LVL4:
  91              	.LBB24:
  92              	.LBI24:
  93              		.loc 2 6 7 is_stmt 1 view .LVU7
  94              	.LBB25:
  95 0004 044B     		ldr	r3, .L6
  96 0006 0360     		str	r3, [r0]
  97              	.LVL5:
  98              	.LBB26:
  99              	.LBI26:
 100              		.loc 3 7 13 view .LVU8
 101              	.LBB27:
 102 0008 044B     		ldr	r3, .L6+4
 103 000a 0360     		str	r3, [r0]
 104              	.LVL6:
ARM GAS  C:\Users\hanaj\AppData\Local\Temp\ccM3CaTy.s 			page 3


 105              		.loc 3 7 13 is_stmt 0 view .LVU9
 106              	.LBE27:
 107              	.LBE26:
 108              	.LBE25:
 109              	.LBE24:
 110              		.loc 2 6 7 discriminator 1 view .LVU10
 111 000c 0821     		movs	r1, #8
 112 000e FFF7FEFF 		bl	_ZdlPvj
 113              	.LVL7:
 114              		.loc 2 6 7 view .LVU11
 115 0012 2046     		mov	r0, r4
 116 0014 10BD     		pop	{r4, pc}
 117              	.LVL8:
 118              	.L7:
 119              		.loc 2 6 7 view .LVU12
 120 0016 00BF     		.align	2
 121              	.L6:
 122 0018 08000000 		.word	_ZTV10AdcSTM32F4+8
 123 001c 08000000 		.word	_ZTV4IAdc+8
 124              		.cfi_endproc
 125              	.LFE255:
 126              		.cantunwind
 127              		.fnend
 129              		.section	.text._ZN10AdcSTM32F44readEh,"ax",%progbits
 130              		.align	1
 131              		.global	_ZN10AdcSTM32F44readEh
 132              		.syntax unified
 133              		.thumb
 134              		.thumb_func
 136              	_ZN10AdcSTM32F44readEh:
 137              		.fnstart
 138              	.LVL9:
 139              	.LFB251:
   1:Core/HALinterface/Src/AdcSTM32F4.cpp **** #include "../Inc/AdcSTM32F4.hpp"
   2:Core/HALinterface/Src/AdcSTM32F4.cpp **** #include "stm32f4xx_hal.h"
   3:Core/HALinterface/Src/AdcSTM32F4.cpp **** #include "../../Inc/adc.h"
   4:Core/HALinterface/Src/AdcSTM32F4.cpp **** 
   5:Core/HALinterface/Src/AdcSTM32F4.cpp **** AdcSTM32F4::AdcSTM32F4(ADC_HandleTypeDef* hadc)
   6:Core/HALinterface/Src/AdcSTM32F4.cpp ****     : m_hadc(hadc)
   7:Core/HALinterface/Src/AdcSTM32F4.cpp **** {
   8:Core/HALinterface/Src/AdcSTM32F4.cpp ****     MX_ADC1_Init();
   9:Core/HALinterface/Src/AdcSTM32F4.cpp ****     MX_ADC2_Init();
  10:Core/HALinterface/Src/AdcSTM32F4.cpp ****     MX_ADC3_Init();
  11:Core/HALinterface/Src/AdcSTM32F4.cpp **** }
  12:Core/HALinterface/Src/AdcSTM32F4.cpp **** 
  13:Core/HALinterface/Src/AdcSTM32F4.cpp **** uint16_t AdcSTM32F4::read(uint8_t channel) {
 140              		.loc 1 13 44 is_stmt 1 view -0
 141              		.cfi_startproc
 142              		@ args = 0, pretend = 0, frame = 16
 143              		@ frame_needed = 0, uses_anonymous_args = 0
 144              		.loc 1 13 44 is_stmt 0 view .LVU14
 145 0000 10B5     		push	{r4, lr}
 146              		.save {r4, lr}
 147              	.LCFI1:
 148              		.cfi_def_cfa_offset 8
 149              		.cfi_offset 4, -8
 150              		.cfi_offset 14, -4
ARM GAS  C:\Users\hanaj\AppData\Local\Temp\ccM3CaTy.s 			page 4


 151              		.pad #16
 152 0002 84B0     		sub	sp, sp, #16
 153              	.LCFI2:
 154              		.cfi_def_cfa_offset 24
 155 0004 0446     		mov	r4, r0
  14:Core/HALinterface/Src/AdcSTM32F4.cpp ****     // 1. ADC „ÉÅ„É£„É≥„Éç„É´„ÇíË®≠ÂÆö
  15:Core/HALinterface/Src/AdcSTM32F4.cpp ****     ADC_ChannelConfTypeDef sConfig = {0};
 156              		.loc 1 15 5 is_stmt 1 view .LVU15
 157              		.loc 1 15 28 is_stmt 0 view .LVU16
 158 0006 0023     		movs	r3, #0
 159 0008 0093     		str	r3, [sp]
 160 000a 0193     		str	r3, [sp, #4]
 161 000c 0293     		str	r3, [sp, #8]
 162 000e 0393     		str	r3, [sp, #12]
  16:Core/HALinterface/Src/AdcSTM32F4.cpp **** 
  17:Core/HALinterface/Src/AdcSTM32F4.cpp ****     // channel „Å´Âøú„Åò„Å¶ ADC_CHANNEL_0, ADC_CHANNEL_1 „Å™„Å©„ÇíÂàá„ÇäÊõø„Åà„Çã
  18:Core/HALinterface/Src/AdcSTM32F4.cpp ****     // (CubeMX„Å™„Å©„Åß‰Ωø„Å£„Å¶„ÅÑ„Çã„ÉÅ„É£„É≥„Éç„É´Áï™Âè∑„Å®ÂØæÂøú„Å•„Åë„Çã)
  19:Core/HALinterface/Src/AdcSTM32F4.cpp ****     switch (channel) {
 163              		.loc 1 19 5 is_stmt 1 view .LVU17
 164 0010 0129     		cmp	r1, #1
 165 0012 10D0     		beq	.L13
 166              	.L9:
  20:Core/HALinterface/Src/AdcSTM32F4.cpp ****         case 0:
  21:Core/HALinterface/Src/AdcSTM32F4.cpp ****             sConfig.Channel = ADC_CHANNEL_0;
  22:Core/HALinterface/Src/AdcSTM32F4.cpp ****             break;
  23:Core/HALinterface/Src/AdcSTM32F4.cpp ****         case 1:
  24:Core/HALinterface/Src/AdcSTM32F4.cpp ****             sConfig.Channel = ADC_CHANNEL_1;
  25:Core/HALinterface/Src/AdcSTM32F4.cpp ****             break;
  26:Core/HALinterface/Src/AdcSTM32F4.cpp ****         // ÂøÖË¶Å„Å´Âøú„Åò„Å¶ËøΩÂä†...
  27:Core/HALinterface/Src/AdcSTM32F4.cpp ****         default:
  28:Core/HALinterface/Src/AdcSTM32F4.cpp ****             sConfig.Channel = ADC_CHANNEL_0; 
  29:Core/HALinterface/Src/AdcSTM32F4.cpp ****             break;
  30:Core/HALinterface/Src/AdcSTM32F4.cpp ****     }
  31:Core/HALinterface/Src/AdcSTM32F4.cpp **** 
  32:Core/HALinterface/Src/AdcSTM32F4.cpp ****     sConfig.Rank         = 1;  // „Ç∑„Éº„Ç±„É≥„ÇπÂÜÖ„Åß„ÅÆÈ†Ü‰Ωç
 167              		.loc 1 32 5 view .LVU18
 168              		.loc 1 32 26 is_stmt 0 view .LVU19
 169 0014 0123     		movs	r3, #1
 170 0016 0193     		str	r3, [sp, #4]
  33:Core/HALinterface/Src/AdcSTM32F4.cpp ****     sConfig.SamplingTime = ADC_SAMPLETIME_3CYCLES; // „Çµ„É≥„Éó„É™„É≥„Ç∞ÊôÇÈñì(ÂøÖË¶Å„Å´Âøú„Åò„Å¶Â§
 171              		.loc 1 33 5 is_stmt 1 view .LVU20
  34:Core/HALinterface/Src/AdcSTM32F4.cpp ****     HAL_ADC_ConfigChannel(m_hadc, &sConfig);
 172              		.loc 1 34 5 view .LVU21
 173              		.loc 1 34 26 is_stmt 0 view .LVU22
 174 0018 6946     		mov	r1, sp
 175              	.LVL10:
 176              		.loc 1 34 26 view .LVU23
 177 001a 6068     		ldr	r0, [r4, #4]
 178              	.LVL11:
 179              		.loc 1 34 26 view .LVU24
 180 001c FFF7FEFF 		bl	HAL_ADC_ConfigChannel
 181              	.LVL12:
  35:Core/HALinterface/Src/AdcSTM32F4.cpp **** 
  36:Core/HALinterface/Src/AdcSTM32F4.cpp ****     // 2. ADCÈñãÂßã
  37:Core/HALinterface/Src/AdcSTM32F4.cpp ****     HAL_ADC_Start(m_hadc);
 182              		.loc 1 37 5 is_stmt 1 view .LVU25
 183              		.loc 1 37 18 is_stmt 0 view .LVU26
ARM GAS  C:\Users\hanaj\AppData\Local\Temp\ccM3CaTy.s 			page 5


 184 0020 6068     		ldr	r0, [r4, #4]
 185 0022 FFF7FEFF 		bl	HAL_ADC_Start
 186              	.LVL13:
  38:Core/HALinterface/Src/AdcSTM32F4.cpp **** 
  39:Core/HALinterface/Src/AdcSTM32F4.cpp ****     // 3. Â§âÊèõÂÆå‰∫ÜÂæÖ„Å°
  40:Core/HALinterface/Src/AdcSTM32F4.cpp ****     if (HAL_ADC_PollForConversion(m_hadc, 10) == HAL_OK) {
 187              		.loc 1 40 5 is_stmt 1 view .LVU27
 188              		.loc 1 40 34 is_stmt 0 view .LVU28
 189 0026 0A21     		movs	r1, #10
 190 0028 6068     		ldr	r0, [r4, #4]
 191 002a FFF7FEFF 		bl	HAL_ADC_PollForConversion
 192              	.LVL14:
 193              		.loc 1 40 5 discriminator 1 view .LVU29
 194 002e 28B1     		cbz	r0, .L14
  41:Core/HALinterface/Src/AdcSTM32F4.cpp ****         // 4. Â§âÊèõÁµêÊûú„ÇíÂèñÂæó (12bitÊÉ≥ÂÆö)
  42:Core/HALinterface/Src/AdcSTM32F4.cpp ****         return static_cast<uint16_t>(HAL_ADC_GetValue(m_hadc));
  43:Core/HALinterface/Src/AdcSTM32F4.cpp ****     }
  44:Core/HALinterface/Src/AdcSTM32F4.cpp **** 
  45:Core/HALinterface/Src/AdcSTM32F4.cpp ****     // Â§±Êïó„Åó„Åü„Çâ0„ÇíËøî„Åô„Å™„Å©
  46:Core/HALinterface/Src/AdcSTM32F4.cpp ****     return 0;
 195              		.loc 1 46 12 view .LVU30
 196 0030 0020     		movs	r0, #0
 197              	.L10:
  47:Core/HALinterface/Src/AdcSTM32F4.cpp **** }
 198              		.loc 1 47 1 view .LVU31
 199 0032 04B0     		add	sp, sp, #16
 200              	.LCFI3:
 201              		.cfi_remember_state
 202              		.cfi_def_cfa_offset 8
 203              		@ sp needed
 204 0034 10BD     		pop	{r4, pc}
 205              	.LVL15:
 206              	.L13:
 207              	.LCFI4:
 208              		.cfi_restore_state
  23:Core/HALinterface/Src/AdcSTM32F4.cpp ****             sConfig.Channel = ADC_CHANNEL_1;
 209              		.loc 1 23 9 is_stmt 1 view .LVU32
  24:Core/HALinterface/Src/AdcSTM32F4.cpp ****             break;
 210              		.loc 1 24 13 view .LVU33
  24:Core/HALinterface/Src/AdcSTM32F4.cpp ****             break;
 211              		.loc 1 24 29 is_stmt 0 view .LVU34
 212 0036 0123     		movs	r3, #1
 213 0038 0093     		str	r3, [sp]
  25:Core/HALinterface/Src/AdcSTM32F4.cpp ****         // ÂøÖË¶Å„Å´Âøú„Åò„Å¶ËøΩÂä†...
 214              		.loc 1 25 13 is_stmt 1 view .LVU35
 215 003a EBE7     		b	.L9
 216              	.LVL16:
 217              	.L14:
  42:Core/HALinterface/Src/AdcSTM32F4.cpp ****     }
 218              		.loc 1 42 9 view .LVU36
  42:Core/HALinterface/Src/AdcSTM32F4.cpp ****     }
 219              		.loc 1 42 54 is_stmt 0 view .LVU37
 220 003c 6068     		ldr	r0, [r4, #4]
 221 003e FFF7FEFF 		bl	HAL_ADC_GetValue
 222              	.LVL17:
  42:Core/HALinterface/Src/AdcSTM32F4.cpp ****     }
 223              		.loc 1 42 62 discriminator 1 view .LVU38
ARM GAS  C:\Users\hanaj\AppData\Local\Temp\ccM3CaTy.s 			page 6


 224 0042 80B2     		uxth	r0, r0
  42:Core/HALinterface/Src/AdcSTM32F4.cpp ****     }
 225              		.loc 1 42 62 view .LVU39
 226 0044 F5E7     		b	.L10
 227              		.cfi_endproc
 228              	.LFE251:
 229              		.fnend
 231              		.section	.text._ZN10AdcSTM32F4C2EP17ADC_HandleTypeDef,"ax",%progbits
 232              		.align	1
 233              		.global	_ZN10AdcSTM32F4C2EP17ADC_HandleTypeDef
 234              		.syntax unified
 235              		.thumb
 236              		.thumb_func
 238              	_ZN10AdcSTM32F4C2EP17ADC_HandleTypeDef:
 239              		.fnstart
 240              	.LVL18:
 241              	.LFB249:
   5:Core/HALinterface/Src/AdcSTM32F4.cpp ****     : m_hadc(hadc)
 242              		.loc 1 5 1 is_stmt 1 view -0
 243              		.cfi_startproc
 244              		@ args = 0, pretend = 0, frame = 0
 245              		@ frame_needed = 0, uses_anonymous_args = 0
   5:Core/HALinterface/Src/AdcSTM32F4.cpp ****     : m_hadc(hadc)
 246              		.loc 1 5 1 is_stmt 0 view .LVU41
 247 0000 10B5     		push	{r4, lr}
 248              		.save {r4, lr}
 249              	.LCFI5:
 250              		.cfi_def_cfa_offset 8
 251              		.cfi_offset 4, -8
 252              		.cfi_offset 14, -4
 253 0002 0446     		mov	r4, r0
 254              	.LVL19:
 255              	.LBB28:
 256              	.LBB29:
 257              	.LBI29:
   5:Core/HALinterface/Src/../Inc/IAdc.hpp **** public:
 258              		.loc 3 5 7 is_stmt 1 view .LVU42
 259              	.LBB30:
 260 0004 084B     		ldr	r3, .L21
 261 0006 0360     		str	r3, [r0]
 262              	.LVL20:
   5:Core/HALinterface/Src/../Inc/IAdc.hpp **** public:
 263              		.loc 3 5 7 is_stmt 0 view .LVU43
 264              	.LBE30:
 265              	.LBE29:
   6:Core/HALinterface/Src/AdcSTM32F4.cpp **** {
 266              		.loc 1 6 18 discriminator 1 view .LVU44
 267 0008 084B     		ldr	r3, .L21+4
 268 000a 0360     		str	r3, [r0]
   6:Core/HALinterface/Src/AdcSTM32F4.cpp **** {
 269              		.loc 1 6 7 discriminator 1 view .LVU45
 270 000c 4160     		str	r1, [r0, #4]
   8:Core/HALinterface/Src/AdcSTM32F4.cpp ****     MX_ADC2_Init();
 271              		.loc 1 8 5 is_stmt 1 view .LVU46
 272              	.LEHB0:
   8:Core/HALinterface/Src/AdcSTM32F4.cpp ****     MX_ADC2_Init();
 273              		.loc 1 8 17 is_stmt 0 view .LVU47
ARM GAS  C:\Users\hanaj\AppData\Local\Temp\ccM3CaTy.s 			page 7


 274 000e FFF7FEFF 		bl	MX_ADC1_Init
 275              	.LVL21:
   9:Core/HALinterface/Src/AdcSTM32F4.cpp ****     MX_ADC3_Init();
 276              		.loc 1 9 5 is_stmt 1 view .LVU48
   9:Core/HALinterface/Src/AdcSTM32F4.cpp ****     MX_ADC3_Init();
 277              		.loc 1 9 17 is_stmt 0 view .LVU49
 278 0012 FFF7FEFF 		bl	MX_ADC2_Init
 279              	.LVL22:
  10:Core/HALinterface/Src/AdcSTM32F4.cpp **** }
 280              		.loc 1 10 5 is_stmt 1 view .LVU50
  10:Core/HALinterface/Src/AdcSTM32F4.cpp **** }
 281              		.loc 1 10 17 is_stmt 0 view .LVU51
 282 0016 FFF7FEFF 		bl	MX_ADC3_Init
 283              	.LVL23:
 284              	.LEHE0:
 285 001a 03E0     		b	.L20
 286              	.L17:
 287              	.LVL24:
 288              	.LBB31:
 289              	.LBI31:
 290              		.loc 3 7 13 is_stmt 1 view .LVU52
 291              	.LBB32:
 292 001c 024B     		ldr	r3, .L21
 293 001e 2360     		str	r3, [r4]
 294              	.LVL25:
 295              	.LEHB1:
 296              		.loc 3 7 13 is_stmt 0 view .LVU53
 297 0020 FFF7FEFF 		bl	__cxa_end_cleanup
 298              	.LVL26:
 299              	.LEHE1:
 300              	.L20:
 301              		.loc 3 7 13 view .LVU54
 302              	.LBE32:
 303              	.LBE31:
 304              	.LBE28:
  11:Core/HALinterface/Src/AdcSTM32F4.cpp **** 
 305              		.loc 1 11 1 view .LVU55
 306 0024 2046     		mov	r0, r4
 307 0026 10BD     		pop	{r4, pc}
 308              	.LVL27:
 309              	.L22:
  11:Core/HALinterface/Src/AdcSTM32F4.cpp **** 
 310              		.loc 1 11 1 view .LVU56
 311              		.align	2
 312              	.L21:
 313 0028 08000000 		.word	_ZTV4IAdc+8
 314 002c 08000000 		.word	_ZTV10AdcSTM32F4+8
 315              		.cfi_endproc
 316              	.LFE249:
 317              		.global	__gxx_personality_v0
 318              		.personality	__gxx_personality_v0
 319              		.handlerdata
 320              	.LLSDA249:
 321 0008 FF       		.byte	0xff
 322 0009 FF       		.byte	0xff
 323 000a 01       		.byte	0x1
 324 000b 08       		.uleb128 .LLSDACSE249-.LLSDACSB249
ARM GAS  C:\Users\hanaj\AppData\Local\Temp\ccM3CaTy.s 			page 8


 325              	.LLSDACSB249:
 326 000c 0E       		.uleb128 .LEHB0-.LFB249
 327 000d 0C       		.uleb128 .LEHE0-.LEHB0
 328 000e 1C       		.uleb128 .L17-.LFB249
 329 000f 00       		.uleb128 0
 330 0010 20       		.uleb128 .LEHB1-.LFB249
 331 0011 04       		.uleb128 .LEHE1-.LEHB1
 332 0012 00       		.uleb128 0
 333 0013 00       		.uleb128 0
 334              	.LLSDACSE249:
 335              		.section	.text._ZN10AdcSTM32F4C2EP17ADC_HandleTypeDef
 336              		.fnend
 338              		.global	_ZN10AdcSTM32F4C1EP17ADC_HandleTypeDef
 339              		.thumb_set _ZN10AdcSTM32F4C1EP17ADC_HandleTypeDef,_ZN10AdcSTM32F4C2EP17ADC_HandleTypeDef
 340              		.weak	_ZTS4IAdc
 341              		.section	.rodata._ZTS4IAdc,"aG",%progbits,_ZTS4IAdc,comdat
 342              		.align	2
 345              	_ZTS4IAdc:
 346 0000 34494164 		.ascii	"4IAdc\000"
 346      6300
 347              		.weak	_ZTI4IAdc
 348              		.section	.rodata._ZTI4IAdc,"aG",%progbits,_ZTI4IAdc,comdat
 349              		.align	2
 352              	_ZTI4IAdc:
 353 0000 08000000 		.word	_ZTVN10__cxxabiv117__class_type_infoE+8
 354 0004 00000000 		.word	_ZTS4IAdc
 355              		.global	_ZTS10AdcSTM32F4
 356              		.section	.rodata._ZTS10AdcSTM32F4,"a"
 357              		.align	2
 360              	_ZTS10AdcSTM32F4:
 361 0000 31304164 		.ascii	"10AdcSTM32F4\000"
 361      6353544D 
 361      33324634 
 361      00
 362              		.global	_ZTI10AdcSTM32F4
 363              		.section	.rodata._ZTI10AdcSTM32F4,"a"
 364              		.align	2
 367              	_ZTI10AdcSTM32F4:
 368 0000 08000000 		.word	_ZTVN10__cxxabiv120__si_class_type_infoE+8
 369 0004 00000000 		.word	_ZTS10AdcSTM32F4
 370 0008 00000000 		.word	_ZTI4IAdc
 371              		.weak	_ZTV4IAdc
 372              		.section	.rodata._ZTV4IAdc,"aG",%progbits,_ZTV4IAdc,comdat
 373              		.align	2
 376              	_ZTV4IAdc:
 377 0000 00000000 		.word	0
 378 0004 00000000 		.word	_ZTI4IAdc
 379 0008 00000000 		.word	0
 380 000c 00000000 		.word	0
 381 0010 00000000 		.word	__cxa_pure_virtual
 382              		.global	_ZTV10AdcSTM32F4
 383              		.section	.rodata._ZTV10AdcSTM32F4,"a"
 384              		.align	2
 387              	_ZTV10AdcSTM32F4:
 388 0000 00000000 		.word	0
 389 0004 00000000 		.word	_ZTI10AdcSTM32F4
 390 0008 00000000 		.word	_ZN10AdcSTM32F4D1Ev
ARM GAS  C:\Users\hanaj\AppData\Local\Temp\ccM3CaTy.s 			page 9


 391 000c 00000000 		.word	_ZN10AdcSTM32F4D0Ev
 392 0010 00000000 		.word	_ZN10AdcSTM32F44readEh
 393              		.weak	__cxa_pure_virtual
 394              		.text
 395              	.Letext0:
 396              		.file 4 "C:/Tools/arm-gnu-toolchain/arm-none-eabi/include/c++/13.2.1/cstdint"
 397              		.file 5 "C:/Tools/arm-gnu-toolchain/arm-none-eabi/include/c++/13.2.1/arm-none-eabi/thumb/v7e-m+fp/
 398              		.file 6 "C:/Tools/arm-gnu-toolchain/arm-none-eabi/include/machine/_default_types.h"
 399              		.file 7 "C:/Tools/arm-gnu-toolchain/arm-none-eabi/include/sys/_stdint.h"
 400              		.file 8 "C:/Tools/arm-gnu-toolchain/arm-none-eabi/include/stdint.h"
 401              		.file 9 "Drivers/CMSIS/Device/ST/STM32F4xx/Include/stm32f405xx.h"
 402              		.file 10 "Drivers/CMSIS/Device/ST/STM32F4xx/Include/stm32f4xx.h"
 403              		.file 11 "Drivers/STM32F4xx_HAL_Driver/Inc/stm32f4xx_hal_def.h"
 404              		.file 12 "Drivers/STM32F4xx_HAL_Driver/Inc/stm32f4xx_hal_dma.h"
 405              		.file 13 "Drivers/STM32F4xx_HAL_Driver/Inc/stm32f4xx_hal_adc.h"
 406              		.file 14 "Drivers/STM32F4xx_HAL_Driver/Inc/stm32f4xx_hal.h"
 407              		.file 15 "Core/HALinterface/Src/../../Inc/adc.h"
ARM GAS  C:\Users\hanaj\AppData\Local\Temp\ccM3CaTy.s 			page 10

