ARM GAS  C:\Users\hanaj\AppData\Local\Temp\cczfNnLg.s 			page 1


   1              		.cpu cortex-m4
   2              		.arch armv7e-m
   3              		.fpu fpv4-sp-d16
   4              		.eabi_attribute 27, 1
   5              		.eabi_attribute 28, 1
   6              		.eabi_attribute 20, 1
   7              		.eabi_attribute 21, 1
   8              		.eabi_attribute 23, 3
   9              		.eabi_attribute 24, 1
  10              		.eabi_attribute 25, 1
  11              		.eabi_attribute 26, 1
  12              		.eabi_attribute 30, 1
  13              		.eabi_attribute 34, 1
  14              		.eabi_attribute 18, 4
  15              		.file	"main.cpp"
  16              		.text
  17              	.Ltext0:
  18              		.cfi_sections	.debug_frame
  19              		.file 1 "Core/Src/main.cpp"
  20              		.section	.text._ZN11GpioSTM32F4D2Ev,"axG",%progbits,_ZN11GpioSTM32F4D5Ev,comdat
  21              		.align	1
  22              		.weak	_ZN11GpioSTM32F4D2Ev
  23              		.syntax unified
  24              		.thumb
  25              		.thumb_func
  27              	_ZN11GpioSTM32F4D2Ev:
  28              		.fnstart
  29              	.LVL0:
  30              	.LFB248:
  31              		.file 2 "Core/Src/../HALinterface/Inc/GpioSTM32F4.hpp"
   1:Core/Src/../HALinterface/Inc/GpioSTM32F4.hpp **** #pragma once
   2:Core/Src/../HALinterface/Inc/GpioSTM32F4.hpp **** 
   3:Core/Src/../HALinterface/Inc/GpioSTM32F4.hpp **** #include "IGpio.hpp"
   4:Core/Src/../HALinterface/Inc/GpioSTM32F4.hpp **** #include "stm32f4xx_hal.h"
   5:Core/Src/../HALinterface/Inc/GpioSTM32F4.hpp **** 
   6:Core/Src/../HALinterface/Inc/GpioSTM32F4.hpp **** class GpioSTM32F4 : public IGpio {
  32              		.loc 2 6 7 view -0
  33              		.cfi_startproc
  34              		@ args = 0, pretend = 0, frame = 0
  35              		@ frame_needed = 0, uses_anonymous_args = 0
  36              		@ link register save eliminated.
  37              	.LBB64:
  38              		.loc 2 6 7 is_stmt 0 view .LVU1
  39 0000 024A     		ldr	r2, .L2
  40 0002 0260     		str	r2, [r0]
  41              	.LVL1:
  42              	.LBB65:
  43              	.LBI65:
  44              		.file 3 "Core/Src/../HALinterface/Inc/IGpio.hpp"
   1:Core/Src/../HALinterface/Inc/IGpio.hpp **** #pragma once
   2:Core/Src/../HALinterface/Inc/IGpio.hpp **** 
   3:Core/Src/../HALinterface/Inc/IGpio.hpp **** #include <cstdint>
   4:Core/Src/../HALinterface/Inc/IGpio.hpp **** // GPIO制御用インターフェース (LED, Buttonにも使える)
   5:Core/Src/../HALinterface/Inc/IGpio.hpp **** class IGpio {
   6:Core/Src/../HALinterface/Inc/IGpio.hpp **** public:
   7:Core/Src/../HALinterface/Inc/IGpio.hpp ****     virtual ~IGpio() = default;
  45              		.loc 3 7 13 is_stmt 1 view .LVU2
ARM GAS  C:\Users\hanaj\AppData\Local\Temp\cczfNnLg.s 			page 2


  46              	.LBB66:
  47 0004 024A     		ldr	r2, .L2+4
  48 0006 0260     		str	r2, [r0]
  49              	.LVL2:
  50              		.loc 3 7 13 is_stmt 0 view .LVU3
  51              	.LBE66:
  52              	.LBE65:
  53              	.LBE64:
  54              		.loc 2 6 7 view .LVU4
  55 0008 7047     		bx	lr
  56              	.L3:
  57 000a 00BF     		.align	2
  58              	.L2:
  59 000c 08000000 		.word	_ZTV11GpioSTM32F4+8
  60 0010 08000000 		.word	_ZTV5IGpio+8
  61              		.cfi_endproc
  62              	.LFE248:
  63              		.cantunwind
  64              		.fnend
  66              		.weak	_ZN11GpioSTM32F4D1Ev
  67              		.thumb_set _ZN11GpioSTM32F4D1Ev,_ZN11GpioSTM32F4D2Ev
  68              		.section	.text._ZN10AdcSTM32F4D2Ev,"axG",%progbits,_ZN10AdcSTM32F4D5Ev,comdat
  69              		.align	1
  70              		.weak	_ZN10AdcSTM32F4D2Ev
  71              		.syntax unified
  72              		.thumb
  73              		.thumb_func
  75              	_ZN10AdcSTM32F4D2Ev:
  76              		.fnstart
  77              	.LVL3:
  78              	.LFB256:
  79              		.file 4 "Core/Src/../HALinterface/Inc/AdcSTM32F4.hpp"
   1:Core/Src/../HALinterface/Inc/AdcSTM32F4.hpp **** #pragma once
   2:Core/Src/../HALinterface/Inc/AdcSTM32F4.hpp **** 
   3:Core/Src/../HALinterface/Inc/AdcSTM32F4.hpp **** #include "IAdc.hpp"
   4:Core/Src/../HALinterface/Inc/AdcSTM32F4.hpp **** #include "stm32f4xx_hal.h"  // HAL関連のヘッダ
   5:Core/Src/../HALinterface/Inc/AdcSTM32F4.hpp **** 
   6:Core/Src/../HALinterface/Inc/AdcSTM32F4.hpp **** class AdcSTM32F4 : public IAdc {
  80              		.loc 4 6 7 is_stmt 1 view -0
  81              		.cfi_startproc
  82              		@ args = 0, pretend = 0, frame = 0
  83              		@ frame_needed = 0, uses_anonymous_args = 0
  84              		@ link register save eliminated.
  85              	.LBB67:
  86              		.loc 4 6 7 is_stmt 0 view .LVU6
  87 0000 024A     		ldr	r2, .L5
  88 0002 0260     		str	r2, [r0]
  89              	.LVL4:
  90              	.LBB68:
  91              	.LBI68:
  92              		.file 5 "Core/Src/../HALinterface/Inc/IAdc.hpp"
   1:Core/Src/../HALinterface/Inc/IAdc.hpp **** #pragma once
   2:Core/Src/../HALinterface/Inc/IAdc.hpp **** 
   3:Core/Src/../HALinterface/Inc/IAdc.hpp **** #include <cstdint>
   4:Core/Src/../HALinterface/Inc/IAdc.hpp **** // ADC用インターフェース
   5:Core/Src/../HALinterface/Inc/IAdc.hpp **** class IAdc {
   6:Core/Src/../HALinterface/Inc/IAdc.hpp **** public:
ARM GAS  C:\Users\hanaj\AppData\Local\Temp\cczfNnLg.s 			page 3


   7:Core/Src/../HALinterface/Inc/IAdc.hpp ****     virtual ~IAdc() = default;
  93              		.loc 5 7 13 is_stmt 1 view .LVU7
  94              	.LBB69:
  95 0004 024A     		ldr	r2, .L5+4
  96 0006 0260     		str	r2, [r0]
  97              	.LVL5:
  98              		.loc 5 7 13 is_stmt 0 view .LVU8
  99              	.LBE69:
 100              	.LBE68:
 101              	.LBE67:
 102              		.loc 4 6 7 view .LVU9
 103 0008 7047     		bx	lr
 104              	.L6:
 105 000a 00BF     		.align	2
 106              	.L5:
 107 000c 08000000 		.word	_ZTV10AdcSTM32F4+8
 108 0010 08000000 		.word	_ZTV4IAdc+8
 109              		.cfi_endproc
 110              	.LFE256:
 111              		.cantunwind
 112              		.fnend
 114              		.weak	_ZN10AdcSTM32F4D1Ev
 115              		.thumb_set _ZN10AdcSTM32F4D1Ev,_ZN10AdcSTM32F4D2Ev
 116              		.section	.text._ZN12TimerSTM32F4D2Ev,"axG",%progbits,_ZN12TimerSTM32F4D5Ev,comdat
 117              		.align	1
 118              		.weak	_ZN12TimerSTM32F4D2Ev
 119              		.syntax unified
 120              		.thumb
 121              		.thumb_func
 123              	_ZN12TimerSTM32F4D2Ev:
 124              		.fnstart
 125              	.LVL6:
 126              	.LFB264:
 127              		.file 6 "Core/Src/../HALinterface/Inc/TimerSTM32F4.hpp"
   1:Core/Src/../HALinterface/Inc/TimerSTM32F4.hpp **** #pragma once
   2:Core/Src/../HALinterface/Inc/TimerSTM32F4.hpp **** 
   3:Core/Src/../HALinterface/Inc/TimerSTM32F4.hpp **** #include "ITimer.hpp"
   4:Core/Src/../HALinterface/Inc/TimerSTM32F4.hpp **** #include "stm32f4xx_hal.h"
   5:Core/Src/../HALinterface/Inc/TimerSTM32F4.hpp **** 
   6:Core/Src/../HALinterface/Inc/TimerSTM32F4.hpp **** class TimerSTM32F4 : public ITimer {
 128              		.loc 6 6 7 is_stmt 1 view -0
 129              		.cfi_startproc
 130              		@ args = 0, pretend = 0, frame = 0
 131              		@ frame_needed = 0, uses_anonymous_args = 0
 132              		@ link register save eliminated.
 133              	.LBB70:
 134              		.loc 6 6 7 is_stmt 0 view .LVU11
 135 0000 024A     		ldr	r2, .L8
 136 0002 0260     		str	r2, [r0]
 137              	.LVL7:
 138              	.LBB71:
 139              	.LBI71:
 140              		.file 7 "Core/Src/../HALinterface/Inc/ITimer.hpp"
   1:Core/Src/../HALinterface/Inc/ITimer.hpp **** #pragma once
   2:Core/Src/../HALinterface/Inc/ITimer.hpp **** 
   3:Core/Src/../HALinterface/Inc/ITimer.hpp **** #include <cstdint>
   4:Core/Src/../HALinterface/Inc/ITimer.hpp **** // タイマ用インターフェース
ARM GAS  C:\Users\hanaj\AppData\Local\Temp\cczfNnLg.s 			page 4


   5:Core/Src/../HALinterface/Inc/ITimer.hpp **** class ITimer {
   6:Core/Src/../HALinterface/Inc/ITimer.hpp **** public:
   7:Core/Src/../HALinterface/Inc/ITimer.hpp ****     virtual ~ITimer() = default;
 141              		.loc 7 7 13 is_stmt 1 view .LVU12
 142              	.LBB72:
 143 0004 024A     		ldr	r2, .L8+4
 144 0006 0260     		str	r2, [r0]
 145              	.LVL8:
 146              		.loc 7 7 13 is_stmt 0 view .LVU13
 147              	.LBE72:
 148              	.LBE71:
 149              	.LBE70:
 150              		.loc 6 6 7 view .LVU14
 151 0008 7047     		bx	lr
 152              	.L9:
 153 000a 00BF     		.align	2
 154              	.L8:
 155 000c 08000000 		.word	_ZTV12TimerSTM32F4+8
 156 0010 08000000 		.word	_ZTV6ITimer+8
 157              		.cfi_endproc
 158              	.LFE264:
 159              		.cantunwind
 160              		.fnend
 162              		.weak	_ZN12TimerSTM32F4D1Ev
 163              		.thumb_set _ZN12TimerSTM32F4D1Ev,_ZN12TimerSTM32F4D2Ev
 164              		.section	.text._ZN14EncoderSTM32F4D2Ev,"axG",%progbits,_ZN14EncoderSTM32F4D5Ev,comdat
 165              		.align	1
 166              		.weak	_ZN14EncoderSTM32F4D2Ev
 167              		.syntax unified
 168              		.thumb
 169              		.thumb_func
 171              	_ZN14EncoderSTM32F4D2Ev:
 172              		.fnstart
 173              	.LVL9:
 174              	.LFB272:
 175              		.file 8 "Core/Src/../HALinterface/Inc/EncoderSTM32F4.hpp"
   1:Core/Src/../HALinterface/Inc/EncoderSTM32F4.hpp **** #pragma once
   2:Core/Src/../HALinterface/Inc/EncoderSTM32F4.hpp **** 
   3:Core/Src/../HALinterface/Inc/EncoderSTM32F4.hpp **** #include "IEncoder.hpp"
   4:Core/Src/../HALinterface/Inc/EncoderSTM32F4.hpp **** #include "stm32f4xx_hal.h"
   5:Core/Src/../HALinterface/Inc/EncoderSTM32F4.hpp **** 
   6:Core/Src/../HALinterface/Inc/EncoderSTM32F4.hpp **** class EncoderSTM32F4 : public IEncoder {
 176              		.loc 8 6 7 is_stmt 1 view -0
 177              		.cfi_startproc
 178              		@ args = 0, pretend = 0, frame = 0
 179              		@ frame_needed = 0, uses_anonymous_args = 0
 180              		@ link register save eliminated.
 181              	.LBB73:
 182              		.loc 8 6 7 is_stmt 0 view .LVU16
 183 0000 024A     		ldr	r2, .L11
 184 0002 0260     		str	r2, [r0]
 185              	.LVL10:
 186              	.LBB74:
 187              	.LBI74:
 188              		.file 9 "Core/Src/../HALinterface/Inc/IEncoder.hpp"
   1:Core/Src/../HALinterface/Inc/IEncoder.hpp **** #pragma once
   2:Core/Src/../HALinterface/Inc/IEncoder.hpp **** 
ARM GAS  C:\Users\hanaj\AppData\Local\Temp\cczfNnLg.s 			page 5


   3:Core/Src/../HALinterface/Inc/IEncoder.hpp **** #include <cstdint>
   4:Core/Src/../HALinterface/Inc/IEncoder.hpp **** // エンコーダ用インターフェース
   5:Core/Src/../HALinterface/Inc/IEncoder.hpp **** class IEncoder {
   6:Core/Src/../HALinterface/Inc/IEncoder.hpp **** public:
   7:Core/Src/../HALinterface/Inc/IEncoder.hpp ****     virtual ~IEncoder() = default;
 189              		.loc 9 7 13 is_stmt 1 view .LVU17
 190              	.LBB75:
 191 0004 024A     		ldr	r2, .L11+4
 192 0006 0260     		str	r2, [r0]
 193              	.LVL11:
 194              		.loc 9 7 13 is_stmt 0 view .LVU18
 195              	.LBE75:
 196              	.LBE74:
 197              	.LBE73:
 198              		.loc 8 6 7 view .LVU19
 199 0008 7047     		bx	lr
 200              	.L12:
 201 000a 00BF     		.align	2
 202              	.L11:
 203 000c 08000000 		.word	_ZTV14EncoderSTM32F4+8
 204 0010 08000000 		.word	_ZTV8IEncoder+8
 205              		.cfi_endproc
 206              	.LFE272:
 207              		.cantunwind
 208              		.fnend
 210              		.weak	_ZN14EncoderSTM32F4D1Ev
 211              		.thumb_set _ZN14EncoderSTM32F4D1Ev,_ZN14EncoderSTM32F4D2Ev
 212              		.section	.text._ZN10SPISTM32F4D2Ev,"axG",%progbits,_ZN10SPISTM32F4D5Ev,comdat
 213              		.align	1
 214              		.weak	_ZN10SPISTM32F4D2Ev
 215              		.syntax unified
 216              		.thumb
 217              		.thumb_func
 219              	_ZN10SPISTM32F4D2Ev:
 220              		.fnstart
 221              	.LVL12:
 222              	.LFB280:
 223              		.file 10 "Core/Src/../Driver/Inc/../../HALinterface/Inc/SPISTM32F4.hpp"
   1:Core/Src/../Driver/Inc/../../HALinterface/Inc/SPISTM32F4.hpp **** #pragma once
   2:Core/Src/../Driver/Inc/../../HALinterface/Inc/SPISTM32F4.hpp **** 
   3:Core/Src/../Driver/Inc/../../HALinterface/Inc/SPISTM32F4.hpp **** #include "ISpi.hpp"
   4:Core/Src/../Driver/Inc/../../HALinterface/Inc/SPISTM32F4.hpp **** #include "stm32f4xx_hal.h"
   5:Core/Src/../Driver/Inc/../../HALinterface/Inc/SPISTM32F4.hpp **** 
   6:Core/Src/../Driver/Inc/../../HALinterface/Inc/SPISTM32F4.hpp **** /**
   7:Core/Src/../Driver/Inc/../../HALinterface/Inc/SPISTM32F4.hpp ****  * @brief STM32F4 HALを使ってSPI通信を行うクラス
   8:Core/Src/../Driver/Inc/../../HALinterface/Inc/SPISTM32F4.hpp ****  *        ISpiインターフェースを実装する
   9:Core/Src/../Driver/Inc/../../HALinterface/Inc/SPISTM32F4.hpp ****  */
  10:Core/Src/../Driver/Inc/../../HALinterface/Inc/SPISTM32F4.hpp **** class SPISTM32F4 : public ISpi {
  11:Core/Src/../Driver/Inc/../../HALinterface/Inc/SPISTM32F4.hpp **** public:
  12:Core/Src/../Driver/Inc/../../HALinterface/Inc/SPISTM32F4.hpp ****     /**
  13:Core/Src/../Driver/Inc/../../HALinterface/Inc/SPISTM32F4.hpp ****      * @param hspi   CubeMX等で生成された SPI_HandleTypeDef (例: &hspi3)
  14:Core/Src/../Driver/Inc/../../HALinterface/Inc/SPISTM32F4.hpp ****      * @param csPort GPIOポート (例: GPIOA)
  15:Core/Src/../Driver/Inc/../../HALinterface/Inc/SPISTM32F4.hpp ****      * @param csPin  GPIOピン   (例: GPIO_PIN_4)
  16:Core/Src/../Driver/Inc/../../HALinterface/Inc/SPISTM32F4.hpp ****      */
  17:Core/Src/../Driver/Inc/../../HALinterface/Inc/SPISTM32F4.hpp ****     SPISTM32F4(SPI_HandleTypeDef* hspi, GPIO_TypeDef* csPort, uint16_t csPin);
  18:Core/Src/../Driver/Inc/../../HALinterface/Inc/SPISTM32F4.hpp ****     virtual ~SPISTM32F4() = default;
 224              		.loc 10 18 13 is_stmt 1 view -0
ARM GAS  C:\Users\hanaj\AppData\Local\Temp\cczfNnLg.s 			page 6


 225              		.cfi_startproc
 226              		@ args = 0, pretend = 0, frame = 0
 227              		@ frame_needed = 0, uses_anonymous_args = 0
 228              		@ link register save eliminated.
 229              	.LBB76:
 230              		.loc 10 18 13 is_stmt 0 view .LVU21
 231 0000 024A     		ldr	r2, .L14
 232 0002 0260     		str	r2, [r0]
 233              	.LVL13:
 234              	.LBB77:
 235              	.LBI77:
 236              		.file 11 "Core/Src/../Driver/Inc/../../HALinterface/Inc/ISpi.hpp"
   1:Core/Src/../Driver/Inc/../../HALinterface/Inc/ISpi.hpp **** #pragma once
   2:Core/Src/../Driver/Inc/../../HALinterface/Inc/ISpi.hpp **** #include <stdint.h>
   3:Core/Src/../Driver/Inc/../../HALinterface/Inc/ISpi.hpp **** 
   4:Core/Src/../Driver/Inc/../../HALinterface/Inc/ISpi.hpp **** /**
   5:Core/Src/../Driver/Inc/../../HALinterface/Inc/ISpi.hpp ****  * @brief SPI通信の抽象インターフェース
   6:Core/Src/../Driver/Inc/../../HALinterface/Inc/ISpi.hpp ****  *
   7:Core/Src/../Driver/Inc/../../HALinterface/Inc/ISpi.hpp ****  * どのMCU実装でも差し替えられるように定義。
   8:Core/Src/../Driver/Inc/../../HALinterface/Inc/ISpi.hpp ****  */
   9:Core/Src/../Driver/Inc/../../HALinterface/Inc/ISpi.hpp **** class ISpi {
  10:Core/Src/../Driver/Inc/../../HALinterface/Inc/ISpi.hpp **** public:
  11:Core/Src/../Driver/Inc/../../HALinterface/Inc/ISpi.hpp ****     virtual ~ISpi() = default;
 237              		.loc 11 11 13 is_stmt 1 view .LVU22
 238              	.LBB78:
 239 0004 024A     		ldr	r2, .L14+4
 240 0006 0260     		str	r2, [r0]
 241              	.LVL14:
 242              		.loc 11 11 13 is_stmt 0 view .LVU23
 243              	.LBE78:
 244              	.LBE77:
 245              	.LBE76:
 246              		.loc 10 18 13 view .LVU24
 247 0008 7047     		bx	lr
 248              	.L15:
 249 000a 00BF     		.align	2
 250              	.L14:
 251 000c 08000000 		.word	_ZTV10SPISTM32F4+8
 252 0010 08000000 		.word	_ZTV4ISpi+8
 253              		.cfi_endproc
 254              	.LFE280:
 255              		.cantunwind
 256              		.fnend
 258              		.weak	_ZN10SPISTM32F4D1Ev
 259              		.thumb_set _ZN10SPISTM32F4D1Ev,_ZN10SPISTM32F4D2Ev
 260              		.section	.text._ZN11GpioSTM32F4D0Ev,"axG",%progbits,_ZN11GpioSTM32F4D5Ev,comdat
 261              		.align	1
 262              		.weak	_ZN11GpioSTM32F4D0Ev
 263              		.syntax unified
 264              		.thumb
 265              		.thumb_func
 267              	_ZN11GpioSTM32F4D0Ev:
 268              		.fnstart
 269              	.LVL15:
 270              	.LFB250:
 271              		.loc 2 6 7 is_stmt 1 view -0
 272              		.cfi_startproc
ARM GAS  C:\Users\hanaj\AppData\Local\Temp\cczfNnLg.s 			page 7


 273              		@ args = 0, pretend = 0, frame = 0
 274              		@ frame_needed = 0, uses_anonymous_args = 0
 275              		.loc 2 6 7 is_stmt 0 view .LVU26
 276 0000 10B5     		push	{r4, lr}
 277              	.LCFI0:
 278              		.cfi_def_cfa_offset 8
 279              		.cfi_offset 4, -8
 280              		.cfi_offset 14, -4
 281 0002 0446     		mov	r4, r0
 282              	.LVL16:
 283              	.LBB79:
 284              	.LBI79:
 285              		.loc 2 6 7 is_stmt 1 view .LVU27
 286              	.LBB80:
 287 0004 044B     		ldr	r3, .L18
 288 0006 0360     		str	r3, [r0]
 289              	.LVL17:
 290              	.LBB81:
 291              	.LBI81:
 292              		.loc 3 7 13 view .LVU28
 293              	.LBB82:
 294 0008 044B     		ldr	r3, .L18+4
 295 000a 0360     		str	r3, [r0]
 296              	.LVL18:
 297              		.loc 3 7 13 is_stmt 0 view .LVU29
 298              	.LBE82:
 299              	.LBE81:
 300              	.LBE80:
 301              	.LBE79:
 302              		.loc 2 6 7 discriminator 1 view .LVU30
 303 000c 0C21     		movs	r1, #12
 304 000e FFF7FEFF 		bl	_ZdlPvj
 305              	.LVL19:
 306              		.loc 2 6 7 view .LVU31
 307 0012 2046     		mov	r0, r4
 308 0014 10BD     		pop	{r4, pc}
 309              	.LVL20:
 310              	.L19:
 311              		.loc 2 6 7 view .LVU32
 312 0016 00BF     		.align	2
 313              	.L18:
 314 0018 08000000 		.word	_ZTV11GpioSTM32F4+8
 315 001c 08000000 		.word	_ZTV5IGpio+8
 316              		.cfi_endproc
 317              	.LFE250:
 318              		.cantunwind
 319              		.fnend
 321              		.section	.text._ZN10AdcSTM32F4D0Ev,"axG",%progbits,_ZN10AdcSTM32F4D5Ev,comdat
 322              		.align	1
 323              		.weak	_ZN10AdcSTM32F4D0Ev
 324              		.syntax unified
 325              		.thumb
 326              		.thumb_func
 328              	_ZN10AdcSTM32F4D0Ev:
 329              		.fnstart
 330              	.LVL21:
 331              	.LFB258:
ARM GAS  C:\Users\hanaj\AppData\Local\Temp\cczfNnLg.s 			page 8


 332              		.loc 4 6 7 is_stmt 1 view -0
 333              		.cfi_startproc
 334              		@ args = 0, pretend = 0, frame = 0
 335              		@ frame_needed = 0, uses_anonymous_args = 0
 336              		.loc 4 6 7 is_stmt 0 view .LVU34
 337 0000 10B5     		push	{r4, lr}
 338              	.LCFI1:
 339              		.cfi_def_cfa_offset 8
 340              		.cfi_offset 4, -8
 341              		.cfi_offset 14, -4
 342 0002 0446     		mov	r4, r0
 343              	.LVL22:
 344              	.LBB83:
 345              	.LBI83:
 346              		.loc 4 6 7 is_stmt 1 view .LVU35
 347              	.LBB84:
 348 0004 044B     		ldr	r3, .L22
 349 0006 0360     		str	r3, [r0]
 350              	.LVL23:
 351              	.LBB85:
 352              	.LBI85:
 353              		.loc 5 7 13 view .LVU36
 354              	.LBB86:
 355 0008 044B     		ldr	r3, .L22+4
 356 000a 0360     		str	r3, [r0]
 357              	.LVL24:
 358              		.loc 5 7 13 is_stmt 0 view .LVU37
 359              	.LBE86:
 360              	.LBE85:
 361              	.LBE84:
 362              	.LBE83:
 363              		.loc 4 6 7 discriminator 1 view .LVU38
 364 000c 0821     		movs	r1, #8
 365 000e FFF7FEFF 		bl	_ZdlPvj
 366              	.LVL25:
 367              		.loc 4 6 7 view .LVU39
 368 0012 2046     		mov	r0, r4
 369 0014 10BD     		pop	{r4, pc}
 370              	.LVL26:
 371              	.L23:
 372              		.loc 4 6 7 view .LVU40
 373 0016 00BF     		.align	2
 374              	.L22:
 375 0018 08000000 		.word	_ZTV10AdcSTM32F4+8
 376 001c 08000000 		.word	_ZTV4IAdc+8
 377              		.cfi_endproc
 378              	.LFE258:
 379              		.cantunwind
 380              		.fnend
 382              		.section	.text._ZN12TimerSTM32F4D0Ev,"axG",%progbits,_ZN12TimerSTM32F4D5Ev,comdat
 383              		.align	1
 384              		.weak	_ZN12TimerSTM32F4D0Ev
 385              		.syntax unified
 386              		.thumb
 387              		.thumb_func
 389              	_ZN12TimerSTM32F4D0Ev:
 390              		.fnstart
ARM GAS  C:\Users\hanaj\AppData\Local\Temp\cczfNnLg.s 			page 9


 391              	.LVL27:
 392              	.LFB266:
 393              		.loc 6 6 7 is_stmt 1 view -0
 394              		.cfi_startproc
 395              		@ args = 0, pretend = 0, frame = 0
 396              		@ frame_needed = 0, uses_anonymous_args = 0
 397              		.loc 6 6 7 is_stmt 0 view .LVU42
 398 0000 10B5     		push	{r4, lr}
 399              	.LCFI2:
 400              		.cfi_def_cfa_offset 8
 401              		.cfi_offset 4, -8
 402              		.cfi_offset 14, -4
 403 0002 0446     		mov	r4, r0
 404              	.LVL28:
 405              	.LBB87:
 406              	.LBI87:
 407              		.loc 6 6 7 is_stmt 1 view .LVU43
 408              	.LBB88:
 409 0004 044B     		ldr	r3, .L26
 410 0006 0360     		str	r3, [r0]
 411              	.LVL29:
 412              	.LBB89:
 413              	.LBI89:
 414              		.loc 7 7 13 view .LVU44
 415              	.LBB90:
 416 0008 044B     		ldr	r3, .L26+4
 417 000a 0360     		str	r3, [r0]
 418              	.LVL30:
 419              		.loc 7 7 13 is_stmt 0 view .LVU45
 420              	.LBE90:
 421              	.LBE89:
 422              	.LBE88:
 423              	.LBE87:
 424              		.loc 6 6 7 discriminator 1 view .LVU46
 425 000c 0C21     		movs	r1, #12
 426 000e FFF7FEFF 		bl	_ZdlPvj
 427              	.LVL31:
 428              		.loc 6 6 7 view .LVU47
 429 0012 2046     		mov	r0, r4
 430 0014 10BD     		pop	{r4, pc}
 431              	.LVL32:
 432              	.L27:
 433              		.loc 6 6 7 view .LVU48
 434 0016 00BF     		.align	2
 435              	.L26:
 436 0018 08000000 		.word	_ZTV12TimerSTM32F4+8
 437 001c 08000000 		.word	_ZTV6ITimer+8
 438              		.cfi_endproc
 439              	.LFE266:
 440              		.cantunwind
 441              		.fnend
 443              		.section	.text._ZN14EncoderSTM32F4D0Ev,"axG",%progbits,_ZN14EncoderSTM32F4D5Ev,comdat
 444              		.align	1
 445              		.weak	_ZN14EncoderSTM32F4D0Ev
 446              		.syntax unified
 447              		.thumb
 448              		.thumb_func
ARM GAS  C:\Users\hanaj\AppData\Local\Temp\cczfNnLg.s 			page 10


 450              	_ZN14EncoderSTM32F4D0Ev:
 451              		.fnstart
 452              	.LVL33:
 453              	.LFB274:
 454              		.loc 8 6 7 is_stmt 1 view -0
 455              		.cfi_startproc
 456              		@ args = 0, pretend = 0, frame = 0
 457              		@ frame_needed = 0, uses_anonymous_args = 0
 458              		.loc 8 6 7 is_stmt 0 view .LVU50
 459 0000 10B5     		push	{r4, lr}
 460              	.LCFI3:
 461              		.cfi_def_cfa_offset 8
 462              		.cfi_offset 4, -8
 463              		.cfi_offset 14, -4
 464 0002 0446     		mov	r4, r0
 465              	.LVL34:
 466              	.LBB91:
 467              	.LBI91:
 468              		.loc 8 6 7 is_stmt 1 view .LVU51
 469              	.LBB92:
 470 0004 044B     		ldr	r3, .L30
 471 0006 0360     		str	r3, [r0]
 472              	.LVL35:
 473              	.LBB93:
 474              	.LBI93:
 475              		.loc 9 7 13 view .LVU52
 476              	.LBB94:
 477 0008 044B     		ldr	r3, .L30+4
 478 000a 0360     		str	r3, [r0]
 479              	.LVL36:
 480              		.loc 9 7 13 is_stmt 0 view .LVU53
 481              	.LBE94:
 482              	.LBE93:
 483              	.LBE92:
 484              	.LBE91:
 485              		.loc 8 6 7 discriminator 1 view .LVU54
 486 000c 0821     		movs	r1, #8
 487 000e FFF7FEFF 		bl	_ZdlPvj
 488              	.LVL37:
 489              		.loc 8 6 7 view .LVU55
 490 0012 2046     		mov	r0, r4
 491 0014 10BD     		pop	{r4, pc}
 492              	.LVL38:
 493              	.L31:
 494              		.loc 8 6 7 view .LVU56
 495 0016 00BF     		.align	2
 496              	.L30:
 497 0018 08000000 		.word	_ZTV14EncoderSTM32F4+8
 498 001c 08000000 		.word	_ZTV8IEncoder+8
 499              		.cfi_endproc
 500              	.LFE274:
 501              		.cantunwind
 502              		.fnend
 504              		.section	.text._ZN10SPISTM32F4D0Ev,"axG",%progbits,_ZN10SPISTM32F4D5Ev,comdat
 505              		.align	1
 506              		.weak	_ZN10SPISTM32F4D0Ev
 507              		.syntax unified
ARM GAS  C:\Users\hanaj\AppData\Local\Temp\cczfNnLg.s 			page 11


 508              		.thumb
 509              		.thumb_func
 511              	_ZN10SPISTM32F4D0Ev:
 512              		.fnstart
 513              	.LVL39:
 514              	.LFB282:
 515              		.loc 10 18 13 is_stmt 1 view -0
 516              		.cfi_startproc
 517              		@ args = 0, pretend = 0, frame = 0
 518              		@ frame_needed = 0, uses_anonymous_args = 0
 519              		.loc 10 18 13 is_stmt 0 view .LVU58
 520 0000 10B5     		push	{r4, lr}
 521              	.LCFI4:
 522              		.cfi_def_cfa_offset 8
 523              		.cfi_offset 4, -8
 524              		.cfi_offset 14, -4
 525 0002 0446     		mov	r4, r0
 526              	.LVL40:
 527              	.LBB95:
 528              	.LBI95:
 529              		.loc 10 18 13 is_stmt 1 view .LVU59
 530              	.LBB96:
 531 0004 044B     		ldr	r3, .L34
 532 0006 0360     		str	r3, [r0]
 533              	.LVL41:
 534              	.LBB97:
 535              	.LBI97:
 536              		.loc 11 11 13 view .LVU60
 537              	.LBB98:
 538 0008 044B     		ldr	r3, .L34+4
 539 000a 0360     		str	r3, [r0]
 540              	.LVL42:
 541              		.loc 11 11 13 is_stmt 0 view .LVU61
 542              	.LBE98:
 543              	.LBE97:
 544              	.LBE96:
 545              	.LBE95:
 546              		.loc 10 18 13 discriminator 1 view .LVU62
 547 000c 1021     		movs	r1, #16
 548 000e FFF7FEFF 		bl	_ZdlPvj
 549              	.LVL43:
 550              		.loc 10 18 13 view .LVU63
 551 0012 2046     		mov	r0, r4
 552 0014 10BD     		pop	{r4, pc}
 553              	.LVL44:
 554              	.L35:
 555              		.loc 10 18 13 view .LVU64
 556 0016 00BF     		.align	2
 557              	.L34:
 558 0018 08000000 		.word	_ZTV10SPISTM32F4+8
 559 001c 08000000 		.word	_ZTV4ISpi+8
 560              		.cfi_endproc
 561              	.LFE282:
 562              		.cantunwind
 563              		.fnend
 565              		.section	.text.Error_Handler,"ax",%progbits
 566              		.align	1
ARM GAS  C:\Users\hanaj\AppData\Local\Temp\cczfNnLg.s 			page 12


 567              		.global	Error_Handler
 568              		.syntax unified
 569              		.thumb
 570              		.thumb_func
 572              	Error_Handler:
 573              		.fnstart
 574              	.LFB284:
   1:Core/Src/main.cpp **** /* USER CODE BEGIN Header */
   2:Core/Src/main.cpp **** /**
   3:Core/Src/main.cpp ****   ******************************************************************************
   4:Core/Src/main.cpp ****   * @file           : main.c
   5:Core/Src/main.cpp ****   * @brief          : Main program body
   6:Core/Src/main.cpp ****   ******************************************************************************
   7:Core/Src/main.cpp ****   * @attention
   8:Core/Src/main.cpp ****   *
   9:Core/Src/main.cpp ****   * Copyright (c) 2025 STMicroelectronics.
  10:Core/Src/main.cpp ****   * All rights reserved.
  11:Core/Src/main.cpp ****   *
  12:Core/Src/main.cpp ****   * This software is licensed under terms that can be found in the LICENSE file
  13:Core/Src/main.cpp ****   * in the root directory of this software component.
  14:Core/Src/main.cpp ****   * If no LICENSE file comes with this software, it is provided AS-IS.
  15:Core/Src/main.cpp ****   *
  16:Core/Src/main.cpp ****   ******************************************************************************
  17:Core/Src/main.cpp ****   */
  18:Core/Src/main.cpp **** /* USER CODE END Header */
  19:Core/Src/main.cpp **** /* Includes ------------------------------------------------------------------*/
  20:Core/Src/main.cpp **** #include "main.h"
  21:Core/Src/main.cpp **** #include "adc.h"
  22:Core/Src/main.cpp **** #include "dma.h"
  23:Core/Src/main.cpp **** #include "spi.h"
  24:Core/Src/main.cpp **** #include "tim.h"
  25:Core/Src/main.cpp **** #include "gpio.h"
  26:Core/Src/main.cpp **** 
  27:Core/Src/main.cpp **** /* Private includes ----------------------------------------------------------*/
  28:Core/Src/main.cpp **** /* USER CODE BEGIN Includes */
  29:Core/Src/main.cpp **** #include "../HALinterface/Inc/AdcSTM32F4.hpp"
  30:Core/Src/main.cpp **** #include "../HALinterface/Inc/PwmSTM32F4.hpp"
  31:Core/Src/main.cpp **** #include "../HALinterface/Inc/TimerSTM32F4.hpp"
  32:Core/Src/main.cpp **** #include "../HALinterface/Inc/GpioSTM32F4.hpp"
  33:Core/Src/main.cpp **** #include "../HALinterface/Inc/EncoderSTM32F4.hpp"
  34:Core/Src/main.cpp **** #include "../Driver/Inc/Button.hpp"
  35:Core/Src/main.cpp **** #include "../Driver/Inc/MotorDriver.hpp"
  36:Core/Src/main.cpp **** #include "../Driver/Inc/EncoderDriver.hpp"
  37:Core/Src/main.cpp **** #include "../Driver/Inc/IMUDriver.hpp"
  38:Core/Src/main.cpp **** #include "../Driver/Inc/PhotoSensor.hpp"
  39:Core/Src/main.cpp **** #include "../Driver/Inc/LEDController.hpp"
  40:Core/Src/main.cpp **** /* USER CODE END Includes */
  41:Core/Src/main.cpp **** 
  42:Core/Src/main.cpp **** /* Private typedef -----------------------------------------------------------*/
  43:Core/Src/main.cpp **** /* USER CODE BEGIN PTD */
  44:Core/Src/main.cpp **** 
  45:Core/Src/main.cpp **** /* USER CODE END PTD */
  46:Core/Src/main.cpp **** 
  47:Core/Src/main.cpp **** /* Private define ------------------------------------------------------------*/
  48:Core/Src/main.cpp **** /* USER CODE BEGIN PD */
  49:Core/Src/main.cpp **** 
  50:Core/Src/main.cpp **** /* USER CODE END PD */
ARM GAS  C:\Users\hanaj\AppData\Local\Temp\cczfNnLg.s 			page 13


  51:Core/Src/main.cpp **** 
  52:Core/Src/main.cpp **** /* Private macro -------------------------------------------------------------*/
  53:Core/Src/main.cpp **** /* USER CODE BEGIN PM */
  54:Core/Src/main.cpp **** 
  55:Core/Src/main.cpp **** /* USER CODE END PM */
  56:Core/Src/main.cpp **** 
  57:Core/Src/main.cpp **** /* Private variables ---------------------------------------------------------*/
  58:Core/Src/main.cpp **** 
  59:Core/Src/main.cpp **** /* USER CODE BEGIN PV */
  60:Core/Src/main.cpp **** 
  61:Core/Src/main.cpp **** /* USER CODE END PV */
  62:Core/Src/main.cpp **** 
  63:Core/Src/main.cpp **** /* Private function prototypes -----------------------------------------------*/
  64:Core/Src/main.cpp **** void SystemClock_Config(void);
  65:Core/Src/main.cpp **** /* USER CODE BEGIN PFP */
  66:Core/Src/main.cpp **** 
  67:Core/Src/main.cpp **** /* USER CODE END PFP */
  68:Core/Src/main.cpp **** 
  69:Core/Src/main.cpp **** /* Private user code ---------------------------------------------------------*/
  70:Core/Src/main.cpp **** /* USER CODE BEGIN 0 */
  71:Core/Src/main.cpp **** static uint16_t adcBuffer[4];
  72:Core/Src/main.cpp **** /* USER CODE END 0 */
  73:Core/Src/main.cpp **** 
  74:Core/Src/main.cpp **** /**
  75:Core/Src/main.cpp ****   * @brief  The application entry point.
  76:Core/Src/main.cpp ****   * @retval int
  77:Core/Src/main.cpp ****   */
  78:Core/Src/main.cpp **** int main(void)
  79:Core/Src/main.cpp **** {
  80:Core/Src/main.cpp **** 
  81:Core/Src/main.cpp ****   /* USER CODE BEGIN 1 */
  82:Core/Src/main.cpp **** 
  83:Core/Src/main.cpp ****   /* USER CODE END 1 */
  84:Core/Src/main.cpp **** 
  85:Core/Src/main.cpp ****   /* MCU Configuration--------------------------------------------------------*/
  86:Core/Src/main.cpp **** 
  87:Core/Src/main.cpp ****   /* Reset of all peripherals, Initializes the Flash interface and the Systick. */
  88:Core/Src/main.cpp ****   HAL_Init();
  89:Core/Src/main.cpp **** 
  90:Core/Src/main.cpp ****   /* USER CODE BEGIN Init */
  91:Core/Src/main.cpp **** 
  92:Core/Src/main.cpp ****   /* USER CODE END Init */
  93:Core/Src/main.cpp **** 
  94:Core/Src/main.cpp ****   /* Configure the system clock */
  95:Core/Src/main.cpp ****   SystemClock_Config();
  96:Core/Src/main.cpp **** 
  97:Core/Src/main.cpp ****   /* USER CODE BEGIN SysInit */
  98:Core/Src/main.cpp **** 
  99:Core/Src/main.cpp ****   /* USER CODE END SysInit */
 100:Core/Src/main.cpp **** 
 101:Core/Src/main.cpp ****   /* Initialize all configured peripherals */
 102:Core/Src/main.cpp ****   MX_GPIO_Init();
 103:Core/Src/main.cpp ****   MX_DMA_Init();
 104:Core/Src/main.cpp ****   MX_SPI3_Init();
 105:Core/Src/main.cpp ****   MX_TIM1_Init();
 106:Core/Src/main.cpp ****   MX_TIM2_Init();
 107:Core/Src/main.cpp ****   MX_TIM3_Init();
ARM GAS  C:\Users\hanaj\AppData\Local\Temp\cczfNnLg.s 			page 14


 108:Core/Src/main.cpp ****   MX_TIM4_Init();
 109:Core/Src/main.cpp ****   MX_TIM10_Init();
 110:Core/Src/main.cpp ****   MX_TIM11_Init();
 111:Core/Src/main.cpp ****   MX_TIM5_Init();
 112:Core/Src/main.cpp ****   /* USER CODE BEGIN 2 */
 113:Core/Src/main.cpp ****   // HAL実装インスタンス
 114:Core/Src/main.cpp ****   // GPIO
 115:Core/Src/main.cpp ****   static GpioSTM32F4 AIN1(GPIOB, GPIO_PIN_15);
 116:Core/Src/main.cpp ****   static GpioSTM32F4 AIN2(GPIOB, GPIO_PIN_14);
 117:Core/Src/main.cpp ****   static GpioSTM32F4 BIN1(GPIOB, GPIO_PIN_5);
 118:Core/Src/main.cpp ****   static GpioSTM32F4 BIN2(GPIOB, GPIO_PIN_4);
 119:Core/Src/main.cpp ****   static GpioSTM32F4 SensorLED_FL(GPIOA, GPIO_PIN_12);
 120:Core/Src/main.cpp ****   static GpioSTM32F4 SensorLED_FR(GPIOA, GPIO_PIN_11);
 121:Core/Src/main.cpp ****   static GpioSTM32F4 SensorLED_R(GPIOA, GPIO_PIN_10);
 122:Core/Src/main.cpp ****   static GpioSTM32F4 SensorLED_L(GPIOC, GPIO_PIN_8);
 123:Core/Src/main.cpp ****   static GpioSTM32F4 LED_FL(GPIOA, GPIO_PIN_7);
 124:Core/Src/main.cpp ****   static GpioSTM32F4 LED_FR(GPIOC, GPIO_PIN_2);
 125:Core/Src/main.cpp ****   static GpioSTM32F4 LED_R(GPIOC, GPIO_PIN_3);
 126:Core/Src/main.cpp ****   static GpioSTM32F4 LED_L(GPIOA, GPIO_PIN_8);
 127:Core/Src/main.cpp ****   static GpioSTM32F4 ModeLED1(GPIOA, GPIO_PIN_15);
 128:Core/Src/main.cpp ****   static GpioSTM32F4 ModeLED2(GPIOB, GPIO_PIN_0);
 129:Core/Src/main.cpp ****   static GpioSTM32F4 ModeLED3(GPIOB, GPIO_PIN_1);
 130:Core/Src/main.cpp ****   static GpioSTM32F4 gpioButton(GPIOC, GPIO_PIN_5);
 131:Core/Src/main.cpp **** 
 132:Core/Src/main.cpp ****   // ADC
 133:Core/Src/main.cpp ****   static AdcSTM32F4 Adc1(&hadc1);
 134:Core/Src/main.cpp ****   static AdcSTM32F4 Adc2(&hadc2);
 135:Core/Src/main.cpp ****   static AdcSTM32F4 Adc3(&hadc3);
 136:Core/Src/main.cpp **** 
 137:Core/Src/main.cpp ****   // PWM
 138:Core/Src/main.cpp ****   static PwmSTM32F4 pwmRight(&htim1, TIM_CHANNEL_1);
 139:Core/Src/main.cpp ****   static PwmSTM32F4 pwmLeft(&htim11, TIM_CHANNEL_1);
 140:Core/Src/main.cpp ****   static PwmSTM32F4 SuctionMotor(&htim10, TIM_CHANNEL_1);
 141:Core/Src/main.cpp ****   static PwmSTM32F4 Buzzer(&htim2, TIM_CHANNEL_1);
 142:Core/Src/main.cpp **** 
 143:Core/Src/main.cpp ****   // TIMER
 144:Core/Src/main.cpp ****   static TimerSTM32F4 CalcDynamics(&htim5);
 145:Core/Src/main.cpp ****   static EncoderSTM32F4 EncoderRight(&htim3);
 146:Core/Src/main.cpp ****   static EncoderSTM32F4 EncoderLeft(&htim4);
 147:Core/Src/main.cpp **** 
 148:Core/Src/main.cpp ****   // SPI
 149:Core/Src/main.cpp ****   static SPISTM32F4 spi3(&hspi3, SPI3_CS_GPIO_Port, SPI3_CS_Pin);
 150:Core/Src/main.cpp **** 
 151:Core/Src/main.cpp ****   //ドライバクラス 
 152:Core/Src/main.cpp ****   static Button ModeChangeButton(&gpioButton, 1000);  // longPress=1000ms
 153:Core/Src/main.cpp ****   static LEDController LEDController(
 154:Core/Src/main.cpp ****       &SensorLED_FL,
 155:Core/Src/main.cpp ****       &SensorLED_FR,
 156:Core/Src/main.cpp ****       &SensorLED_R,
 157:Core/Src/main.cpp ****       &SensorLED_L,
 158:Core/Src/main.cpp ****       &LED_FL,
 159:Core/Src/main.cpp ****       &LED_FR,
 160:Core/Src/main.cpp ****       &LED_R,
 161:Core/Src/main.cpp ****       &LED_L,
 162:Core/Src/main.cpp ****       &ModeLED1,
 163:Core/Src/main.cpp ****       &ModeLED2,
 164:Core/Src/main.cpp ****       &ModeLED3
ARM GAS  C:\Users\hanaj\AppData\Local\Temp\cczfNnLg.s 			page 15


 165:Core/Src/main.cpp ****   );
 166:Core/Src/main.cpp ****   static Imu lsm6dsr(&spi3);
 167:Core/Src/main.cpp ****   static PhotoSensor PhotoSensor(&hadc1, adcBuffer, 4);
 168:Core/Src/main.cpp **** 
 169:Core/Src/main.cpp ****   // 右モータ
 170:Core/Src/main.cpp ****   static MotorDriver RightMotor(
 171:Core/Src/main.cpp ****       &pwmRight,
 172:Core/Src/main.cpp ****       &AIN1,
 173:Core/Src/main.cpp ****       &AIN2,
 174:Core/Src/main.cpp ****       840.0f   // ARR値
 175:Core/Src/main.cpp ****   );
 176:Core/Src/main.cpp **** 
 177:Core/Src/main.cpp ****   // 左モータ
 178:Core/Src/main.cpp ****   static MotorDriver LeftMotor(
 179:Core/Src/main.cpp ****       &pwmLeft,
 180:Core/Src/main.cpp ****       &BIN1,
 181:Core/Src/main.cpp ****       &BIN2,
 182:Core/Src/main.cpp ****       840.0f   // ARR値
 183:Core/Src/main.cpp ****   );
 184:Core/Src/main.cpp ****   /* USER CODE END 2 */
 185:Core/Src/main.cpp **** 
 186:Core/Src/main.cpp ****   /* Infinite loop */
 187:Core/Src/main.cpp ****   /* USER CODE BEGIN WHILE */
 188:Core/Src/main.cpp ****   while (1)
 189:Core/Src/main.cpp ****   {
 190:Core/Src/main.cpp ****     uint8_t state = ModeChangeButton.checkState();
 191:Core/Src/main.cpp **** 
 192:Core/Src/main.cpp ****         if (state == 0) {
 193:Core/Src/main.cpp ****           ModeLED1.setHigh();
 194:Core/Src/main.cpp ****             // 短い押下
 195:Core/Src/main.cpp ****             // 例えば モードを1つ進めるとか
 196:Core/Src/main.cpp ****         }
 197:Core/Src/main.cpp ****         else if (state == 1) {
 198:Core/Src/main.cpp ****           ModeLED2.setHigh();
 199:Core/Src/main.cpp ****             // 長押し
 200:Core/Src/main.cpp ****             // 例えば "決定" や "抜ける" 動作
 201:Core/Src/main.cpp ****         }
 202:Core/Src/main.cpp ****         else {
 203:Core/Src/main.cpp ****           ModeLED3.setHigh();
 204:Core/Src/main.cpp ****             // Off
 205:Core/Src/main.cpp ****             // 押されていない状態
 206:Core/Src/main.cpp ****         }
 207:Core/Src/main.cpp **** 
 208:Core/Src/main.cpp ****         // 他の処理...
 209:Core/Src/main.cpp ****         HAL_Delay(50); // 適当なウェイト
 210:Core/Src/main.cpp ****     /* USER CODE END WHILE */
 211:Core/Src/main.cpp **** 
 212:Core/Src/main.cpp ****     /* USER CODE BEGIN 3 */
 213:Core/Src/main.cpp ****   }
 214:Core/Src/main.cpp ****   /* USER CODE END 3 */
 215:Core/Src/main.cpp **** }
 216:Core/Src/main.cpp **** 
 217:Core/Src/main.cpp **** /**
 218:Core/Src/main.cpp ****   * @brief System Clock Configuration
 219:Core/Src/main.cpp ****   * @retval None
 220:Core/Src/main.cpp ****   */
 221:Core/Src/main.cpp **** void SystemClock_Config(void)
ARM GAS  C:\Users\hanaj\AppData\Local\Temp\cczfNnLg.s 			page 16


 222:Core/Src/main.cpp **** {
 223:Core/Src/main.cpp ****   RCC_OscInitTypeDef RCC_OscInitStruct = {0};
 224:Core/Src/main.cpp ****   RCC_ClkInitTypeDef RCC_ClkInitStruct = {0};
 225:Core/Src/main.cpp **** 
 226:Core/Src/main.cpp ****   /** Configure the main internal regulator output voltage
 227:Core/Src/main.cpp ****   */
 228:Core/Src/main.cpp ****   __HAL_RCC_PWR_CLK_ENABLE();
 229:Core/Src/main.cpp ****   __HAL_PWR_VOLTAGESCALING_CONFIG(PWR_REGULATOR_VOLTAGE_SCALE1);
 230:Core/Src/main.cpp **** 
 231:Core/Src/main.cpp ****   /** Initializes the RCC Oscillators according to the specified parameters
 232:Core/Src/main.cpp ****   * in the RCC_OscInitTypeDef structure.
 233:Core/Src/main.cpp ****   */
 234:Core/Src/main.cpp ****   RCC_OscInitStruct.OscillatorType = RCC_OSCILLATORTYPE_HSI;
 235:Core/Src/main.cpp ****   RCC_OscInitStruct.HSIState = RCC_HSI_ON;
 236:Core/Src/main.cpp ****   RCC_OscInitStruct.HSICalibrationValue = RCC_HSICALIBRATION_DEFAULT;
 237:Core/Src/main.cpp ****   RCC_OscInitStruct.PLL.PLLState = RCC_PLL_ON;
 238:Core/Src/main.cpp ****   RCC_OscInitStruct.PLL.PLLSource = RCC_PLLSOURCE_HSI;
 239:Core/Src/main.cpp ****   RCC_OscInitStruct.PLL.PLLM = 8;
 240:Core/Src/main.cpp ****   RCC_OscInitStruct.PLL.PLLN = 168;
 241:Core/Src/main.cpp ****   RCC_OscInitStruct.PLL.PLLP = RCC_PLLP_DIV2;
 242:Core/Src/main.cpp ****   RCC_OscInitStruct.PLL.PLLQ = 4;
 243:Core/Src/main.cpp ****   if (HAL_RCC_OscConfig(&RCC_OscInitStruct) != HAL_OK)
 244:Core/Src/main.cpp ****   {
 245:Core/Src/main.cpp ****     Error_Handler();
 246:Core/Src/main.cpp ****   }
 247:Core/Src/main.cpp **** 
 248:Core/Src/main.cpp ****   /** Initializes the CPU, AHB and APB buses clocks
 249:Core/Src/main.cpp ****   */
 250:Core/Src/main.cpp ****   RCC_ClkInitStruct.ClockType = RCC_CLOCKTYPE_HCLK|RCC_CLOCKTYPE_SYSCLK
 251:Core/Src/main.cpp ****                               |RCC_CLOCKTYPE_PCLK1|RCC_CLOCKTYPE_PCLK2;
 252:Core/Src/main.cpp ****   RCC_ClkInitStruct.SYSCLKSource = RCC_SYSCLKSOURCE_PLLCLK;
 253:Core/Src/main.cpp ****   RCC_ClkInitStruct.AHBCLKDivider = RCC_SYSCLK_DIV1;
 254:Core/Src/main.cpp ****   RCC_ClkInitStruct.APB1CLKDivider = RCC_HCLK_DIV4;
 255:Core/Src/main.cpp ****   RCC_ClkInitStruct.APB2CLKDivider = RCC_HCLK_DIV2;
 256:Core/Src/main.cpp **** 
 257:Core/Src/main.cpp ****   if (HAL_RCC_ClockConfig(&RCC_ClkInitStruct, FLASH_LATENCY_5) != HAL_OK)
 258:Core/Src/main.cpp ****   {
 259:Core/Src/main.cpp ****     Error_Handler();
 260:Core/Src/main.cpp ****   }
 261:Core/Src/main.cpp **** }
 262:Core/Src/main.cpp **** 
 263:Core/Src/main.cpp **** /* USER CODE BEGIN 4 */
 264:Core/Src/main.cpp **** 
 265:Core/Src/main.cpp **** /* USER CODE END 4 */
 266:Core/Src/main.cpp **** 
 267:Core/Src/main.cpp **** /**
 268:Core/Src/main.cpp ****   * @brief  This function is executed in case of error occurrence.
 269:Core/Src/main.cpp ****   * @retval None
 270:Core/Src/main.cpp ****   */
 271:Core/Src/main.cpp **** void Error_Handler(void)
 272:Core/Src/main.cpp **** {
 575              		.loc 1 272 1 is_stmt 1 view -0
 576              		.cfi_startproc
 577              		@ Volatile: function does not return.
 578              		@ args = 0, pretend = 0, frame = 0
 579              		@ frame_needed = 0, uses_anonymous_args = 0
 580              		@ link register save eliminated.
ARM GAS  C:\Users\hanaj\AppData\Local\Temp\cczfNnLg.s 			page 17


 273:Core/Src/main.cpp ****   /* USER CODE BEGIN Error_Handler_Debug */
 274:Core/Src/main.cpp ****   /* User can add his own implementation to report the HAL error return state */
 275:Core/Src/main.cpp ****   __disable_irq();
 581              		.loc 1 275 3 view .LVU66
 582              	.LBB99:
 583              	.LBI99:
 584              		.file 12 "Drivers/CMSIS/Include/cmsis_gcc.h"
   1:Drivers/CMSIS/Include/cmsis_gcc.h **** /**************************************************************************//**
   2:Drivers/CMSIS/Include/cmsis_gcc.h ****  * @file     cmsis_gcc.h
   3:Drivers/CMSIS/Include/cmsis_gcc.h ****  * @brief    CMSIS compiler GCC header file
   4:Drivers/CMSIS/Include/cmsis_gcc.h ****  * @version  V5.4.1
   5:Drivers/CMSIS/Include/cmsis_gcc.h ****  * @date     27. May 2021
   6:Drivers/CMSIS/Include/cmsis_gcc.h ****  ******************************************************************************/
   7:Drivers/CMSIS/Include/cmsis_gcc.h **** /*
   8:Drivers/CMSIS/Include/cmsis_gcc.h ****  * Copyright (c) 2009-2021 Arm Limited. All rights reserved.
   9:Drivers/CMSIS/Include/cmsis_gcc.h ****  *
  10:Drivers/CMSIS/Include/cmsis_gcc.h ****  * SPDX-License-Identifier: Apache-2.0
  11:Drivers/CMSIS/Include/cmsis_gcc.h ****  *
  12:Drivers/CMSIS/Include/cmsis_gcc.h ****  * Licensed under the Apache License, Version 2.0 (the License); you may
  13:Drivers/CMSIS/Include/cmsis_gcc.h ****  * not use this file except in compliance with the License.
  14:Drivers/CMSIS/Include/cmsis_gcc.h ****  * You may obtain a copy of the License at
  15:Drivers/CMSIS/Include/cmsis_gcc.h ****  *
  16:Drivers/CMSIS/Include/cmsis_gcc.h ****  * www.apache.org/licenses/LICENSE-2.0
  17:Drivers/CMSIS/Include/cmsis_gcc.h ****  *
  18:Drivers/CMSIS/Include/cmsis_gcc.h ****  * Unless required by applicable law or agreed to in writing, software
  19:Drivers/CMSIS/Include/cmsis_gcc.h ****  * distributed under the License is distributed on an AS IS BASIS, WITHOUT
  20:Drivers/CMSIS/Include/cmsis_gcc.h ****  * WARRANTIES OR CONDITIONS OF ANY KIND, either express or implied.
  21:Drivers/CMSIS/Include/cmsis_gcc.h ****  * See the License for the specific language governing permissions and
  22:Drivers/CMSIS/Include/cmsis_gcc.h ****  * limitations under the License.
  23:Drivers/CMSIS/Include/cmsis_gcc.h ****  */
  24:Drivers/CMSIS/Include/cmsis_gcc.h **** 
  25:Drivers/CMSIS/Include/cmsis_gcc.h **** #ifndef __CMSIS_GCC_H
  26:Drivers/CMSIS/Include/cmsis_gcc.h **** #define __CMSIS_GCC_H
  27:Drivers/CMSIS/Include/cmsis_gcc.h **** 
  28:Drivers/CMSIS/Include/cmsis_gcc.h **** /* ignore some GCC warnings */
  29:Drivers/CMSIS/Include/cmsis_gcc.h **** #pragma GCC diagnostic push
  30:Drivers/CMSIS/Include/cmsis_gcc.h **** #pragma GCC diagnostic ignored "-Wsign-conversion"
  31:Drivers/CMSIS/Include/cmsis_gcc.h **** #pragma GCC diagnostic ignored "-Wconversion"
  32:Drivers/CMSIS/Include/cmsis_gcc.h **** #pragma GCC diagnostic ignored "-Wunused-parameter"
  33:Drivers/CMSIS/Include/cmsis_gcc.h **** 
  34:Drivers/CMSIS/Include/cmsis_gcc.h **** /* Fallback for __has_builtin */
  35:Drivers/CMSIS/Include/cmsis_gcc.h **** #ifndef __has_builtin
  36:Drivers/CMSIS/Include/cmsis_gcc.h ****   #define __has_builtin(x) (0)
  37:Drivers/CMSIS/Include/cmsis_gcc.h **** #endif
  38:Drivers/CMSIS/Include/cmsis_gcc.h **** 
  39:Drivers/CMSIS/Include/cmsis_gcc.h **** /* CMSIS compiler specific defines */
  40:Drivers/CMSIS/Include/cmsis_gcc.h **** #ifndef   __ASM
  41:Drivers/CMSIS/Include/cmsis_gcc.h ****   #define __ASM                                  __asm
  42:Drivers/CMSIS/Include/cmsis_gcc.h **** #endif
  43:Drivers/CMSIS/Include/cmsis_gcc.h **** #ifndef   __INLINE
  44:Drivers/CMSIS/Include/cmsis_gcc.h ****   #define __INLINE                               inline
  45:Drivers/CMSIS/Include/cmsis_gcc.h **** #endif
  46:Drivers/CMSIS/Include/cmsis_gcc.h **** #ifndef   __STATIC_INLINE
  47:Drivers/CMSIS/Include/cmsis_gcc.h ****   #define __STATIC_INLINE                        static inline
  48:Drivers/CMSIS/Include/cmsis_gcc.h **** #endif
  49:Drivers/CMSIS/Include/cmsis_gcc.h **** #ifndef   __STATIC_FORCEINLINE
  50:Drivers/CMSIS/Include/cmsis_gcc.h ****   #define __STATIC_FORCEINLINE                   __attribute__((always_inline)) static inline
ARM GAS  C:\Users\hanaj\AppData\Local\Temp\cczfNnLg.s 			page 18


  51:Drivers/CMSIS/Include/cmsis_gcc.h **** #endif
  52:Drivers/CMSIS/Include/cmsis_gcc.h **** #ifndef   __NO_RETURN
  53:Drivers/CMSIS/Include/cmsis_gcc.h ****   #define __NO_RETURN                            __attribute__((__noreturn__))
  54:Drivers/CMSIS/Include/cmsis_gcc.h **** #endif
  55:Drivers/CMSIS/Include/cmsis_gcc.h **** #ifndef   __USED
  56:Drivers/CMSIS/Include/cmsis_gcc.h ****   #define __USED                                 __attribute__((used))
  57:Drivers/CMSIS/Include/cmsis_gcc.h **** #endif
  58:Drivers/CMSIS/Include/cmsis_gcc.h **** #ifndef   __WEAK
  59:Drivers/CMSIS/Include/cmsis_gcc.h ****   #define __WEAK                                 __attribute__((weak))
  60:Drivers/CMSIS/Include/cmsis_gcc.h **** #endif
  61:Drivers/CMSIS/Include/cmsis_gcc.h **** #ifndef   __PACKED
  62:Drivers/CMSIS/Include/cmsis_gcc.h ****   #define __PACKED                               __attribute__((packed, aligned(1)))
  63:Drivers/CMSIS/Include/cmsis_gcc.h **** #endif
  64:Drivers/CMSIS/Include/cmsis_gcc.h **** #ifndef   __PACKED_STRUCT
  65:Drivers/CMSIS/Include/cmsis_gcc.h ****   #define __PACKED_STRUCT                        struct __attribute__((packed, aligned(1)))
  66:Drivers/CMSIS/Include/cmsis_gcc.h **** #endif
  67:Drivers/CMSIS/Include/cmsis_gcc.h **** #ifndef   __PACKED_UNION
  68:Drivers/CMSIS/Include/cmsis_gcc.h ****   #define __PACKED_UNION                         union __attribute__((packed, aligned(1)))
  69:Drivers/CMSIS/Include/cmsis_gcc.h **** #endif
  70:Drivers/CMSIS/Include/cmsis_gcc.h **** #ifndef   __UNALIGNED_UINT32        /* deprecated */
  71:Drivers/CMSIS/Include/cmsis_gcc.h ****   #pragma GCC diagnostic push
  72:Drivers/CMSIS/Include/cmsis_gcc.h ****   #pragma GCC diagnostic ignored "-Wpacked"
  73:Drivers/CMSIS/Include/cmsis_gcc.h ****   #pragma GCC diagnostic ignored "-Wattributes"
  74:Drivers/CMSIS/Include/cmsis_gcc.h ****   struct __attribute__((packed)) T_UINT32 { uint32_t v; };
  75:Drivers/CMSIS/Include/cmsis_gcc.h ****   #pragma GCC diagnostic pop
  76:Drivers/CMSIS/Include/cmsis_gcc.h ****   #define __UNALIGNED_UINT32(x)                  (((struct T_UINT32 *)(x))->v)
  77:Drivers/CMSIS/Include/cmsis_gcc.h **** #endif
  78:Drivers/CMSIS/Include/cmsis_gcc.h **** #ifndef   __UNALIGNED_UINT16_WRITE
  79:Drivers/CMSIS/Include/cmsis_gcc.h ****   #pragma GCC diagnostic push
  80:Drivers/CMSIS/Include/cmsis_gcc.h ****   #pragma GCC diagnostic ignored "-Wpacked"
  81:Drivers/CMSIS/Include/cmsis_gcc.h ****   #pragma GCC diagnostic ignored "-Wattributes"
  82:Drivers/CMSIS/Include/cmsis_gcc.h ****   __PACKED_STRUCT T_UINT16_WRITE { uint16_t v; };
  83:Drivers/CMSIS/Include/cmsis_gcc.h ****   #pragma GCC diagnostic pop
  84:Drivers/CMSIS/Include/cmsis_gcc.h ****   #define __UNALIGNED_UINT16_WRITE(addr, val)    (void)((((struct T_UINT16_WRITE *)(void *)(addr))-
  85:Drivers/CMSIS/Include/cmsis_gcc.h **** #endif
  86:Drivers/CMSIS/Include/cmsis_gcc.h **** #ifndef   __UNALIGNED_UINT16_READ
  87:Drivers/CMSIS/Include/cmsis_gcc.h ****   #pragma GCC diagnostic push
  88:Drivers/CMSIS/Include/cmsis_gcc.h ****   #pragma GCC diagnostic ignored "-Wpacked"
  89:Drivers/CMSIS/Include/cmsis_gcc.h ****   #pragma GCC diagnostic ignored "-Wattributes"
  90:Drivers/CMSIS/Include/cmsis_gcc.h ****   __PACKED_STRUCT T_UINT16_READ { uint16_t v; };
  91:Drivers/CMSIS/Include/cmsis_gcc.h ****   #pragma GCC diagnostic pop
  92:Drivers/CMSIS/Include/cmsis_gcc.h ****   #define __UNALIGNED_UINT16_READ(addr)          (((const struct T_UINT16_READ *)(const void *)(add
  93:Drivers/CMSIS/Include/cmsis_gcc.h **** #endif
  94:Drivers/CMSIS/Include/cmsis_gcc.h **** #ifndef   __UNALIGNED_UINT32_WRITE
  95:Drivers/CMSIS/Include/cmsis_gcc.h ****   #pragma GCC diagnostic push
  96:Drivers/CMSIS/Include/cmsis_gcc.h ****   #pragma GCC diagnostic ignored "-Wpacked"
  97:Drivers/CMSIS/Include/cmsis_gcc.h ****   #pragma GCC diagnostic ignored "-Wattributes"
  98:Drivers/CMSIS/Include/cmsis_gcc.h ****   __PACKED_STRUCT T_UINT32_WRITE { uint32_t v; };
  99:Drivers/CMSIS/Include/cmsis_gcc.h ****   #pragma GCC diagnostic pop
 100:Drivers/CMSIS/Include/cmsis_gcc.h ****   #define __UNALIGNED_UINT32_WRITE(addr, val)    (void)((((struct T_UINT32_WRITE *)(void *)(addr))-
 101:Drivers/CMSIS/Include/cmsis_gcc.h **** #endif
 102:Drivers/CMSIS/Include/cmsis_gcc.h **** #ifndef   __UNALIGNED_UINT32_READ
 103:Drivers/CMSIS/Include/cmsis_gcc.h ****   #pragma GCC diagnostic push
 104:Drivers/CMSIS/Include/cmsis_gcc.h ****   #pragma GCC diagnostic ignored "-Wpacked"
 105:Drivers/CMSIS/Include/cmsis_gcc.h ****   #pragma GCC diagnostic ignored "-Wattributes"
 106:Drivers/CMSIS/Include/cmsis_gcc.h ****   __PACKED_STRUCT T_UINT32_READ { uint32_t v; };
 107:Drivers/CMSIS/Include/cmsis_gcc.h ****   #pragma GCC diagnostic pop
ARM GAS  C:\Users\hanaj\AppData\Local\Temp\cczfNnLg.s 			page 19


 108:Drivers/CMSIS/Include/cmsis_gcc.h ****   #define __UNALIGNED_UINT32_READ(addr)          (((const struct T_UINT32_READ *)(const void *)(add
 109:Drivers/CMSIS/Include/cmsis_gcc.h **** #endif
 110:Drivers/CMSIS/Include/cmsis_gcc.h **** #ifndef   __ALIGNED
 111:Drivers/CMSIS/Include/cmsis_gcc.h ****   #define __ALIGNED(x)                           __attribute__((aligned(x)))
 112:Drivers/CMSIS/Include/cmsis_gcc.h **** #endif
 113:Drivers/CMSIS/Include/cmsis_gcc.h **** #ifndef   __RESTRICT
 114:Drivers/CMSIS/Include/cmsis_gcc.h ****   #define __RESTRICT                             __restrict
 115:Drivers/CMSIS/Include/cmsis_gcc.h **** #endif
 116:Drivers/CMSIS/Include/cmsis_gcc.h **** #ifndef   __COMPILER_BARRIER
 117:Drivers/CMSIS/Include/cmsis_gcc.h ****   #define __COMPILER_BARRIER()                   __ASM volatile("":::"memory")
 118:Drivers/CMSIS/Include/cmsis_gcc.h **** #endif
 119:Drivers/CMSIS/Include/cmsis_gcc.h **** 
 120:Drivers/CMSIS/Include/cmsis_gcc.h **** /* #########################  Startup and Lowlevel Init  ######################## */
 121:Drivers/CMSIS/Include/cmsis_gcc.h **** 
 122:Drivers/CMSIS/Include/cmsis_gcc.h **** #ifndef __PROGRAM_START
 123:Drivers/CMSIS/Include/cmsis_gcc.h **** 
 124:Drivers/CMSIS/Include/cmsis_gcc.h **** /**
 125:Drivers/CMSIS/Include/cmsis_gcc.h ****   \brief   Initializes data and bss sections
 126:Drivers/CMSIS/Include/cmsis_gcc.h ****   \details This default implementations initialized all data and additional bss
 127:Drivers/CMSIS/Include/cmsis_gcc.h ****            sections relying on .copy.table and .zero.table specified properly
 128:Drivers/CMSIS/Include/cmsis_gcc.h ****            in the used linker script.
 129:Drivers/CMSIS/Include/cmsis_gcc.h **** 
 130:Drivers/CMSIS/Include/cmsis_gcc.h ****  */
 131:Drivers/CMSIS/Include/cmsis_gcc.h **** __STATIC_FORCEINLINE __NO_RETURN void __cmsis_start(void)
 132:Drivers/CMSIS/Include/cmsis_gcc.h **** {
 133:Drivers/CMSIS/Include/cmsis_gcc.h ****   extern void _start(void) __NO_RETURN;
 134:Drivers/CMSIS/Include/cmsis_gcc.h **** 
 135:Drivers/CMSIS/Include/cmsis_gcc.h ****   typedef struct {
 136:Drivers/CMSIS/Include/cmsis_gcc.h ****     uint32_t const* src;
 137:Drivers/CMSIS/Include/cmsis_gcc.h ****     uint32_t* dest;
 138:Drivers/CMSIS/Include/cmsis_gcc.h ****     uint32_t  wlen;
 139:Drivers/CMSIS/Include/cmsis_gcc.h ****   } __copy_table_t;
 140:Drivers/CMSIS/Include/cmsis_gcc.h **** 
 141:Drivers/CMSIS/Include/cmsis_gcc.h ****   typedef struct {
 142:Drivers/CMSIS/Include/cmsis_gcc.h ****     uint32_t* dest;
 143:Drivers/CMSIS/Include/cmsis_gcc.h ****     uint32_t  wlen;
 144:Drivers/CMSIS/Include/cmsis_gcc.h ****   } __zero_table_t;
 145:Drivers/CMSIS/Include/cmsis_gcc.h **** 
 146:Drivers/CMSIS/Include/cmsis_gcc.h ****   extern const __copy_table_t __copy_table_start__;
 147:Drivers/CMSIS/Include/cmsis_gcc.h ****   extern const __copy_table_t __copy_table_end__;
 148:Drivers/CMSIS/Include/cmsis_gcc.h ****   extern const __zero_table_t __zero_table_start__;
 149:Drivers/CMSIS/Include/cmsis_gcc.h ****   extern const __zero_table_t __zero_table_end__;
 150:Drivers/CMSIS/Include/cmsis_gcc.h **** 
 151:Drivers/CMSIS/Include/cmsis_gcc.h ****   for (__copy_table_t const* pTable = &__copy_table_start__; pTable < &__copy_table_end__; ++pTable
 152:Drivers/CMSIS/Include/cmsis_gcc.h ****     for(uint32_t i=0u; i<pTable->wlen; ++i) {
 153:Drivers/CMSIS/Include/cmsis_gcc.h ****       pTable->dest[i] = pTable->src[i];
 154:Drivers/CMSIS/Include/cmsis_gcc.h ****     }
 155:Drivers/CMSIS/Include/cmsis_gcc.h ****   }
 156:Drivers/CMSIS/Include/cmsis_gcc.h **** 
 157:Drivers/CMSIS/Include/cmsis_gcc.h ****   for (__zero_table_t const* pTable = &__zero_table_start__; pTable < &__zero_table_end__; ++pTable
 158:Drivers/CMSIS/Include/cmsis_gcc.h ****     for(uint32_t i=0u; i<pTable->wlen; ++i) {
 159:Drivers/CMSIS/Include/cmsis_gcc.h ****       pTable->dest[i] = 0u;
 160:Drivers/CMSIS/Include/cmsis_gcc.h ****     }
 161:Drivers/CMSIS/Include/cmsis_gcc.h ****   }
 162:Drivers/CMSIS/Include/cmsis_gcc.h **** 
 163:Drivers/CMSIS/Include/cmsis_gcc.h ****   _start();
 164:Drivers/CMSIS/Include/cmsis_gcc.h **** }
ARM GAS  C:\Users\hanaj\AppData\Local\Temp\cczfNnLg.s 			page 20


 165:Drivers/CMSIS/Include/cmsis_gcc.h **** 
 166:Drivers/CMSIS/Include/cmsis_gcc.h **** #define __PROGRAM_START           __cmsis_start
 167:Drivers/CMSIS/Include/cmsis_gcc.h **** #endif
 168:Drivers/CMSIS/Include/cmsis_gcc.h **** 
 169:Drivers/CMSIS/Include/cmsis_gcc.h **** #ifndef __INITIAL_SP
 170:Drivers/CMSIS/Include/cmsis_gcc.h **** #define __INITIAL_SP              __StackTop
 171:Drivers/CMSIS/Include/cmsis_gcc.h **** #endif
 172:Drivers/CMSIS/Include/cmsis_gcc.h **** 
 173:Drivers/CMSIS/Include/cmsis_gcc.h **** #ifndef __STACK_LIMIT
 174:Drivers/CMSIS/Include/cmsis_gcc.h **** #define __STACK_LIMIT             __StackLimit
 175:Drivers/CMSIS/Include/cmsis_gcc.h **** #endif
 176:Drivers/CMSIS/Include/cmsis_gcc.h **** 
 177:Drivers/CMSIS/Include/cmsis_gcc.h **** #ifndef __VECTOR_TABLE
 178:Drivers/CMSIS/Include/cmsis_gcc.h **** #define __VECTOR_TABLE            __Vectors
 179:Drivers/CMSIS/Include/cmsis_gcc.h **** #endif
 180:Drivers/CMSIS/Include/cmsis_gcc.h **** 
 181:Drivers/CMSIS/Include/cmsis_gcc.h **** #ifndef __VECTOR_TABLE_ATTRIBUTE
 182:Drivers/CMSIS/Include/cmsis_gcc.h **** #define __VECTOR_TABLE_ATTRIBUTE  __attribute__((used, section(".vectors")))
 183:Drivers/CMSIS/Include/cmsis_gcc.h **** #endif
 184:Drivers/CMSIS/Include/cmsis_gcc.h **** 
 185:Drivers/CMSIS/Include/cmsis_gcc.h **** #if defined (__ARM_FEATURE_CMSE) && (__ARM_FEATURE_CMSE == 3U)
 186:Drivers/CMSIS/Include/cmsis_gcc.h **** #ifndef __STACK_SEAL
 187:Drivers/CMSIS/Include/cmsis_gcc.h **** #define __STACK_SEAL              __StackSeal
 188:Drivers/CMSIS/Include/cmsis_gcc.h **** #endif
 189:Drivers/CMSIS/Include/cmsis_gcc.h **** 
 190:Drivers/CMSIS/Include/cmsis_gcc.h **** #ifndef __TZ_STACK_SEAL_SIZE
 191:Drivers/CMSIS/Include/cmsis_gcc.h **** #define __TZ_STACK_SEAL_SIZE      8U
 192:Drivers/CMSIS/Include/cmsis_gcc.h **** #endif
 193:Drivers/CMSIS/Include/cmsis_gcc.h **** 
 194:Drivers/CMSIS/Include/cmsis_gcc.h **** #ifndef __TZ_STACK_SEAL_VALUE
 195:Drivers/CMSIS/Include/cmsis_gcc.h **** #define __TZ_STACK_SEAL_VALUE     0xFEF5EDA5FEF5EDA5ULL
 196:Drivers/CMSIS/Include/cmsis_gcc.h **** #endif
 197:Drivers/CMSIS/Include/cmsis_gcc.h **** 
 198:Drivers/CMSIS/Include/cmsis_gcc.h **** 
 199:Drivers/CMSIS/Include/cmsis_gcc.h **** __STATIC_FORCEINLINE void __TZ_set_STACKSEAL_S (uint32_t* stackTop) {
 200:Drivers/CMSIS/Include/cmsis_gcc.h ****   *((uint64_t *)stackTop) = __TZ_STACK_SEAL_VALUE;
 201:Drivers/CMSIS/Include/cmsis_gcc.h **** }
 202:Drivers/CMSIS/Include/cmsis_gcc.h **** #endif
 203:Drivers/CMSIS/Include/cmsis_gcc.h **** 
 204:Drivers/CMSIS/Include/cmsis_gcc.h **** 
 205:Drivers/CMSIS/Include/cmsis_gcc.h **** /* ##########################  Core Instruction Access  ######################### */
 206:Drivers/CMSIS/Include/cmsis_gcc.h **** /** \defgroup CMSIS_Core_InstructionInterface CMSIS Core Instruction Interface
 207:Drivers/CMSIS/Include/cmsis_gcc.h ****   Access to dedicated instructions
 208:Drivers/CMSIS/Include/cmsis_gcc.h ****   @{
 209:Drivers/CMSIS/Include/cmsis_gcc.h **** */
 210:Drivers/CMSIS/Include/cmsis_gcc.h **** 
 211:Drivers/CMSIS/Include/cmsis_gcc.h **** /* Define macros for porting to both thumb1 and thumb2.
 212:Drivers/CMSIS/Include/cmsis_gcc.h ****  * For thumb1, use low register (r0-r7), specified by constraint "l"
 213:Drivers/CMSIS/Include/cmsis_gcc.h ****  * Otherwise, use general registers, specified by constraint "r" */
 214:Drivers/CMSIS/Include/cmsis_gcc.h **** #if defined (__thumb__) && !defined (__thumb2__)
 215:Drivers/CMSIS/Include/cmsis_gcc.h **** #define __CMSIS_GCC_OUT_REG(r) "=l" (r)
 216:Drivers/CMSIS/Include/cmsis_gcc.h **** #define __CMSIS_GCC_RW_REG(r) "+l" (r)
 217:Drivers/CMSIS/Include/cmsis_gcc.h **** #define __CMSIS_GCC_USE_REG(r) "l" (r)
 218:Drivers/CMSIS/Include/cmsis_gcc.h **** #else
 219:Drivers/CMSIS/Include/cmsis_gcc.h **** #define __CMSIS_GCC_OUT_REG(r) "=r" (r)
 220:Drivers/CMSIS/Include/cmsis_gcc.h **** #define __CMSIS_GCC_RW_REG(r) "+r" (r)
 221:Drivers/CMSIS/Include/cmsis_gcc.h **** #define __CMSIS_GCC_USE_REG(r) "r" (r)
ARM GAS  C:\Users\hanaj\AppData\Local\Temp\cczfNnLg.s 			page 21


 222:Drivers/CMSIS/Include/cmsis_gcc.h **** #endif
 223:Drivers/CMSIS/Include/cmsis_gcc.h **** 
 224:Drivers/CMSIS/Include/cmsis_gcc.h **** /**
 225:Drivers/CMSIS/Include/cmsis_gcc.h ****   \brief   No Operation
 226:Drivers/CMSIS/Include/cmsis_gcc.h ****   \details No Operation does nothing. This instruction can be used for code alignment purposes.
 227:Drivers/CMSIS/Include/cmsis_gcc.h ****  */
 228:Drivers/CMSIS/Include/cmsis_gcc.h **** #define __NOP()                             __ASM volatile ("nop")
 229:Drivers/CMSIS/Include/cmsis_gcc.h **** 
 230:Drivers/CMSIS/Include/cmsis_gcc.h **** /**
 231:Drivers/CMSIS/Include/cmsis_gcc.h ****   \brief   Wait For Interrupt
 232:Drivers/CMSIS/Include/cmsis_gcc.h ****   \details Wait For Interrupt is a hint instruction that suspends execution until one of a number o
 233:Drivers/CMSIS/Include/cmsis_gcc.h ****  */
 234:Drivers/CMSIS/Include/cmsis_gcc.h **** #define __WFI()                             __ASM volatile ("wfi":::"memory")
 235:Drivers/CMSIS/Include/cmsis_gcc.h **** 
 236:Drivers/CMSIS/Include/cmsis_gcc.h **** 
 237:Drivers/CMSIS/Include/cmsis_gcc.h **** /**
 238:Drivers/CMSIS/Include/cmsis_gcc.h ****   \brief   Wait For Event
 239:Drivers/CMSIS/Include/cmsis_gcc.h ****   \details Wait For Event is a hint instruction that permits the processor to enter
 240:Drivers/CMSIS/Include/cmsis_gcc.h ****            a low-power state until one of a number of events occurs.
 241:Drivers/CMSIS/Include/cmsis_gcc.h ****  */
 242:Drivers/CMSIS/Include/cmsis_gcc.h **** #define __WFE()                             __ASM volatile ("wfe":::"memory")
 243:Drivers/CMSIS/Include/cmsis_gcc.h **** 
 244:Drivers/CMSIS/Include/cmsis_gcc.h **** 
 245:Drivers/CMSIS/Include/cmsis_gcc.h **** /**
 246:Drivers/CMSIS/Include/cmsis_gcc.h ****   \brief   Send Event
 247:Drivers/CMSIS/Include/cmsis_gcc.h ****   \details Send Event is a hint instruction. It causes an event to be signaled to the CPU.
 248:Drivers/CMSIS/Include/cmsis_gcc.h ****  */
 249:Drivers/CMSIS/Include/cmsis_gcc.h **** #define __SEV()                             __ASM volatile ("sev")
 250:Drivers/CMSIS/Include/cmsis_gcc.h **** 
 251:Drivers/CMSIS/Include/cmsis_gcc.h **** 
 252:Drivers/CMSIS/Include/cmsis_gcc.h **** /**
 253:Drivers/CMSIS/Include/cmsis_gcc.h ****   \brief   Instruction Synchronization Barrier
 254:Drivers/CMSIS/Include/cmsis_gcc.h ****   \details Instruction Synchronization Barrier flushes the pipeline in the processor,
 255:Drivers/CMSIS/Include/cmsis_gcc.h ****            so that all instructions following the ISB are fetched from cache or memory,
 256:Drivers/CMSIS/Include/cmsis_gcc.h ****            after the instruction has been completed.
 257:Drivers/CMSIS/Include/cmsis_gcc.h ****  */
 258:Drivers/CMSIS/Include/cmsis_gcc.h **** __STATIC_FORCEINLINE void __ISB(void)
 259:Drivers/CMSIS/Include/cmsis_gcc.h **** {
 260:Drivers/CMSIS/Include/cmsis_gcc.h ****   __ASM volatile ("isb 0xF":::"memory");
 261:Drivers/CMSIS/Include/cmsis_gcc.h **** }
 262:Drivers/CMSIS/Include/cmsis_gcc.h **** 
 263:Drivers/CMSIS/Include/cmsis_gcc.h **** 
 264:Drivers/CMSIS/Include/cmsis_gcc.h **** /**
 265:Drivers/CMSIS/Include/cmsis_gcc.h ****   \brief   Data Synchronization Barrier
 266:Drivers/CMSIS/Include/cmsis_gcc.h ****   \details Acts as a special kind of Data Memory Barrier.
 267:Drivers/CMSIS/Include/cmsis_gcc.h ****            It completes when all explicit memory accesses before this instruction complete.
 268:Drivers/CMSIS/Include/cmsis_gcc.h ****  */
 269:Drivers/CMSIS/Include/cmsis_gcc.h **** __STATIC_FORCEINLINE void __DSB(void)
 270:Drivers/CMSIS/Include/cmsis_gcc.h **** {
 271:Drivers/CMSIS/Include/cmsis_gcc.h ****   __ASM volatile ("dsb 0xF":::"memory");
 272:Drivers/CMSIS/Include/cmsis_gcc.h **** }
 273:Drivers/CMSIS/Include/cmsis_gcc.h **** 
 274:Drivers/CMSIS/Include/cmsis_gcc.h **** 
 275:Drivers/CMSIS/Include/cmsis_gcc.h **** /**
 276:Drivers/CMSIS/Include/cmsis_gcc.h ****   \brief   Data Memory Barrier
 277:Drivers/CMSIS/Include/cmsis_gcc.h ****   \details Ensures the apparent order of the explicit memory operations before
 278:Drivers/CMSIS/Include/cmsis_gcc.h ****            and after the instruction, without ensuring their completion.
ARM GAS  C:\Users\hanaj\AppData\Local\Temp\cczfNnLg.s 			page 22


 279:Drivers/CMSIS/Include/cmsis_gcc.h ****  */
 280:Drivers/CMSIS/Include/cmsis_gcc.h **** __STATIC_FORCEINLINE void __DMB(void)
 281:Drivers/CMSIS/Include/cmsis_gcc.h **** {
 282:Drivers/CMSIS/Include/cmsis_gcc.h ****   __ASM volatile ("dmb 0xF":::"memory");
 283:Drivers/CMSIS/Include/cmsis_gcc.h **** }
 284:Drivers/CMSIS/Include/cmsis_gcc.h **** 
 285:Drivers/CMSIS/Include/cmsis_gcc.h **** 
 286:Drivers/CMSIS/Include/cmsis_gcc.h **** /**
 287:Drivers/CMSIS/Include/cmsis_gcc.h ****   \brief   Reverse byte order (32 bit)
 288:Drivers/CMSIS/Include/cmsis_gcc.h ****   \details Reverses the byte order in unsigned integer value. For example, 0x12345678 becomes 0x785
 289:Drivers/CMSIS/Include/cmsis_gcc.h ****   \param [in]    value  Value to reverse
 290:Drivers/CMSIS/Include/cmsis_gcc.h ****   \return               Reversed value
 291:Drivers/CMSIS/Include/cmsis_gcc.h ****  */
 292:Drivers/CMSIS/Include/cmsis_gcc.h **** __STATIC_FORCEINLINE uint32_t __REV(uint32_t value)
 293:Drivers/CMSIS/Include/cmsis_gcc.h **** {
 294:Drivers/CMSIS/Include/cmsis_gcc.h **** #if (__GNUC__ > 4) || (__GNUC__ == 4 && __GNUC_MINOR__ >= 5)
 295:Drivers/CMSIS/Include/cmsis_gcc.h ****   return __builtin_bswap32(value);
 296:Drivers/CMSIS/Include/cmsis_gcc.h **** #else
 297:Drivers/CMSIS/Include/cmsis_gcc.h ****   uint32_t result;
 298:Drivers/CMSIS/Include/cmsis_gcc.h **** 
 299:Drivers/CMSIS/Include/cmsis_gcc.h ****   __ASM ("rev %0, %1" : __CMSIS_GCC_OUT_REG (result) : __CMSIS_GCC_USE_REG (value) );
 300:Drivers/CMSIS/Include/cmsis_gcc.h ****   return result;
 301:Drivers/CMSIS/Include/cmsis_gcc.h **** #endif
 302:Drivers/CMSIS/Include/cmsis_gcc.h **** }
 303:Drivers/CMSIS/Include/cmsis_gcc.h **** 
 304:Drivers/CMSIS/Include/cmsis_gcc.h **** 
 305:Drivers/CMSIS/Include/cmsis_gcc.h **** /**
 306:Drivers/CMSIS/Include/cmsis_gcc.h ****   \brief   Reverse byte order (16 bit)
 307:Drivers/CMSIS/Include/cmsis_gcc.h ****   \details Reverses the byte order within each halfword of a word. For example, 0x12345678 becomes 
 308:Drivers/CMSIS/Include/cmsis_gcc.h ****   \param [in]    value  Value to reverse
 309:Drivers/CMSIS/Include/cmsis_gcc.h ****   \return               Reversed value
 310:Drivers/CMSIS/Include/cmsis_gcc.h ****  */
 311:Drivers/CMSIS/Include/cmsis_gcc.h **** __STATIC_FORCEINLINE uint32_t __REV16(uint32_t value)
 312:Drivers/CMSIS/Include/cmsis_gcc.h **** {
 313:Drivers/CMSIS/Include/cmsis_gcc.h ****   uint32_t result;
 314:Drivers/CMSIS/Include/cmsis_gcc.h **** 
 315:Drivers/CMSIS/Include/cmsis_gcc.h ****   __ASM ("rev16 %0, %1" : __CMSIS_GCC_OUT_REG (result) : __CMSIS_GCC_USE_REG (value) );
 316:Drivers/CMSIS/Include/cmsis_gcc.h ****   return result;
 317:Drivers/CMSIS/Include/cmsis_gcc.h **** }
 318:Drivers/CMSIS/Include/cmsis_gcc.h **** 
 319:Drivers/CMSIS/Include/cmsis_gcc.h **** 
 320:Drivers/CMSIS/Include/cmsis_gcc.h **** /**
 321:Drivers/CMSIS/Include/cmsis_gcc.h ****   \brief   Reverse byte order (16 bit)
 322:Drivers/CMSIS/Include/cmsis_gcc.h ****   \details Reverses the byte order in a 16-bit value and returns the signed 16-bit result. For exam
 323:Drivers/CMSIS/Include/cmsis_gcc.h ****   \param [in]    value  Value to reverse
 324:Drivers/CMSIS/Include/cmsis_gcc.h ****   \return               Reversed value
 325:Drivers/CMSIS/Include/cmsis_gcc.h ****  */
 326:Drivers/CMSIS/Include/cmsis_gcc.h **** __STATIC_FORCEINLINE int16_t __REVSH(int16_t value)
 327:Drivers/CMSIS/Include/cmsis_gcc.h **** {
 328:Drivers/CMSIS/Include/cmsis_gcc.h **** #if (__GNUC__ > 4) || (__GNUC__ == 4 && __GNUC_MINOR__ >= 8)
 329:Drivers/CMSIS/Include/cmsis_gcc.h ****   return (int16_t)__builtin_bswap16(value);
 330:Drivers/CMSIS/Include/cmsis_gcc.h **** #else
 331:Drivers/CMSIS/Include/cmsis_gcc.h ****   int16_t result;
 332:Drivers/CMSIS/Include/cmsis_gcc.h **** 
 333:Drivers/CMSIS/Include/cmsis_gcc.h ****   __ASM ("revsh %0, %1" : __CMSIS_GCC_OUT_REG (result) : __CMSIS_GCC_USE_REG (value) );
 334:Drivers/CMSIS/Include/cmsis_gcc.h ****   return result;
 335:Drivers/CMSIS/Include/cmsis_gcc.h **** #endif
ARM GAS  C:\Users\hanaj\AppData\Local\Temp\cczfNnLg.s 			page 23


 336:Drivers/CMSIS/Include/cmsis_gcc.h **** }
 337:Drivers/CMSIS/Include/cmsis_gcc.h **** 
 338:Drivers/CMSIS/Include/cmsis_gcc.h **** 
 339:Drivers/CMSIS/Include/cmsis_gcc.h **** /**
 340:Drivers/CMSIS/Include/cmsis_gcc.h ****   \brief   Rotate Right in unsigned value (32 bit)
 341:Drivers/CMSIS/Include/cmsis_gcc.h ****   \details Rotate Right (immediate) provides the value of the contents of a register rotated by a v
 342:Drivers/CMSIS/Include/cmsis_gcc.h ****   \param [in]    op1  Value to rotate
 343:Drivers/CMSIS/Include/cmsis_gcc.h ****   \param [in]    op2  Number of Bits to rotate
 344:Drivers/CMSIS/Include/cmsis_gcc.h ****   \return               Rotated value
 345:Drivers/CMSIS/Include/cmsis_gcc.h ****  */
 346:Drivers/CMSIS/Include/cmsis_gcc.h **** __STATIC_FORCEINLINE uint32_t __ROR(uint32_t op1, uint32_t op2)
 347:Drivers/CMSIS/Include/cmsis_gcc.h **** {
 348:Drivers/CMSIS/Include/cmsis_gcc.h ****   op2 %= 32U;
 349:Drivers/CMSIS/Include/cmsis_gcc.h ****   if (op2 == 0U)
 350:Drivers/CMSIS/Include/cmsis_gcc.h ****   {
 351:Drivers/CMSIS/Include/cmsis_gcc.h ****     return op1;
 352:Drivers/CMSIS/Include/cmsis_gcc.h ****   }
 353:Drivers/CMSIS/Include/cmsis_gcc.h ****   return (op1 >> op2) | (op1 << (32U - op2));
 354:Drivers/CMSIS/Include/cmsis_gcc.h **** }
 355:Drivers/CMSIS/Include/cmsis_gcc.h **** 
 356:Drivers/CMSIS/Include/cmsis_gcc.h **** 
 357:Drivers/CMSIS/Include/cmsis_gcc.h **** /**
 358:Drivers/CMSIS/Include/cmsis_gcc.h ****   \brief   Breakpoint
 359:Drivers/CMSIS/Include/cmsis_gcc.h ****   \details Causes the processor to enter Debug state.
 360:Drivers/CMSIS/Include/cmsis_gcc.h ****            Debug tools can use this to investigate system state when the instruction at a particula
 361:Drivers/CMSIS/Include/cmsis_gcc.h ****   \param [in]    value  is ignored by the processor.
 362:Drivers/CMSIS/Include/cmsis_gcc.h ****                  If required, a debugger can use it to store additional information about the break
 363:Drivers/CMSIS/Include/cmsis_gcc.h ****  */
 364:Drivers/CMSIS/Include/cmsis_gcc.h **** #define __BKPT(value)                       __ASM volatile ("bkpt "#value)
 365:Drivers/CMSIS/Include/cmsis_gcc.h **** 
 366:Drivers/CMSIS/Include/cmsis_gcc.h **** 
 367:Drivers/CMSIS/Include/cmsis_gcc.h **** /**
 368:Drivers/CMSIS/Include/cmsis_gcc.h ****   \brief   Reverse bit order of value
 369:Drivers/CMSIS/Include/cmsis_gcc.h ****   \details Reverses the bit order of the given value.
 370:Drivers/CMSIS/Include/cmsis_gcc.h ****   \param [in]    value  Value to reverse
 371:Drivers/CMSIS/Include/cmsis_gcc.h ****   \return               Reversed value
 372:Drivers/CMSIS/Include/cmsis_gcc.h ****  */
 373:Drivers/CMSIS/Include/cmsis_gcc.h **** __STATIC_FORCEINLINE uint32_t __RBIT(uint32_t value)
 374:Drivers/CMSIS/Include/cmsis_gcc.h **** {
 375:Drivers/CMSIS/Include/cmsis_gcc.h ****   uint32_t result;
 376:Drivers/CMSIS/Include/cmsis_gcc.h **** 
 377:Drivers/CMSIS/Include/cmsis_gcc.h **** #if ((defined (__ARM_ARCH_7M__      ) && (__ARM_ARCH_7M__      == 1)) || \
 378:Drivers/CMSIS/Include/cmsis_gcc.h ****      (defined (__ARM_ARCH_7EM__     ) && (__ARM_ARCH_7EM__     == 1)) || \
 379:Drivers/CMSIS/Include/cmsis_gcc.h ****      (defined (__ARM_ARCH_8M_MAIN__ ) && (__ARM_ARCH_8M_MAIN__ == 1))    )
 380:Drivers/CMSIS/Include/cmsis_gcc.h ****    __ASM ("rbit %0, %1" : "=r" (result) : "r" (value) );
 381:Drivers/CMSIS/Include/cmsis_gcc.h **** #else
 382:Drivers/CMSIS/Include/cmsis_gcc.h ****   uint32_t s = (4U /*sizeof(v)*/ * 8U) - 1U; /* extra shift needed at end */
 383:Drivers/CMSIS/Include/cmsis_gcc.h **** 
 384:Drivers/CMSIS/Include/cmsis_gcc.h ****   result = value;                      /* r will be reversed bits of v; first get LSB of v */
 385:Drivers/CMSIS/Include/cmsis_gcc.h ****   for (value >>= 1U; value != 0U; value >>= 1U)
 386:Drivers/CMSIS/Include/cmsis_gcc.h ****   {
 387:Drivers/CMSIS/Include/cmsis_gcc.h ****     result <<= 1U;
 388:Drivers/CMSIS/Include/cmsis_gcc.h ****     result |= value & 1U;
 389:Drivers/CMSIS/Include/cmsis_gcc.h ****     s--;
 390:Drivers/CMSIS/Include/cmsis_gcc.h ****   }
 391:Drivers/CMSIS/Include/cmsis_gcc.h ****   result <<= s;                        /* shift when v's highest bits are zero */
 392:Drivers/CMSIS/Include/cmsis_gcc.h **** #endif
ARM GAS  C:\Users\hanaj\AppData\Local\Temp\cczfNnLg.s 			page 24


 393:Drivers/CMSIS/Include/cmsis_gcc.h ****   return result;
 394:Drivers/CMSIS/Include/cmsis_gcc.h **** }
 395:Drivers/CMSIS/Include/cmsis_gcc.h **** 
 396:Drivers/CMSIS/Include/cmsis_gcc.h **** 
 397:Drivers/CMSIS/Include/cmsis_gcc.h **** /**
 398:Drivers/CMSIS/Include/cmsis_gcc.h ****   \brief   Count leading zeros
 399:Drivers/CMSIS/Include/cmsis_gcc.h ****   \details Counts the number of leading zeros of a data value.
 400:Drivers/CMSIS/Include/cmsis_gcc.h ****   \param [in]  value  Value to count the leading zeros
 401:Drivers/CMSIS/Include/cmsis_gcc.h ****   \return             number of leading zeros in value
 402:Drivers/CMSIS/Include/cmsis_gcc.h ****  */
 403:Drivers/CMSIS/Include/cmsis_gcc.h **** __STATIC_FORCEINLINE uint8_t __CLZ(uint32_t value)
 404:Drivers/CMSIS/Include/cmsis_gcc.h **** {
 405:Drivers/CMSIS/Include/cmsis_gcc.h ****   /* Even though __builtin_clz produces a CLZ instruction on ARM, formally
 406:Drivers/CMSIS/Include/cmsis_gcc.h ****      __builtin_clz(0) is undefined behaviour, so handle this case specially.
 407:Drivers/CMSIS/Include/cmsis_gcc.h ****      This guarantees ARM-compatible results if happening to compile on a non-ARM
 408:Drivers/CMSIS/Include/cmsis_gcc.h ****      target, and ensures the compiler doesn't decide to activate any
 409:Drivers/CMSIS/Include/cmsis_gcc.h ****      optimisations using the logic "value was passed to __builtin_clz, so it
 410:Drivers/CMSIS/Include/cmsis_gcc.h ****      is non-zero".
 411:Drivers/CMSIS/Include/cmsis_gcc.h ****      ARM GCC 7.3 and possibly earlier will optimise this test away, leaving a
 412:Drivers/CMSIS/Include/cmsis_gcc.h ****      single CLZ instruction.
 413:Drivers/CMSIS/Include/cmsis_gcc.h ****    */
 414:Drivers/CMSIS/Include/cmsis_gcc.h ****   if (value == 0U)
 415:Drivers/CMSIS/Include/cmsis_gcc.h ****   {
 416:Drivers/CMSIS/Include/cmsis_gcc.h ****     return 32U;
 417:Drivers/CMSIS/Include/cmsis_gcc.h ****   }
 418:Drivers/CMSIS/Include/cmsis_gcc.h ****   return __builtin_clz(value);
 419:Drivers/CMSIS/Include/cmsis_gcc.h **** }
 420:Drivers/CMSIS/Include/cmsis_gcc.h **** 
 421:Drivers/CMSIS/Include/cmsis_gcc.h **** 
 422:Drivers/CMSIS/Include/cmsis_gcc.h **** #if ((defined (__ARM_ARCH_7M__      ) && (__ARM_ARCH_7M__      == 1)) || \
 423:Drivers/CMSIS/Include/cmsis_gcc.h ****      (defined (__ARM_ARCH_7EM__     ) && (__ARM_ARCH_7EM__     == 1)) || \
 424:Drivers/CMSIS/Include/cmsis_gcc.h ****      (defined (__ARM_ARCH_8M_MAIN__ ) && (__ARM_ARCH_8M_MAIN__ == 1)) || \
 425:Drivers/CMSIS/Include/cmsis_gcc.h ****      (defined (__ARM_ARCH_8M_BASE__ ) && (__ARM_ARCH_8M_BASE__ == 1))    )
 426:Drivers/CMSIS/Include/cmsis_gcc.h **** /**
 427:Drivers/CMSIS/Include/cmsis_gcc.h ****   \brief   LDR Exclusive (8 bit)
 428:Drivers/CMSIS/Include/cmsis_gcc.h ****   \details Executes a exclusive LDR instruction for 8 bit value.
 429:Drivers/CMSIS/Include/cmsis_gcc.h ****   \param [in]    ptr  Pointer to data
 430:Drivers/CMSIS/Include/cmsis_gcc.h ****   \return             value of type uint8_t at (*ptr)
 431:Drivers/CMSIS/Include/cmsis_gcc.h ****  */
 432:Drivers/CMSIS/Include/cmsis_gcc.h **** __STATIC_FORCEINLINE uint8_t __LDREXB(volatile uint8_t *addr)
 433:Drivers/CMSIS/Include/cmsis_gcc.h **** {
 434:Drivers/CMSIS/Include/cmsis_gcc.h ****     uint32_t result;
 435:Drivers/CMSIS/Include/cmsis_gcc.h **** 
 436:Drivers/CMSIS/Include/cmsis_gcc.h **** #if (__GNUC__ > 4) || (__GNUC__ == 4 && __GNUC_MINOR__ >= 8)
 437:Drivers/CMSIS/Include/cmsis_gcc.h ****    __ASM volatile ("ldrexb %0, %1" : "=r" (result) : "Q" (*addr) );
 438:Drivers/CMSIS/Include/cmsis_gcc.h **** #else
 439:Drivers/CMSIS/Include/cmsis_gcc.h ****     /* Prior to GCC 4.8, "Q" will be expanded to [rx, #0] which is not
 440:Drivers/CMSIS/Include/cmsis_gcc.h ****        accepted by assembler. So has to use following less efficient pattern.
 441:Drivers/CMSIS/Include/cmsis_gcc.h ****     */
 442:Drivers/CMSIS/Include/cmsis_gcc.h ****    __ASM volatile ("ldrexb %0, [%1]" : "=r" (result) : "r" (addr) : "memory" );
 443:Drivers/CMSIS/Include/cmsis_gcc.h **** #endif
 444:Drivers/CMSIS/Include/cmsis_gcc.h ****    return ((uint8_t) result);    /* Add explicit type cast here */
 445:Drivers/CMSIS/Include/cmsis_gcc.h **** }
 446:Drivers/CMSIS/Include/cmsis_gcc.h **** 
 447:Drivers/CMSIS/Include/cmsis_gcc.h **** 
 448:Drivers/CMSIS/Include/cmsis_gcc.h **** /**
 449:Drivers/CMSIS/Include/cmsis_gcc.h ****   \brief   LDR Exclusive (16 bit)
ARM GAS  C:\Users\hanaj\AppData\Local\Temp\cczfNnLg.s 			page 25


 450:Drivers/CMSIS/Include/cmsis_gcc.h ****   \details Executes a exclusive LDR instruction for 16 bit values.
 451:Drivers/CMSIS/Include/cmsis_gcc.h ****   \param [in]    ptr  Pointer to data
 452:Drivers/CMSIS/Include/cmsis_gcc.h ****   \return        value of type uint16_t at (*ptr)
 453:Drivers/CMSIS/Include/cmsis_gcc.h ****  */
 454:Drivers/CMSIS/Include/cmsis_gcc.h **** __STATIC_FORCEINLINE uint16_t __LDREXH(volatile uint16_t *addr)
 455:Drivers/CMSIS/Include/cmsis_gcc.h **** {
 456:Drivers/CMSIS/Include/cmsis_gcc.h ****     uint32_t result;
 457:Drivers/CMSIS/Include/cmsis_gcc.h **** 
 458:Drivers/CMSIS/Include/cmsis_gcc.h **** #if (__GNUC__ > 4) || (__GNUC__ == 4 && __GNUC_MINOR__ >= 8)
 459:Drivers/CMSIS/Include/cmsis_gcc.h ****    __ASM volatile ("ldrexh %0, %1" : "=r" (result) : "Q" (*addr) );
 460:Drivers/CMSIS/Include/cmsis_gcc.h **** #else
 461:Drivers/CMSIS/Include/cmsis_gcc.h ****     /* Prior to GCC 4.8, "Q" will be expanded to [rx, #0] which is not
 462:Drivers/CMSIS/Include/cmsis_gcc.h ****        accepted by assembler. So has to use following less efficient pattern.
 463:Drivers/CMSIS/Include/cmsis_gcc.h ****     */
 464:Drivers/CMSIS/Include/cmsis_gcc.h ****    __ASM volatile ("ldrexh %0, [%1]" : "=r" (result) : "r" (addr) : "memory" );
 465:Drivers/CMSIS/Include/cmsis_gcc.h **** #endif
 466:Drivers/CMSIS/Include/cmsis_gcc.h ****    return ((uint16_t) result);    /* Add explicit type cast here */
 467:Drivers/CMSIS/Include/cmsis_gcc.h **** }
 468:Drivers/CMSIS/Include/cmsis_gcc.h **** 
 469:Drivers/CMSIS/Include/cmsis_gcc.h **** 
 470:Drivers/CMSIS/Include/cmsis_gcc.h **** /**
 471:Drivers/CMSIS/Include/cmsis_gcc.h ****   \brief   LDR Exclusive (32 bit)
 472:Drivers/CMSIS/Include/cmsis_gcc.h ****   \details Executes a exclusive LDR instruction for 32 bit values.
 473:Drivers/CMSIS/Include/cmsis_gcc.h ****   \param [in]    ptr  Pointer to data
 474:Drivers/CMSIS/Include/cmsis_gcc.h ****   \return        value of type uint32_t at (*ptr)
 475:Drivers/CMSIS/Include/cmsis_gcc.h ****  */
 476:Drivers/CMSIS/Include/cmsis_gcc.h **** __STATIC_FORCEINLINE uint32_t __LDREXW(volatile uint32_t *addr)
 477:Drivers/CMSIS/Include/cmsis_gcc.h **** {
 478:Drivers/CMSIS/Include/cmsis_gcc.h ****     uint32_t result;
 479:Drivers/CMSIS/Include/cmsis_gcc.h **** 
 480:Drivers/CMSIS/Include/cmsis_gcc.h ****    __ASM volatile ("ldrex %0, %1" : "=r" (result) : "Q" (*addr) );
 481:Drivers/CMSIS/Include/cmsis_gcc.h ****    return(result);
 482:Drivers/CMSIS/Include/cmsis_gcc.h **** }
 483:Drivers/CMSIS/Include/cmsis_gcc.h **** 
 484:Drivers/CMSIS/Include/cmsis_gcc.h **** 
 485:Drivers/CMSIS/Include/cmsis_gcc.h **** /**
 486:Drivers/CMSIS/Include/cmsis_gcc.h ****   \brief   STR Exclusive (8 bit)
 487:Drivers/CMSIS/Include/cmsis_gcc.h ****   \details Executes a exclusive STR instruction for 8 bit values.
 488:Drivers/CMSIS/Include/cmsis_gcc.h ****   \param [in]  value  Value to store
 489:Drivers/CMSIS/Include/cmsis_gcc.h ****   \param [in]    ptr  Pointer to location
 490:Drivers/CMSIS/Include/cmsis_gcc.h ****   \return          0  Function succeeded
 491:Drivers/CMSIS/Include/cmsis_gcc.h ****   \return          1  Function failed
 492:Drivers/CMSIS/Include/cmsis_gcc.h ****  */
 493:Drivers/CMSIS/Include/cmsis_gcc.h **** __STATIC_FORCEINLINE uint32_t __STREXB(uint8_t value, volatile uint8_t *addr)
 494:Drivers/CMSIS/Include/cmsis_gcc.h **** {
 495:Drivers/CMSIS/Include/cmsis_gcc.h ****    uint32_t result;
 496:Drivers/CMSIS/Include/cmsis_gcc.h **** 
 497:Drivers/CMSIS/Include/cmsis_gcc.h ****    __ASM volatile ("strexb %0, %2, %1" : "=&r" (result), "=Q" (*addr) : "r" ((uint32_t)value) );
 498:Drivers/CMSIS/Include/cmsis_gcc.h ****    return(result);
 499:Drivers/CMSIS/Include/cmsis_gcc.h **** }
 500:Drivers/CMSIS/Include/cmsis_gcc.h **** 
 501:Drivers/CMSIS/Include/cmsis_gcc.h **** 
 502:Drivers/CMSIS/Include/cmsis_gcc.h **** /**
 503:Drivers/CMSIS/Include/cmsis_gcc.h ****   \brief   STR Exclusive (16 bit)
 504:Drivers/CMSIS/Include/cmsis_gcc.h ****   \details Executes a exclusive STR instruction for 16 bit values.
 505:Drivers/CMSIS/Include/cmsis_gcc.h ****   \param [in]  value  Value to store
 506:Drivers/CMSIS/Include/cmsis_gcc.h ****   \param [in]    ptr  Pointer to location
ARM GAS  C:\Users\hanaj\AppData\Local\Temp\cczfNnLg.s 			page 26


 507:Drivers/CMSIS/Include/cmsis_gcc.h ****   \return          0  Function succeeded
 508:Drivers/CMSIS/Include/cmsis_gcc.h ****   \return          1  Function failed
 509:Drivers/CMSIS/Include/cmsis_gcc.h ****  */
 510:Drivers/CMSIS/Include/cmsis_gcc.h **** __STATIC_FORCEINLINE uint32_t __STREXH(uint16_t value, volatile uint16_t *addr)
 511:Drivers/CMSIS/Include/cmsis_gcc.h **** {
 512:Drivers/CMSIS/Include/cmsis_gcc.h ****    uint32_t result;
 513:Drivers/CMSIS/Include/cmsis_gcc.h **** 
 514:Drivers/CMSIS/Include/cmsis_gcc.h ****    __ASM volatile ("strexh %0, %2, %1" : "=&r" (result), "=Q" (*addr) : "r" ((uint32_t)value) );
 515:Drivers/CMSIS/Include/cmsis_gcc.h ****    return(result);
 516:Drivers/CMSIS/Include/cmsis_gcc.h **** }
 517:Drivers/CMSIS/Include/cmsis_gcc.h **** 
 518:Drivers/CMSIS/Include/cmsis_gcc.h **** 
 519:Drivers/CMSIS/Include/cmsis_gcc.h **** /**
 520:Drivers/CMSIS/Include/cmsis_gcc.h ****   \brief   STR Exclusive (32 bit)
 521:Drivers/CMSIS/Include/cmsis_gcc.h ****   \details Executes a exclusive STR instruction for 32 bit values.
 522:Drivers/CMSIS/Include/cmsis_gcc.h ****   \param [in]  value  Value to store
 523:Drivers/CMSIS/Include/cmsis_gcc.h ****   \param [in]    ptr  Pointer to location
 524:Drivers/CMSIS/Include/cmsis_gcc.h ****   \return          0  Function succeeded
 525:Drivers/CMSIS/Include/cmsis_gcc.h ****   \return          1  Function failed
 526:Drivers/CMSIS/Include/cmsis_gcc.h ****  */
 527:Drivers/CMSIS/Include/cmsis_gcc.h **** __STATIC_FORCEINLINE uint32_t __STREXW(uint32_t value, volatile uint32_t *addr)
 528:Drivers/CMSIS/Include/cmsis_gcc.h **** {
 529:Drivers/CMSIS/Include/cmsis_gcc.h ****    uint32_t result;
 530:Drivers/CMSIS/Include/cmsis_gcc.h **** 
 531:Drivers/CMSIS/Include/cmsis_gcc.h ****    __ASM volatile ("strex %0, %2, %1" : "=&r" (result), "=Q" (*addr) : "r" (value) );
 532:Drivers/CMSIS/Include/cmsis_gcc.h ****    return(result);
 533:Drivers/CMSIS/Include/cmsis_gcc.h **** }
 534:Drivers/CMSIS/Include/cmsis_gcc.h **** 
 535:Drivers/CMSIS/Include/cmsis_gcc.h **** 
 536:Drivers/CMSIS/Include/cmsis_gcc.h **** /**
 537:Drivers/CMSIS/Include/cmsis_gcc.h ****   \brief   Remove the exclusive lock
 538:Drivers/CMSIS/Include/cmsis_gcc.h ****   \details Removes the exclusive lock which is created by LDREX.
 539:Drivers/CMSIS/Include/cmsis_gcc.h ****  */
 540:Drivers/CMSIS/Include/cmsis_gcc.h **** __STATIC_FORCEINLINE void __CLREX(void)
 541:Drivers/CMSIS/Include/cmsis_gcc.h **** {
 542:Drivers/CMSIS/Include/cmsis_gcc.h ****   __ASM volatile ("clrex" ::: "memory");
 543:Drivers/CMSIS/Include/cmsis_gcc.h **** }
 544:Drivers/CMSIS/Include/cmsis_gcc.h **** 
 545:Drivers/CMSIS/Include/cmsis_gcc.h **** #endif /* ((defined (__ARM_ARCH_7M__      ) && (__ARM_ARCH_7M__      == 1)) || \
 546:Drivers/CMSIS/Include/cmsis_gcc.h ****            (defined (__ARM_ARCH_7EM__     ) && (__ARM_ARCH_7EM__     == 1)) || \
 547:Drivers/CMSIS/Include/cmsis_gcc.h ****            (defined (__ARM_ARCH_8M_MAIN__ ) && (__ARM_ARCH_8M_MAIN__ == 1)) || \
 548:Drivers/CMSIS/Include/cmsis_gcc.h ****            (defined (__ARM_ARCH_8M_BASE__ ) && (__ARM_ARCH_8M_BASE__ == 1))    ) */
 549:Drivers/CMSIS/Include/cmsis_gcc.h **** 
 550:Drivers/CMSIS/Include/cmsis_gcc.h **** 
 551:Drivers/CMSIS/Include/cmsis_gcc.h **** #if ((defined (__ARM_ARCH_7M__      ) && (__ARM_ARCH_7M__      == 1)) || \
 552:Drivers/CMSIS/Include/cmsis_gcc.h ****      (defined (__ARM_ARCH_7EM__     ) && (__ARM_ARCH_7EM__     == 1)) || \
 553:Drivers/CMSIS/Include/cmsis_gcc.h ****      (defined (__ARM_ARCH_8M_MAIN__ ) && (__ARM_ARCH_8M_MAIN__ == 1))    )
 554:Drivers/CMSIS/Include/cmsis_gcc.h **** /**
 555:Drivers/CMSIS/Include/cmsis_gcc.h ****   \brief   Signed Saturate
 556:Drivers/CMSIS/Include/cmsis_gcc.h ****   \details Saturates a signed value.
 557:Drivers/CMSIS/Include/cmsis_gcc.h ****   \param [in]  ARG1  Value to be saturated
 558:Drivers/CMSIS/Include/cmsis_gcc.h ****   \param [in]  ARG2  Bit position to saturate to (1..32)
 559:Drivers/CMSIS/Include/cmsis_gcc.h ****   \return             Saturated value
 560:Drivers/CMSIS/Include/cmsis_gcc.h ****  */
 561:Drivers/CMSIS/Include/cmsis_gcc.h **** #define __SSAT(ARG1, ARG2) \
 562:Drivers/CMSIS/Include/cmsis_gcc.h **** __extension__ \
 563:Drivers/CMSIS/Include/cmsis_gcc.h **** ({                          \
ARM GAS  C:\Users\hanaj\AppData\Local\Temp\cczfNnLg.s 			page 27


 564:Drivers/CMSIS/Include/cmsis_gcc.h ****   int32_t __RES, __ARG1 = (ARG1); \
 565:Drivers/CMSIS/Include/cmsis_gcc.h ****   __ASM volatile ("ssat %0, %1, %2" : "=r" (__RES) :  "I" (ARG2), "r" (__ARG1) : "cc" ); \
 566:Drivers/CMSIS/Include/cmsis_gcc.h ****   __RES; \
 567:Drivers/CMSIS/Include/cmsis_gcc.h ****  })
 568:Drivers/CMSIS/Include/cmsis_gcc.h **** 
 569:Drivers/CMSIS/Include/cmsis_gcc.h **** 
 570:Drivers/CMSIS/Include/cmsis_gcc.h **** /**
 571:Drivers/CMSIS/Include/cmsis_gcc.h ****   \brief   Unsigned Saturate
 572:Drivers/CMSIS/Include/cmsis_gcc.h ****   \details Saturates an unsigned value.
 573:Drivers/CMSIS/Include/cmsis_gcc.h ****   \param [in]  ARG1  Value to be saturated
 574:Drivers/CMSIS/Include/cmsis_gcc.h ****   \param [in]  ARG2  Bit position to saturate to (0..31)
 575:Drivers/CMSIS/Include/cmsis_gcc.h ****   \return             Saturated value
 576:Drivers/CMSIS/Include/cmsis_gcc.h ****  */
 577:Drivers/CMSIS/Include/cmsis_gcc.h **** #define __USAT(ARG1, ARG2) \
 578:Drivers/CMSIS/Include/cmsis_gcc.h **** __extension__ \
 579:Drivers/CMSIS/Include/cmsis_gcc.h **** ({                          \
 580:Drivers/CMSIS/Include/cmsis_gcc.h ****   uint32_t __RES, __ARG1 = (ARG1); \
 581:Drivers/CMSIS/Include/cmsis_gcc.h ****   __ASM volatile ("usat %0, %1, %2" : "=r" (__RES) :  "I" (ARG2), "r" (__ARG1) : "cc" ); \
 582:Drivers/CMSIS/Include/cmsis_gcc.h ****   __RES; \
 583:Drivers/CMSIS/Include/cmsis_gcc.h ****  })
 584:Drivers/CMSIS/Include/cmsis_gcc.h **** 
 585:Drivers/CMSIS/Include/cmsis_gcc.h **** 
 586:Drivers/CMSIS/Include/cmsis_gcc.h **** /**
 587:Drivers/CMSIS/Include/cmsis_gcc.h ****   \brief   Rotate Right with Extend (32 bit)
 588:Drivers/CMSIS/Include/cmsis_gcc.h ****   \details Moves each bit of a bitstring right by one bit.
 589:Drivers/CMSIS/Include/cmsis_gcc.h ****            The carry input is shifted in at the left end of the bitstring.
 590:Drivers/CMSIS/Include/cmsis_gcc.h ****   \param [in]    value  Value to rotate
 591:Drivers/CMSIS/Include/cmsis_gcc.h ****   \return               Rotated value
 592:Drivers/CMSIS/Include/cmsis_gcc.h ****  */
 593:Drivers/CMSIS/Include/cmsis_gcc.h **** __STATIC_FORCEINLINE uint32_t __RRX(uint32_t value)
 594:Drivers/CMSIS/Include/cmsis_gcc.h **** {
 595:Drivers/CMSIS/Include/cmsis_gcc.h ****   uint32_t result;
 596:Drivers/CMSIS/Include/cmsis_gcc.h **** 
 597:Drivers/CMSIS/Include/cmsis_gcc.h ****   __ASM volatile ("rrx %0, %1" : __CMSIS_GCC_OUT_REG (result) : __CMSIS_GCC_USE_REG (value) );
 598:Drivers/CMSIS/Include/cmsis_gcc.h ****   return(result);
 599:Drivers/CMSIS/Include/cmsis_gcc.h **** }
 600:Drivers/CMSIS/Include/cmsis_gcc.h **** 
 601:Drivers/CMSIS/Include/cmsis_gcc.h **** 
 602:Drivers/CMSIS/Include/cmsis_gcc.h **** /**
 603:Drivers/CMSIS/Include/cmsis_gcc.h ****   \brief   LDRT Unprivileged (8 bit)
 604:Drivers/CMSIS/Include/cmsis_gcc.h ****   \details Executes a Unprivileged LDRT instruction for 8 bit value.
 605:Drivers/CMSIS/Include/cmsis_gcc.h ****   \param [in]    ptr  Pointer to data
 606:Drivers/CMSIS/Include/cmsis_gcc.h ****   \return             value of type uint8_t at (*ptr)
 607:Drivers/CMSIS/Include/cmsis_gcc.h ****  */
 608:Drivers/CMSIS/Include/cmsis_gcc.h **** __STATIC_FORCEINLINE uint8_t __LDRBT(volatile uint8_t *ptr)
 609:Drivers/CMSIS/Include/cmsis_gcc.h **** {
 610:Drivers/CMSIS/Include/cmsis_gcc.h ****     uint32_t result;
 611:Drivers/CMSIS/Include/cmsis_gcc.h **** 
 612:Drivers/CMSIS/Include/cmsis_gcc.h **** #if (__GNUC__ > 4) || (__GNUC__ == 4 && __GNUC_MINOR__ >= 8)
 613:Drivers/CMSIS/Include/cmsis_gcc.h ****    __ASM volatile ("ldrbt %0, %1" : "=r" (result) : "Q" (*ptr) );
 614:Drivers/CMSIS/Include/cmsis_gcc.h **** #else
 615:Drivers/CMSIS/Include/cmsis_gcc.h ****     /* Prior to GCC 4.8, "Q" will be expanded to [rx, #0] which is not
 616:Drivers/CMSIS/Include/cmsis_gcc.h ****        accepted by assembler. So has to use following less efficient pattern.
 617:Drivers/CMSIS/Include/cmsis_gcc.h ****     */
 618:Drivers/CMSIS/Include/cmsis_gcc.h ****    __ASM volatile ("ldrbt %0, [%1]" : "=r" (result) : "r" (ptr) : "memory" );
 619:Drivers/CMSIS/Include/cmsis_gcc.h **** #endif
 620:Drivers/CMSIS/Include/cmsis_gcc.h ****    return ((uint8_t) result);    /* Add explicit type cast here */
ARM GAS  C:\Users\hanaj\AppData\Local\Temp\cczfNnLg.s 			page 28


 621:Drivers/CMSIS/Include/cmsis_gcc.h **** }
 622:Drivers/CMSIS/Include/cmsis_gcc.h **** 
 623:Drivers/CMSIS/Include/cmsis_gcc.h **** 
 624:Drivers/CMSIS/Include/cmsis_gcc.h **** /**
 625:Drivers/CMSIS/Include/cmsis_gcc.h ****   \brief   LDRT Unprivileged (16 bit)
 626:Drivers/CMSIS/Include/cmsis_gcc.h ****   \details Executes a Unprivileged LDRT instruction for 16 bit values.
 627:Drivers/CMSIS/Include/cmsis_gcc.h ****   \param [in]    ptr  Pointer to data
 628:Drivers/CMSIS/Include/cmsis_gcc.h ****   \return        value of type uint16_t at (*ptr)
 629:Drivers/CMSIS/Include/cmsis_gcc.h ****  */
 630:Drivers/CMSIS/Include/cmsis_gcc.h **** __STATIC_FORCEINLINE uint16_t __LDRHT(volatile uint16_t *ptr)
 631:Drivers/CMSIS/Include/cmsis_gcc.h **** {
 632:Drivers/CMSIS/Include/cmsis_gcc.h ****     uint32_t result;
 633:Drivers/CMSIS/Include/cmsis_gcc.h **** 
 634:Drivers/CMSIS/Include/cmsis_gcc.h **** #if (__GNUC__ > 4) || (__GNUC__ == 4 && __GNUC_MINOR__ >= 8)
 635:Drivers/CMSIS/Include/cmsis_gcc.h ****    __ASM volatile ("ldrht %0, %1" : "=r" (result) : "Q" (*ptr) );
 636:Drivers/CMSIS/Include/cmsis_gcc.h **** #else
 637:Drivers/CMSIS/Include/cmsis_gcc.h ****     /* Prior to GCC 4.8, "Q" will be expanded to [rx, #0] which is not
 638:Drivers/CMSIS/Include/cmsis_gcc.h ****        accepted by assembler. So has to use following less efficient pattern.
 639:Drivers/CMSIS/Include/cmsis_gcc.h ****     */
 640:Drivers/CMSIS/Include/cmsis_gcc.h ****    __ASM volatile ("ldrht %0, [%1]" : "=r" (result) : "r" (ptr) : "memory" );
 641:Drivers/CMSIS/Include/cmsis_gcc.h **** #endif
 642:Drivers/CMSIS/Include/cmsis_gcc.h ****    return ((uint16_t) result);    /* Add explicit type cast here */
 643:Drivers/CMSIS/Include/cmsis_gcc.h **** }
 644:Drivers/CMSIS/Include/cmsis_gcc.h **** 
 645:Drivers/CMSIS/Include/cmsis_gcc.h **** 
 646:Drivers/CMSIS/Include/cmsis_gcc.h **** /**
 647:Drivers/CMSIS/Include/cmsis_gcc.h ****   \brief   LDRT Unprivileged (32 bit)
 648:Drivers/CMSIS/Include/cmsis_gcc.h ****   \details Executes a Unprivileged LDRT instruction for 32 bit values.
 649:Drivers/CMSIS/Include/cmsis_gcc.h ****   \param [in]    ptr  Pointer to data
 650:Drivers/CMSIS/Include/cmsis_gcc.h ****   \return        value of type uint32_t at (*ptr)
 651:Drivers/CMSIS/Include/cmsis_gcc.h ****  */
 652:Drivers/CMSIS/Include/cmsis_gcc.h **** __STATIC_FORCEINLINE uint32_t __LDRT(volatile uint32_t *ptr)
 653:Drivers/CMSIS/Include/cmsis_gcc.h **** {
 654:Drivers/CMSIS/Include/cmsis_gcc.h ****     uint32_t result;
 655:Drivers/CMSIS/Include/cmsis_gcc.h **** 
 656:Drivers/CMSIS/Include/cmsis_gcc.h ****    __ASM volatile ("ldrt %0, %1" : "=r" (result) : "Q" (*ptr) );
 657:Drivers/CMSIS/Include/cmsis_gcc.h ****    return(result);
 658:Drivers/CMSIS/Include/cmsis_gcc.h **** }
 659:Drivers/CMSIS/Include/cmsis_gcc.h **** 
 660:Drivers/CMSIS/Include/cmsis_gcc.h **** 
 661:Drivers/CMSIS/Include/cmsis_gcc.h **** /**
 662:Drivers/CMSIS/Include/cmsis_gcc.h ****   \brief   STRT Unprivileged (8 bit)
 663:Drivers/CMSIS/Include/cmsis_gcc.h ****   \details Executes a Unprivileged STRT instruction for 8 bit values.
 664:Drivers/CMSIS/Include/cmsis_gcc.h ****   \param [in]  value  Value to store
 665:Drivers/CMSIS/Include/cmsis_gcc.h ****   \param [in]    ptr  Pointer to location
 666:Drivers/CMSIS/Include/cmsis_gcc.h ****  */
 667:Drivers/CMSIS/Include/cmsis_gcc.h **** __STATIC_FORCEINLINE void __STRBT(uint8_t value, volatile uint8_t *ptr)
 668:Drivers/CMSIS/Include/cmsis_gcc.h **** {
 669:Drivers/CMSIS/Include/cmsis_gcc.h ****    __ASM volatile ("strbt %1, %0" : "=Q" (*ptr) : "r" ((uint32_t)value) );
 670:Drivers/CMSIS/Include/cmsis_gcc.h **** }
 671:Drivers/CMSIS/Include/cmsis_gcc.h **** 
 672:Drivers/CMSIS/Include/cmsis_gcc.h **** 
 673:Drivers/CMSIS/Include/cmsis_gcc.h **** /**
 674:Drivers/CMSIS/Include/cmsis_gcc.h ****   \brief   STRT Unprivileged (16 bit)
 675:Drivers/CMSIS/Include/cmsis_gcc.h ****   \details Executes a Unprivileged STRT instruction for 16 bit values.
 676:Drivers/CMSIS/Include/cmsis_gcc.h ****   \param [in]  value  Value to store
 677:Drivers/CMSIS/Include/cmsis_gcc.h ****   \param [in]    ptr  Pointer to location
ARM GAS  C:\Users\hanaj\AppData\Local\Temp\cczfNnLg.s 			page 29


 678:Drivers/CMSIS/Include/cmsis_gcc.h ****  */
 679:Drivers/CMSIS/Include/cmsis_gcc.h **** __STATIC_FORCEINLINE void __STRHT(uint16_t value, volatile uint16_t *ptr)
 680:Drivers/CMSIS/Include/cmsis_gcc.h **** {
 681:Drivers/CMSIS/Include/cmsis_gcc.h ****    __ASM volatile ("strht %1, %0" : "=Q" (*ptr) : "r" ((uint32_t)value) );
 682:Drivers/CMSIS/Include/cmsis_gcc.h **** }
 683:Drivers/CMSIS/Include/cmsis_gcc.h **** 
 684:Drivers/CMSIS/Include/cmsis_gcc.h **** 
 685:Drivers/CMSIS/Include/cmsis_gcc.h **** /**
 686:Drivers/CMSIS/Include/cmsis_gcc.h ****   \brief   STRT Unprivileged (32 bit)
 687:Drivers/CMSIS/Include/cmsis_gcc.h ****   \details Executes a Unprivileged STRT instruction for 32 bit values.
 688:Drivers/CMSIS/Include/cmsis_gcc.h ****   \param [in]  value  Value to store
 689:Drivers/CMSIS/Include/cmsis_gcc.h ****   \param [in]    ptr  Pointer to location
 690:Drivers/CMSIS/Include/cmsis_gcc.h ****  */
 691:Drivers/CMSIS/Include/cmsis_gcc.h **** __STATIC_FORCEINLINE void __STRT(uint32_t value, volatile uint32_t *ptr)
 692:Drivers/CMSIS/Include/cmsis_gcc.h **** {
 693:Drivers/CMSIS/Include/cmsis_gcc.h ****    __ASM volatile ("strt %1, %0" : "=Q" (*ptr) : "r" (value) );
 694:Drivers/CMSIS/Include/cmsis_gcc.h **** }
 695:Drivers/CMSIS/Include/cmsis_gcc.h **** 
 696:Drivers/CMSIS/Include/cmsis_gcc.h **** #else  /* ((defined (__ARM_ARCH_7M__      ) && (__ARM_ARCH_7M__      == 1)) || \
 697:Drivers/CMSIS/Include/cmsis_gcc.h ****            (defined (__ARM_ARCH_7EM__     ) && (__ARM_ARCH_7EM__     == 1)) || \
 698:Drivers/CMSIS/Include/cmsis_gcc.h ****            (defined (__ARM_ARCH_8M_MAIN__ ) && (__ARM_ARCH_8M_MAIN__ == 1))    ) */
 699:Drivers/CMSIS/Include/cmsis_gcc.h **** 
 700:Drivers/CMSIS/Include/cmsis_gcc.h **** /**
 701:Drivers/CMSIS/Include/cmsis_gcc.h ****   \brief   Signed Saturate
 702:Drivers/CMSIS/Include/cmsis_gcc.h ****   \details Saturates a signed value.
 703:Drivers/CMSIS/Include/cmsis_gcc.h ****   \param [in]  value  Value to be saturated
 704:Drivers/CMSIS/Include/cmsis_gcc.h ****   \param [in]    sat  Bit position to saturate to (1..32)
 705:Drivers/CMSIS/Include/cmsis_gcc.h ****   \return             Saturated value
 706:Drivers/CMSIS/Include/cmsis_gcc.h ****  */
 707:Drivers/CMSIS/Include/cmsis_gcc.h **** __STATIC_FORCEINLINE int32_t __SSAT(int32_t val, uint32_t sat)
 708:Drivers/CMSIS/Include/cmsis_gcc.h **** {
 709:Drivers/CMSIS/Include/cmsis_gcc.h ****   if ((sat >= 1U) && (sat <= 32U))
 710:Drivers/CMSIS/Include/cmsis_gcc.h ****   {
 711:Drivers/CMSIS/Include/cmsis_gcc.h ****     const int32_t max = (int32_t)((1U << (sat - 1U)) - 1U);
 712:Drivers/CMSIS/Include/cmsis_gcc.h ****     const int32_t min = -1 - max ;
 713:Drivers/CMSIS/Include/cmsis_gcc.h ****     if (val > max)
 714:Drivers/CMSIS/Include/cmsis_gcc.h ****     {
 715:Drivers/CMSIS/Include/cmsis_gcc.h ****       return max;
 716:Drivers/CMSIS/Include/cmsis_gcc.h ****     }
 717:Drivers/CMSIS/Include/cmsis_gcc.h ****     else if (val < min)
 718:Drivers/CMSIS/Include/cmsis_gcc.h ****     {
 719:Drivers/CMSIS/Include/cmsis_gcc.h ****       return min;
 720:Drivers/CMSIS/Include/cmsis_gcc.h ****     }
 721:Drivers/CMSIS/Include/cmsis_gcc.h ****   }
 722:Drivers/CMSIS/Include/cmsis_gcc.h ****   return val;
 723:Drivers/CMSIS/Include/cmsis_gcc.h **** }
 724:Drivers/CMSIS/Include/cmsis_gcc.h **** 
 725:Drivers/CMSIS/Include/cmsis_gcc.h **** /**
 726:Drivers/CMSIS/Include/cmsis_gcc.h ****   \brief   Unsigned Saturate
 727:Drivers/CMSIS/Include/cmsis_gcc.h ****   \details Saturates an unsigned value.
 728:Drivers/CMSIS/Include/cmsis_gcc.h ****   \param [in]  value  Value to be saturated
 729:Drivers/CMSIS/Include/cmsis_gcc.h ****   \param [in]    sat  Bit position to saturate to (0..31)
 730:Drivers/CMSIS/Include/cmsis_gcc.h ****   \return             Saturated value
 731:Drivers/CMSIS/Include/cmsis_gcc.h ****  */
 732:Drivers/CMSIS/Include/cmsis_gcc.h **** __STATIC_FORCEINLINE uint32_t __USAT(int32_t val, uint32_t sat)
 733:Drivers/CMSIS/Include/cmsis_gcc.h **** {
 734:Drivers/CMSIS/Include/cmsis_gcc.h ****   if (sat <= 31U)
ARM GAS  C:\Users\hanaj\AppData\Local\Temp\cczfNnLg.s 			page 30


 735:Drivers/CMSIS/Include/cmsis_gcc.h ****   {
 736:Drivers/CMSIS/Include/cmsis_gcc.h ****     const uint32_t max = ((1U << sat) - 1U);
 737:Drivers/CMSIS/Include/cmsis_gcc.h ****     if (val > (int32_t)max)
 738:Drivers/CMSIS/Include/cmsis_gcc.h ****     {
 739:Drivers/CMSIS/Include/cmsis_gcc.h ****       return max;
 740:Drivers/CMSIS/Include/cmsis_gcc.h ****     }
 741:Drivers/CMSIS/Include/cmsis_gcc.h ****     else if (val < 0)
 742:Drivers/CMSIS/Include/cmsis_gcc.h ****     {
 743:Drivers/CMSIS/Include/cmsis_gcc.h ****       return 0U;
 744:Drivers/CMSIS/Include/cmsis_gcc.h ****     }
 745:Drivers/CMSIS/Include/cmsis_gcc.h ****   }
 746:Drivers/CMSIS/Include/cmsis_gcc.h ****   return (uint32_t)val;
 747:Drivers/CMSIS/Include/cmsis_gcc.h **** }
 748:Drivers/CMSIS/Include/cmsis_gcc.h **** 
 749:Drivers/CMSIS/Include/cmsis_gcc.h **** #endif /* ((defined (__ARM_ARCH_7M__      ) && (__ARM_ARCH_7M__      == 1)) || \
 750:Drivers/CMSIS/Include/cmsis_gcc.h ****            (defined (__ARM_ARCH_7EM__     ) && (__ARM_ARCH_7EM__     == 1)) || \
 751:Drivers/CMSIS/Include/cmsis_gcc.h ****            (defined (__ARM_ARCH_8M_MAIN__ ) && (__ARM_ARCH_8M_MAIN__ == 1))    ) */
 752:Drivers/CMSIS/Include/cmsis_gcc.h **** 
 753:Drivers/CMSIS/Include/cmsis_gcc.h **** 
 754:Drivers/CMSIS/Include/cmsis_gcc.h **** #if ((defined (__ARM_ARCH_8M_MAIN__ ) && (__ARM_ARCH_8M_MAIN__ == 1)) || \
 755:Drivers/CMSIS/Include/cmsis_gcc.h ****      (defined (__ARM_ARCH_8M_BASE__ ) && (__ARM_ARCH_8M_BASE__ == 1))    )
 756:Drivers/CMSIS/Include/cmsis_gcc.h **** /**
 757:Drivers/CMSIS/Include/cmsis_gcc.h ****   \brief   Load-Acquire (8 bit)
 758:Drivers/CMSIS/Include/cmsis_gcc.h ****   \details Executes a LDAB instruction for 8 bit value.
 759:Drivers/CMSIS/Include/cmsis_gcc.h ****   \param [in]    ptr  Pointer to data
 760:Drivers/CMSIS/Include/cmsis_gcc.h ****   \return             value of type uint8_t at (*ptr)
 761:Drivers/CMSIS/Include/cmsis_gcc.h ****  */
 762:Drivers/CMSIS/Include/cmsis_gcc.h **** __STATIC_FORCEINLINE uint8_t __LDAB(volatile uint8_t *ptr)
 763:Drivers/CMSIS/Include/cmsis_gcc.h **** {
 764:Drivers/CMSIS/Include/cmsis_gcc.h ****     uint32_t result;
 765:Drivers/CMSIS/Include/cmsis_gcc.h **** 
 766:Drivers/CMSIS/Include/cmsis_gcc.h ****    __ASM volatile ("ldab %0, %1" : "=r" (result) : "Q" (*ptr) : "memory" );
 767:Drivers/CMSIS/Include/cmsis_gcc.h ****    return ((uint8_t) result);
 768:Drivers/CMSIS/Include/cmsis_gcc.h **** }
 769:Drivers/CMSIS/Include/cmsis_gcc.h **** 
 770:Drivers/CMSIS/Include/cmsis_gcc.h **** 
 771:Drivers/CMSIS/Include/cmsis_gcc.h **** /**
 772:Drivers/CMSIS/Include/cmsis_gcc.h ****   \brief   Load-Acquire (16 bit)
 773:Drivers/CMSIS/Include/cmsis_gcc.h ****   \details Executes a LDAH instruction for 16 bit values.
 774:Drivers/CMSIS/Include/cmsis_gcc.h ****   \param [in]    ptr  Pointer to data
 775:Drivers/CMSIS/Include/cmsis_gcc.h ****   \return        value of type uint16_t at (*ptr)
 776:Drivers/CMSIS/Include/cmsis_gcc.h ****  */
 777:Drivers/CMSIS/Include/cmsis_gcc.h **** __STATIC_FORCEINLINE uint16_t __LDAH(volatile uint16_t *ptr)
 778:Drivers/CMSIS/Include/cmsis_gcc.h **** {
 779:Drivers/CMSIS/Include/cmsis_gcc.h ****     uint32_t result;
 780:Drivers/CMSIS/Include/cmsis_gcc.h **** 
 781:Drivers/CMSIS/Include/cmsis_gcc.h ****    __ASM volatile ("ldah %0, %1" : "=r" (result) : "Q" (*ptr) : "memory" );
 782:Drivers/CMSIS/Include/cmsis_gcc.h ****    return ((uint16_t) result);
 783:Drivers/CMSIS/Include/cmsis_gcc.h **** }
 784:Drivers/CMSIS/Include/cmsis_gcc.h **** 
 785:Drivers/CMSIS/Include/cmsis_gcc.h **** 
 786:Drivers/CMSIS/Include/cmsis_gcc.h **** /**
 787:Drivers/CMSIS/Include/cmsis_gcc.h ****   \brief   Load-Acquire (32 bit)
 788:Drivers/CMSIS/Include/cmsis_gcc.h ****   \details Executes a LDA instruction for 32 bit values.
 789:Drivers/CMSIS/Include/cmsis_gcc.h ****   \param [in]    ptr  Pointer to data
 790:Drivers/CMSIS/Include/cmsis_gcc.h ****   \return        value of type uint32_t at (*ptr)
 791:Drivers/CMSIS/Include/cmsis_gcc.h ****  */
ARM GAS  C:\Users\hanaj\AppData\Local\Temp\cczfNnLg.s 			page 31


 792:Drivers/CMSIS/Include/cmsis_gcc.h **** __STATIC_FORCEINLINE uint32_t __LDA(volatile uint32_t *ptr)
 793:Drivers/CMSIS/Include/cmsis_gcc.h **** {
 794:Drivers/CMSIS/Include/cmsis_gcc.h ****     uint32_t result;
 795:Drivers/CMSIS/Include/cmsis_gcc.h **** 
 796:Drivers/CMSIS/Include/cmsis_gcc.h ****    __ASM volatile ("lda %0, %1" : "=r" (result) : "Q" (*ptr) : "memory" );
 797:Drivers/CMSIS/Include/cmsis_gcc.h ****    return(result);
 798:Drivers/CMSIS/Include/cmsis_gcc.h **** }
 799:Drivers/CMSIS/Include/cmsis_gcc.h **** 
 800:Drivers/CMSIS/Include/cmsis_gcc.h **** 
 801:Drivers/CMSIS/Include/cmsis_gcc.h **** /**
 802:Drivers/CMSIS/Include/cmsis_gcc.h ****   \brief   Store-Release (8 bit)
 803:Drivers/CMSIS/Include/cmsis_gcc.h ****   \details Executes a STLB instruction for 8 bit values.
 804:Drivers/CMSIS/Include/cmsis_gcc.h ****   \param [in]  value  Value to store
 805:Drivers/CMSIS/Include/cmsis_gcc.h ****   \param [in]    ptr  Pointer to location
 806:Drivers/CMSIS/Include/cmsis_gcc.h ****  */
 807:Drivers/CMSIS/Include/cmsis_gcc.h **** __STATIC_FORCEINLINE void __STLB(uint8_t value, volatile uint8_t *ptr)
 808:Drivers/CMSIS/Include/cmsis_gcc.h **** {
 809:Drivers/CMSIS/Include/cmsis_gcc.h ****    __ASM volatile ("stlb %1, %0" : "=Q" (*ptr) : "r" ((uint32_t)value) : "memory" );
 810:Drivers/CMSIS/Include/cmsis_gcc.h **** }
 811:Drivers/CMSIS/Include/cmsis_gcc.h **** 
 812:Drivers/CMSIS/Include/cmsis_gcc.h **** 
 813:Drivers/CMSIS/Include/cmsis_gcc.h **** /**
 814:Drivers/CMSIS/Include/cmsis_gcc.h ****   \brief   Store-Release (16 bit)
 815:Drivers/CMSIS/Include/cmsis_gcc.h ****   \details Executes a STLH instruction for 16 bit values.
 816:Drivers/CMSIS/Include/cmsis_gcc.h ****   \param [in]  value  Value to store
 817:Drivers/CMSIS/Include/cmsis_gcc.h ****   \param [in]    ptr  Pointer to location
 818:Drivers/CMSIS/Include/cmsis_gcc.h ****  */
 819:Drivers/CMSIS/Include/cmsis_gcc.h **** __STATIC_FORCEINLINE void __STLH(uint16_t value, volatile uint16_t *ptr)
 820:Drivers/CMSIS/Include/cmsis_gcc.h **** {
 821:Drivers/CMSIS/Include/cmsis_gcc.h ****    __ASM volatile ("stlh %1, %0" : "=Q" (*ptr) : "r" ((uint32_t)value) : "memory" );
 822:Drivers/CMSIS/Include/cmsis_gcc.h **** }
 823:Drivers/CMSIS/Include/cmsis_gcc.h **** 
 824:Drivers/CMSIS/Include/cmsis_gcc.h **** 
 825:Drivers/CMSIS/Include/cmsis_gcc.h **** /**
 826:Drivers/CMSIS/Include/cmsis_gcc.h ****   \brief   Store-Release (32 bit)
 827:Drivers/CMSIS/Include/cmsis_gcc.h ****   \details Executes a STL instruction for 32 bit values.
 828:Drivers/CMSIS/Include/cmsis_gcc.h ****   \param [in]  value  Value to store
 829:Drivers/CMSIS/Include/cmsis_gcc.h ****   \param [in]    ptr  Pointer to location
 830:Drivers/CMSIS/Include/cmsis_gcc.h ****  */
 831:Drivers/CMSIS/Include/cmsis_gcc.h **** __STATIC_FORCEINLINE void __STL(uint32_t value, volatile uint32_t *ptr)
 832:Drivers/CMSIS/Include/cmsis_gcc.h **** {
 833:Drivers/CMSIS/Include/cmsis_gcc.h ****    __ASM volatile ("stl %1, %0" : "=Q" (*ptr) : "r" ((uint32_t)value) : "memory" );
 834:Drivers/CMSIS/Include/cmsis_gcc.h **** }
 835:Drivers/CMSIS/Include/cmsis_gcc.h **** 
 836:Drivers/CMSIS/Include/cmsis_gcc.h **** 
 837:Drivers/CMSIS/Include/cmsis_gcc.h **** /**
 838:Drivers/CMSIS/Include/cmsis_gcc.h ****   \brief   Load-Acquire Exclusive (8 bit)
 839:Drivers/CMSIS/Include/cmsis_gcc.h ****   \details Executes a LDAB exclusive instruction for 8 bit value.
 840:Drivers/CMSIS/Include/cmsis_gcc.h ****   \param [in]    ptr  Pointer to data
 841:Drivers/CMSIS/Include/cmsis_gcc.h ****   \return             value of type uint8_t at (*ptr)
 842:Drivers/CMSIS/Include/cmsis_gcc.h ****  */
 843:Drivers/CMSIS/Include/cmsis_gcc.h **** __STATIC_FORCEINLINE uint8_t __LDAEXB(volatile uint8_t *ptr)
 844:Drivers/CMSIS/Include/cmsis_gcc.h **** {
 845:Drivers/CMSIS/Include/cmsis_gcc.h ****     uint32_t result;
 846:Drivers/CMSIS/Include/cmsis_gcc.h **** 
 847:Drivers/CMSIS/Include/cmsis_gcc.h ****    __ASM volatile ("ldaexb %0, %1" : "=r" (result) : "Q" (*ptr) : "memory" );
 848:Drivers/CMSIS/Include/cmsis_gcc.h ****    return ((uint8_t) result);
ARM GAS  C:\Users\hanaj\AppData\Local\Temp\cczfNnLg.s 			page 32


 849:Drivers/CMSIS/Include/cmsis_gcc.h **** }
 850:Drivers/CMSIS/Include/cmsis_gcc.h **** 
 851:Drivers/CMSIS/Include/cmsis_gcc.h **** 
 852:Drivers/CMSIS/Include/cmsis_gcc.h **** /**
 853:Drivers/CMSIS/Include/cmsis_gcc.h ****   \brief   Load-Acquire Exclusive (16 bit)
 854:Drivers/CMSIS/Include/cmsis_gcc.h ****   \details Executes a LDAH exclusive instruction for 16 bit values.
 855:Drivers/CMSIS/Include/cmsis_gcc.h ****   \param [in]    ptr  Pointer to data
 856:Drivers/CMSIS/Include/cmsis_gcc.h ****   \return        value of type uint16_t at (*ptr)
 857:Drivers/CMSIS/Include/cmsis_gcc.h ****  */
 858:Drivers/CMSIS/Include/cmsis_gcc.h **** __STATIC_FORCEINLINE uint16_t __LDAEXH(volatile uint16_t *ptr)
 859:Drivers/CMSIS/Include/cmsis_gcc.h **** {
 860:Drivers/CMSIS/Include/cmsis_gcc.h ****     uint32_t result;
 861:Drivers/CMSIS/Include/cmsis_gcc.h **** 
 862:Drivers/CMSIS/Include/cmsis_gcc.h ****    __ASM volatile ("ldaexh %0, %1" : "=r" (result) : "Q" (*ptr) : "memory" );
 863:Drivers/CMSIS/Include/cmsis_gcc.h ****    return ((uint16_t) result);
 864:Drivers/CMSIS/Include/cmsis_gcc.h **** }
 865:Drivers/CMSIS/Include/cmsis_gcc.h **** 
 866:Drivers/CMSIS/Include/cmsis_gcc.h **** 
 867:Drivers/CMSIS/Include/cmsis_gcc.h **** /**
 868:Drivers/CMSIS/Include/cmsis_gcc.h ****   \brief   Load-Acquire Exclusive (32 bit)
 869:Drivers/CMSIS/Include/cmsis_gcc.h ****   \details Executes a LDA exclusive instruction for 32 bit values.
 870:Drivers/CMSIS/Include/cmsis_gcc.h ****   \param [in]    ptr  Pointer to data
 871:Drivers/CMSIS/Include/cmsis_gcc.h ****   \return        value of type uint32_t at (*ptr)
 872:Drivers/CMSIS/Include/cmsis_gcc.h ****  */
 873:Drivers/CMSIS/Include/cmsis_gcc.h **** __STATIC_FORCEINLINE uint32_t __LDAEX(volatile uint32_t *ptr)
 874:Drivers/CMSIS/Include/cmsis_gcc.h **** {
 875:Drivers/CMSIS/Include/cmsis_gcc.h ****     uint32_t result;
 876:Drivers/CMSIS/Include/cmsis_gcc.h **** 
 877:Drivers/CMSIS/Include/cmsis_gcc.h ****    __ASM volatile ("ldaex %0, %1" : "=r" (result) : "Q" (*ptr) : "memory" );
 878:Drivers/CMSIS/Include/cmsis_gcc.h ****    return(result);
 879:Drivers/CMSIS/Include/cmsis_gcc.h **** }
 880:Drivers/CMSIS/Include/cmsis_gcc.h **** 
 881:Drivers/CMSIS/Include/cmsis_gcc.h **** 
 882:Drivers/CMSIS/Include/cmsis_gcc.h **** /**
 883:Drivers/CMSIS/Include/cmsis_gcc.h ****   \brief   Store-Release Exclusive (8 bit)
 884:Drivers/CMSIS/Include/cmsis_gcc.h ****   \details Executes a STLB exclusive instruction for 8 bit values.
 885:Drivers/CMSIS/Include/cmsis_gcc.h ****   \param [in]  value  Value to store
 886:Drivers/CMSIS/Include/cmsis_gcc.h ****   \param [in]    ptr  Pointer to location
 887:Drivers/CMSIS/Include/cmsis_gcc.h ****   \return          0  Function succeeded
 888:Drivers/CMSIS/Include/cmsis_gcc.h ****   \return          1  Function failed
 889:Drivers/CMSIS/Include/cmsis_gcc.h ****  */
 890:Drivers/CMSIS/Include/cmsis_gcc.h **** __STATIC_FORCEINLINE uint32_t __STLEXB(uint8_t value, volatile uint8_t *ptr)
 891:Drivers/CMSIS/Include/cmsis_gcc.h **** {
 892:Drivers/CMSIS/Include/cmsis_gcc.h ****    uint32_t result;
 893:Drivers/CMSIS/Include/cmsis_gcc.h **** 
 894:Drivers/CMSIS/Include/cmsis_gcc.h ****    __ASM volatile ("stlexb %0, %2, %1" : "=&r" (result), "=Q" (*ptr) : "r" ((uint32_t)value) : "mem
 895:Drivers/CMSIS/Include/cmsis_gcc.h ****    return(result);
 896:Drivers/CMSIS/Include/cmsis_gcc.h **** }
 897:Drivers/CMSIS/Include/cmsis_gcc.h **** 
 898:Drivers/CMSIS/Include/cmsis_gcc.h **** 
 899:Drivers/CMSIS/Include/cmsis_gcc.h **** /**
 900:Drivers/CMSIS/Include/cmsis_gcc.h ****   \brief   Store-Release Exclusive (16 bit)
 901:Drivers/CMSIS/Include/cmsis_gcc.h ****   \details Executes a STLH exclusive instruction for 16 bit values.
 902:Drivers/CMSIS/Include/cmsis_gcc.h ****   \param [in]  value  Value to store
 903:Drivers/CMSIS/Include/cmsis_gcc.h ****   \param [in]    ptr  Pointer to location
 904:Drivers/CMSIS/Include/cmsis_gcc.h ****   \return          0  Function succeeded
 905:Drivers/CMSIS/Include/cmsis_gcc.h ****   \return          1  Function failed
ARM GAS  C:\Users\hanaj\AppData\Local\Temp\cczfNnLg.s 			page 33


 906:Drivers/CMSIS/Include/cmsis_gcc.h ****  */
 907:Drivers/CMSIS/Include/cmsis_gcc.h **** __STATIC_FORCEINLINE uint32_t __STLEXH(uint16_t value, volatile uint16_t *ptr)
 908:Drivers/CMSIS/Include/cmsis_gcc.h **** {
 909:Drivers/CMSIS/Include/cmsis_gcc.h ****    uint32_t result;
 910:Drivers/CMSIS/Include/cmsis_gcc.h **** 
 911:Drivers/CMSIS/Include/cmsis_gcc.h ****    __ASM volatile ("stlexh %0, %2, %1" : "=&r" (result), "=Q" (*ptr) : "r" ((uint32_t)value) : "mem
 912:Drivers/CMSIS/Include/cmsis_gcc.h ****    return(result);
 913:Drivers/CMSIS/Include/cmsis_gcc.h **** }
 914:Drivers/CMSIS/Include/cmsis_gcc.h **** 
 915:Drivers/CMSIS/Include/cmsis_gcc.h **** 
 916:Drivers/CMSIS/Include/cmsis_gcc.h **** /**
 917:Drivers/CMSIS/Include/cmsis_gcc.h ****   \brief   Store-Release Exclusive (32 bit)
 918:Drivers/CMSIS/Include/cmsis_gcc.h ****   \details Executes a STL exclusive instruction for 32 bit values.
 919:Drivers/CMSIS/Include/cmsis_gcc.h ****   \param [in]  value  Value to store
 920:Drivers/CMSIS/Include/cmsis_gcc.h ****   \param [in]    ptr  Pointer to location
 921:Drivers/CMSIS/Include/cmsis_gcc.h ****   \return          0  Function succeeded
 922:Drivers/CMSIS/Include/cmsis_gcc.h ****   \return          1  Function failed
 923:Drivers/CMSIS/Include/cmsis_gcc.h ****  */
 924:Drivers/CMSIS/Include/cmsis_gcc.h **** __STATIC_FORCEINLINE uint32_t __STLEX(uint32_t value, volatile uint32_t *ptr)
 925:Drivers/CMSIS/Include/cmsis_gcc.h **** {
 926:Drivers/CMSIS/Include/cmsis_gcc.h ****    uint32_t result;
 927:Drivers/CMSIS/Include/cmsis_gcc.h **** 
 928:Drivers/CMSIS/Include/cmsis_gcc.h ****    __ASM volatile ("stlex %0, %2, %1" : "=&r" (result), "=Q" (*ptr) : "r" ((uint32_t)value) : "memo
 929:Drivers/CMSIS/Include/cmsis_gcc.h ****    return(result);
 930:Drivers/CMSIS/Include/cmsis_gcc.h **** }
 931:Drivers/CMSIS/Include/cmsis_gcc.h **** 
 932:Drivers/CMSIS/Include/cmsis_gcc.h **** #endif /* ((defined (__ARM_ARCH_8M_MAIN__ ) && (__ARM_ARCH_8M_MAIN__ == 1)) || \
 933:Drivers/CMSIS/Include/cmsis_gcc.h ****            (defined (__ARM_ARCH_8M_BASE__ ) && (__ARM_ARCH_8M_BASE__ == 1))    ) */
 934:Drivers/CMSIS/Include/cmsis_gcc.h **** 
 935:Drivers/CMSIS/Include/cmsis_gcc.h **** /*@}*/ /* end of group CMSIS_Core_InstructionInterface */
 936:Drivers/CMSIS/Include/cmsis_gcc.h **** 
 937:Drivers/CMSIS/Include/cmsis_gcc.h **** 
 938:Drivers/CMSIS/Include/cmsis_gcc.h **** /* ###########################  Core Function Access  ########################### */
 939:Drivers/CMSIS/Include/cmsis_gcc.h **** /** \ingroup  CMSIS_Core_FunctionInterface
 940:Drivers/CMSIS/Include/cmsis_gcc.h ****     \defgroup CMSIS_Core_RegAccFunctions CMSIS Core Register Access Functions
 941:Drivers/CMSIS/Include/cmsis_gcc.h ****   @{
 942:Drivers/CMSIS/Include/cmsis_gcc.h ****  */
 943:Drivers/CMSIS/Include/cmsis_gcc.h **** 
 944:Drivers/CMSIS/Include/cmsis_gcc.h **** /**
 945:Drivers/CMSIS/Include/cmsis_gcc.h ****   \brief   Enable IRQ Interrupts
 946:Drivers/CMSIS/Include/cmsis_gcc.h ****   \details Enables IRQ interrupts by clearing special-purpose register PRIMASK.
 947:Drivers/CMSIS/Include/cmsis_gcc.h ****            Can only be executed in Privileged modes.
 948:Drivers/CMSIS/Include/cmsis_gcc.h ****  */
 949:Drivers/CMSIS/Include/cmsis_gcc.h **** __STATIC_FORCEINLINE void __enable_irq(void)
 950:Drivers/CMSIS/Include/cmsis_gcc.h **** {
 951:Drivers/CMSIS/Include/cmsis_gcc.h ****   __ASM volatile ("cpsie i" : : : "memory");
 952:Drivers/CMSIS/Include/cmsis_gcc.h **** }
 953:Drivers/CMSIS/Include/cmsis_gcc.h **** 
 954:Drivers/CMSIS/Include/cmsis_gcc.h **** 
 955:Drivers/CMSIS/Include/cmsis_gcc.h **** /**
 956:Drivers/CMSIS/Include/cmsis_gcc.h ****   \brief   Disable IRQ Interrupts
 957:Drivers/CMSIS/Include/cmsis_gcc.h ****   \details Disables IRQ interrupts by setting special-purpose register PRIMASK.
 958:Drivers/CMSIS/Include/cmsis_gcc.h ****            Can only be executed in Privileged modes.
 959:Drivers/CMSIS/Include/cmsis_gcc.h ****  */
 960:Drivers/CMSIS/Include/cmsis_gcc.h **** __STATIC_FORCEINLINE void __disable_irq(void)
 585              		.loc 12 960 27 view .LVU67
 586              	.LBB100:
ARM GAS  C:\Users\hanaj\AppData\Local\Temp\cczfNnLg.s 			page 34


 961:Drivers/CMSIS/Include/cmsis_gcc.h **** {
 962:Drivers/CMSIS/Include/cmsis_gcc.h ****   __ASM volatile ("cpsid i" : : : "memory");
 587              		.loc 12 962 3 view .LVU68
 588              		.syntax unified
 589              	@ 962 "Drivers/CMSIS/Include/cmsis_gcc.h" 1
 590 0000 72B6     		cpsid i
 591              	@ 0 "" 2
 592              		.thumb
 593              		.syntax unified
 594              	.L37:
 595              	.LBE100:
 596              	.LBE99:
 276:Core/Src/main.cpp ****   while (1)
 597              		.loc 1 276 3 view .LVU69
 598              		.loc 1 276 3 view .LVU70
 599 0002 FEE7     		b	.L37
 600              		.cfi_endproc
 601              	.LFE284:
 602              		.cantunwind
 603              		.fnend
 605              		.section	.text._Z18SystemClock_Configv,"ax",%progbits
 606              		.align	1
 607              		.global	_Z18SystemClock_Configv
 608              		.syntax unified
 609              		.thumb
 610              		.thumb_func
 612              	_Z18SystemClock_Configv:
 613              		.fnstart
 614              	.LFB283:
 222:Core/Src/main.cpp ****   RCC_OscInitTypeDef RCC_OscInitStruct = {0};
 615              		.loc 1 222 1 view -0
 616              		.cfi_startproc
 617              		@ args = 0, pretend = 0, frame = 80
 618              		@ frame_needed = 0, uses_anonymous_args = 0
 619 0000 00B5     		push	{lr}
 620              		.save {lr}
 621              	.LCFI5:
 622              		.cfi_def_cfa_offset 4
 623              		.cfi_offset 14, -4
 624              		.pad #84
 625 0002 95B0     		sub	sp, sp, #84
 626              	.LCFI6:
 627              		.cfi_def_cfa_offset 88
 223:Core/Src/main.cpp ****   RCC_ClkInitTypeDef RCC_ClkInitStruct = {0};
 628              		.loc 1 223 3 view .LVU72
 223:Core/Src/main.cpp ****   RCC_ClkInitTypeDef RCC_ClkInitStruct = {0};
 629              		.loc 1 223 22 is_stmt 0 view .LVU73
 630 0004 3022     		movs	r2, #48
 631 0006 0021     		movs	r1, #0
 632 0008 08A8     		add	r0, sp, #32
 633 000a FFF7FEFF 		bl	memset
 634              	.LVL45:
 224:Core/Src/main.cpp **** 
 635              		.loc 1 224 3 is_stmt 1 view .LVU74
 224:Core/Src/main.cpp **** 
 636              		.loc 1 224 22 is_stmt 0 view .LVU75
 637 000e 0023     		movs	r3, #0
ARM GAS  C:\Users\hanaj\AppData\Local\Temp\cczfNnLg.s 			page 35


 638 0010 0393     		str	r3, [sp, #12]
 639 0012 0493     		str	r3, [sp, #16]
 640 0014 0593     		str	r3, [sp, #20]
 641 0016 0693     		str	r3, [sp, #24]
 642 0018 0793     		str	r3, [sp, #28]
 228:Core/Src/main.cpp ****   __HAL_PWR_VOLTAGESCALING_CONFIG(PWR_REGULATOR_VOLTAGE_SCALE1);
 643              		.loc 1 228 3 is_stmt 1 view .LVU76
 644              	.LBB101:
 228:Core/Src/main.cpp ****   __HAL_PWR_VOLTAGESCALING_CONFIG(PWR_REGULATOR_VOLTAGE_SCALE1);
 645              		.loc 1 228 3 view .LVU77
 646 001a 0193     		str	r3, [sp, #4]
 228:Core/Src/main.cpp ****   __HAL_PWR_VOLTAGESCALING_CONFIG(PWR_REGULATOR_VOLTAGE_SCALE1);
 647              		.loc 1 228 3 view .LVU78
 648 001c 1F4A     		ldr	r2, .L44
 649 001e 116C     		ldr	r1, [r2, #64]
 650 0020 41F08051 		orr	r1, r1, #268435456
 651 0024 1164     		str	r1, [r2, #64]
 228:Core/Src/main.cpp ****   __HAL_PWR_VOLTAGESCALING_CONFIG(PWR_REGULATOR_VOLTAGE_SCALE1);
 652              		.loc 1 228 3 view .LVU79
 653 0026 126C     		ldr	r2, [r2, #64]
 654 0028 02F08052 		and	r2, r2, #268435456
 655 002c 0192     		str	r2, [sp, #4]
 228:Core/Src/main.cpp ****   __HAL_PWR_VOLTAGESCALING_CONFIG(PWR_REGULATOR_VOLTAGE_SCALE1);
 656              		.loc 1 228 3 view .LVU80
 657 002e 019A     		ldr	r2, [sp, #4]
 658              	.LBE101:
 228:Core/Src/main.cpp ****   __HAL_PWR_VOLTAGESCALING_CONFIG(PWR_REGULATOR_VOLTAGE_SCALE1);
 659              		.loc 1 228 3 view .LVU81
 229:Core/Src/main.cpp **** 
 660              		.loc 1 229 3 view .LVU82
 661              	.LBB102:
 229:Core/Src/main.cpp **** 
 662              		.loc 1 229 3 view .LVU83
 663 0030 0293     		str	r3, [sp, #8]
 229:Core/Src/main.cpp **** 
 664              		.loc 1 229 3 view .LVU84
 665 0032 1B4A     		ldr	r2, .L44+4
 666 0034 1168     		ldr	r1, [r2]
 667 0036 41F48041 		orr	r1, r1, #16384
 668 003a 1160     		str	r1, [r2]
 229:Core/Src/main.cpp **** 
 669              		.loc 1 229 3 view .LVU85
 670 003c 1268     		ldr	r2, [r2]
 671 003e 02F48042 		and	r2, r2, #16384
 672 0042 0292     		str	r2, [sp, #8]
 229:Core/Src/main.cpp **** 
 673              		.loc 1 229 3 view .LVU86
 674 0044 029A     		ldr	r2, [sp, #8]
 675              	.LBE102:
 229:Core/Src/main.cpp **** 
 676              		.loc 1 229 3 view .LVU87
 234:Core/Src/main.cpp ****   RCC_OscInitStruct.HSIState = RCC_HSI_ON;
 677              		.loc 1 234 3 view .LVU88
 234:Core/Src/main.cpp ****   RCC_OscInitStruct.HSIState = RCC_HSI_ON;
 678              		.loc 1 234 36 is_stmt 0 view .LVU89
 679 0046 0222     		movs	r2, #2
 680 0048 0892     		str	r2, [sp, #32]
ARM GAS  C:\Users\hanaj\AppData\Local\Temp\cczfNnLg.s 			page 36


 235:Core/Src/main.cpp ****   RCC_OscInitStruct.HSICalibrationValue = RCC_HSICALIBRATION_DEFAULT;
 681              		.loc 1 235 3 is_stmt 1 view .LVU90
 235:Core/Src/main.cpp ****   RCC_OscInitStruct.HSICalibrationValue = RCC_HSICALIBRATION_DEFAULT;
 682              		.loc 1 235 30 is_stmt 0 view .LVU91
 683 004a 0121     		movs	r1, #1
 684 004c 0B91     		str	r1, [sp, #44]
 236:Core/Src/main.cpp ****   RCC_OscInitStruct.PLL.PLLState = RCC_PLL_ON;
 685              		.loc 1 236 3 is_stmt 1 view .LVU92
 236:Core/Src/main.cpp ****   RCC_OscInitStruct.PLL.PLLState = RCC_PLL_ON;
 686              		.loc 1 236 41 is_stmt 0 view .LVU93
 687 004e 1021     		movs	r1, #16
 688 0050 0C91     		str	r1, [sp, #48]
 237:Core/Src/main.cpp ****   RCC_OscInitStruct.PLL.PLLSource = RCC_PLLSOURCE_HSI;
 689              		.loc 1 237 3 is_stmt 1 view .LVU94
 237:Core/Src/main.cpp ****   RCC_OscInitStruct.PLL.PLLSource = RCC_PLLSOURCE_HSI;
 690              		.loc 1 237 34 is_stmt 0 view .LVU95
 691 0052 0E92     		str	r2, [sp, #56]
 238:Core/Src/main.cpp ****   RCC_OscInitStruct.PLL.PLLM = 8;
 692              		.loc 1 238 3 is_stmt 1 view .LVU96
 238:Core/Src/main.cpp ****   RCC_OscInitStruct.PLL.PLLM = 8;
 693              		.loc 1 238 35 is_stmt 0 view .LVU97
 694 0054 0F93     		str	r3, [sp, #60]
 239:Core/Src/main.cpp ****   RCC_OscInitStruct.PLL.PLLN = 168;
 695              		.loc 1 239 3 is_stmt 1 view .LVU98
 239:Core/Src/main.cpp ****   RCC_OscInitStruct.PLL.PLLN = 168;
 696              		.loc 1 239 30 is_stmt 0 view .LVU99
 697 0056 0823     		movs	r3, #8
 698 0058 1093     		str	r3, [sp, #64]
 240:Core/Src/main.cpp ****   RCC_OscInitStruct.PLL.PLLP = RCC_PLLP_DIV2;
 699              		.loc 1 240 3 is_stmt 1 view .LVU100
 240:Core/Src/main.cpp ****   RCC_OscInitStruct.PLL.PLLP = RCC_PLLP_DIV2;
 700              		.loc 1 240 30 is_stmt 0 view .LVU101
 701 005a A823     		movs	r3, #168
 702 005c 1193     		str	r3, [sp, #68]
 241:Core/Src/main.cpp ****   RCC_OscInitStruct.PLL.PLLQ = 4;
 703              		.loc 1 241 3 is_stmt 1 view .LVU102
 241:Core/Src/main.cpp ****   RCC_OscInitStruct.PLL.PLLQ = 4;
 704              		.loc 1 241 30 is_stmt 0 view .LVU103
 705 005e 1292     		str	r2, [sp, #72]
 242:Core/Src/main.cpp ****   if (HAL_RCC_OscConfig(&RCC_OscInitStruct) != HAL_OK)
 706              		.loc 1 242 3 is_stmt 1 view .LVU104
 242:Core/Src/main.cpp ****   if (HAL_RCC_OscConfig(&RCC_OscInitStruct) != HAL_OK)
 707              		.loc 1 242 30 is_stmt 0 view .LVU105
 708 0060 0423     		movs	r3, #4
 709 0062 1393     		str	r3, [sp, #76]
 243:Core/Src/main.cpp ****   {
 710              		.loc 1 243 3 is_stmt 1 view .LVU106
 243:Core/Src/main.cpp ****   {
 711              		.loc 1 243 24 is_stmt 0 view .LVU107
 712 0064 08A8     		add	r0, sp, #32
 713 0066 FFF7FEFF 		bl	HAL_RCC_OscConfig
 714              	.LVL46:
 243:Core/Src/main.cpp ****   {
 715              		.loc 1 243 3 discriminator 1 view .LVU108
 716 006a 98B9     		cbnz	r0, .L42
 250:Core/Src/main.cpp ****                               |RCC_CLOCKTYPE_PCLK1|RCC_CLOCKTYPE_PCLK2;
 717              		.loc 1 250 3 is_stmt 1 view .LVU109
ARM GAS  C:\Users\hanaj\AppData\Local\Temp\cczfNnLg.s 			page 37


 250:Core/Src/main.cpp ****                               |RCC_CLOCKTYPE_PCLK1|RCC_CLOCKTYPE_PCLK2;
 718              		.loc 1 250 31 is_stmt 0 view .LVU110
 719 006c 0F23     		movs	r3, #15
 720 006e 0393     		str	r3, [sp, #12]
 252:Core/Src/main.cpp ****   RCC_ClkInitStruct.AHBCLKDivider = RCC_SYSCLK_DIV1;
 721              		.loc 1 252 3 is_stmt 1 view .LVU111
 252:Core/Src/main.cpp ****   RCC_ClkInitStruct.AHBCLKDivider = RCC_SYSCLK_DIV1;
 722              		.loc 1 252 34 is_stmt 0 view .LVU112
 723 0070 0223     		movs	r3, #2
 724 0072 0493     		str	r3, [sp, #16]
 253:Core/Src/main.cpp ****   RCC_ClkInitStruct.APB1CLKDivider = RCC_HCLK_DIV4;
 725              		.loc 1 253 3 is_stmt 1 view .LVU113
 253:Core/Src/main.cpp ****   RCC_ClkInitStruct.APB1CLKDivider = RCC_HCLK_DIV4;
 726              		.loc 1 253 35 is_stmt 0 view .LVU114
 727 0074 0023     		movs	r3, #0
 728 0076 0593     		str	r3, [sp, #20]
 254:Core/Src/main.cpp ****   RCC_ClkInitStruct.APB2CLKDivider = RCC_HCLK_DIV2;
 729              		.loc 1 254 3 is_stmt 1 view .LVU115
 254:Core/Src/main.cpp ****   RCC_ClkInitStruct.APB2CLKDivider = RCC_HCLK_DIV2;
 730              		.loc 1 254 36 is_stmt 0 view .LVU116
 731 0078 4FF4A053 		mov	r3, #5120
 732 007c 0693     		str	r3, [sp, #24]
 255:Core/Src/main.cpp **** 
 733              		.loc 1 255 3 is_stmt 1 view .LVU117
 255:Core/Src/main.cpp **** 
 734              		.loc 1 255 36 is_stmt 0 view .LVU118
 735 007e 4FF48053 		mov	r3, #4096
 736 0082 0793     		str	r3, [sp, #28]
 257:Core/Src/main.cpp ****   {
 737              		.loc 1 257 3 is_stmt 1 view .LVU119
 257:Core/Src/main.cpp ****   {
 738              		.loc 1 257 26 is_stmt 0 view .LVU120
 739 0084 0521     		movs	r1, #5
 740 0086 03A8     		add	r0, sp, #12
 741 0088 FFF7FEFF 		bl	HAL_RCC_ClockConfig
 742              	.LVL47:
 257:Core/Src/main.cpp ****   {
 743              		.loc 1 257 3 discriminator 1 view .LVU121
 744 008c 20B9     		cbnz	r0, .L43
 261:Core/Src/main.cpp **** 
 745              		.loc 1 261 1 view .LVU122
 746 008e 15B0     		add	sp, sp, #84
 747              	.LCFI7:
 748              		.cfi_remember_state
 749              		.cfi_def_cfa_offset 4
 750              		@ sp needed
 751 0090 5DF804FB 		ldr	pc, [sp], #4
 752              	.L42:
 753              	.LCFI8:
 754              		.cfi_restore_state
 245:Core/Src/main.cpp ****   }
 755              		.loc 1 245 5 is_stmt 1 view .LVU123
 245:Core/Src/main.cpp ****   }
 756              		.loc 1 245 18 is_stmt 0 view .LVU124
 757 0094 FFF7FEFF 		bl	Error_Handler
 758              	.LVL48:
 759              	.L43:
ARM GAS  C:\Users\hanaj\AppData\Local\Temp\cczfNnLg.s 			page 38


 259:Core/Src/main.cpp ****   }
 760              		.loc 1 259 5 is_stmt 1 view .LVU125
 259:Core/Src/main.cpp ****   }
 761              		.loc 1 259 18 is_stmt 0 view .LVU126
 762 0098 FFF7FEFF 		bl	Error_Handler
 763              	.LVL49:
 764              	.L45:
 765              		.align	2
 766              	.L44:
 767 009c 00380240 		.word	1073887232
 768 00a0 00700040 		.word	1073770496
 769              		.cfi_endproc
 770              	.LFE283:
 771              		.fnend
 773              		.section	.text.main,"ax",%progbits
 774              		.align	1
 775              		.global	main
 776              		.syntax unified
 777              		.thumb
 778              		.thumb_func
 780              	main:
 781              		.fnstart
 782              	.LFB242:
  79:Core/Src/main.cpp **** 
 783              		.loc 1 79 1 is_stmt 1 view -0
 784              		.cfi_startproc
 785              		@ args = 0, pretend = 0, frame = 0
 786              		@ frame_needed = 0, uses_anonymous_args = 0
 787 0000 00B5     		push	{lr}
 788              		.save {lr}
 789              	.LCFI9:
 790              		.cfi_def_cfa_offset 4
 791              		.cfi_offset 14, -4
 792              		.pad #36
 793 0002 89B0     		sub	sp, sp, #36
 794              	.LCFI10:
 795              		.cfi_def_cfa_offset 40
  88:Core/Src/main.cpp **** 
 796              		.loc 1 88 3 view .LVU128
 797              	.LEHB0:
  88:Core/Src/main.cpp **** 
 798              		.loc 1 88 11 is_stmt 0 view .LVU129
 799 0004 FFF7FEFF 		bl	HAL_Init
 800              	.LVL50:
  95:Core/Src/main.cpp **** 
 801              		.loc 1 95 3 is_stmt 1 view .LVU130
  95:Core/Src/main.cpp **** 
 802              		.loc 1 95 21 is_stmt 0 view .LVU131
 803 0008 FFF7FEFF 		bl	_Z18SystemClock_Configv
 804              	.LVL51:
 102:Core/Src/main.cpp ****   MX_DMA_Init();
 805              		.loc 1 102 3 is_stmt 1 view .LVU132
 102:Core/Src/main.cpp ****   MX_DMA_Init();
 806              		.loc 1 102 15 is_stmt 0 view .LVU133
 807 000c FFF7FEFF 		bl	MX_GPIO_Init
 808              	.LVL52:
 103:Core/Src/main.cpp ****   MX_SPI3_Init();
ARM GAS  C:\Users\hanaj\AppData\Local\Temp\cczfNnLg.s 			page 39


 809              		.loc 1 103 3 is_stmt 1 view .LVU134
 103:Core/Src/main.cpp ****   MX_SPI3_Init();
 810              		.loc 1 103 14 is_stmt 0 view .LVU135
 811 0010 FFF7FEFF 		bl	MX_DMA_Init
 812              	.LVL53:
 104:Core/Src/main.cpp ****   MX_TIM1_Init();
 813              		.loc 1 104 3 is_stmt 1 view .LVU136
 104:Core/Src/main.cpp ****   MX_TIM1_Init();
 814              		.loc 1 104 15 is_stmt 0 view .LVU137
 815 0014 FFF7FEFF 		bl	MX_SPI3_Init
 816              	.LVL54:
 105:Core/Src/main.cpp ****   MX_TIM2_Init();
 817              		.loc 1 105 3 is_stmt 1 view .LVU138
 105:Core/Src/main.cpp ****   MX_TIM2_Init();
 818              		.loc 1 105 15 is_stmt 0 view .LVU139
 819 0018 FFF7FEFF 		bl	MX_TIM1_Init
 820              	.LVL55:
 106:Core/Src/main.cpp ****   MX_TIM3_Init();
 821              		.loc 1 106 3 is_stmt 1 view .LVU140
 106:Core/Src/main.cpp ****   MX_TIM3_Init();
 822              		.loc 1 106 15 is_stmt 0 view .LVU141
 823 001c FFF7FEFF 		bl	MX_TIM2_Init
 824              	.LVL56:
 107:Core/Src/main.cpp ****   MX_TIM4_Init();
 825              		.loc 1 107 3 is_stmt 1 view .LVU142
 107:Core/Src/main.cpp ****   MX_TIM4_Init();
 826              		.loc 1 107 15 is_stmt 0 view .LVU143
 827 0020 FFF7FEFF 		bl	MX_TIM3_Init
 828              	.LVL57:
 108:Core/Src/main.cpp ****   MX_TIM10_Init();
 829              		.loc 1 108 3 is_stmt 1 view .LVU144
 108:Core/Src/main.cpp ****   MX_TIM10_Init();
 830              		.loc 1 108 15 is_stmt 0 view .LVU145
 831 0024 FFF7FEFF 		bl	MX_TIM4_Init
 832              	.LVL58:
 109:Core/Src/main.cpp ****   MX_TIM11_Init();
 833              		.loc 1 109 3 is_stmt 1 view .LVU146
 109:Core/Src/main.cpp ****   MX_TIM11_Init();
 834              		.loc 1 109 16 is_stmt 0 view .LVU147
 835 0028 FFF7FEFF 		bl	MX_TIM10_Init
 836              	.LVL59:
 110:Core/Src/main.cpp ****   MX_TIM5_Init();
 837              		.loc 1 110 3 is_stmt 1 view .LVU148
 110:Core/Src/main.cpp ****   MX_TIM5_Init();
 838              		.loc 1 110 16 is_stmt 0 view .LVU149
 839 002c FFF7FEFF 		bl	MX_TIM11_Init
 840              	.LVL60:
 111:Core/Src/main.cpp ****   /* USER CODE BEGIN 2 */
 841              		.loc 1 111 3 is_stmt 1 view .LVU150
 111:Core/Src/main.cpp ****   /* USER CODE BEGIN 2 */
 842              		.loc 1 111 15 is_stmt 0 view .LVU151
 843 0030 FFF7FEFF 		bl	MX_TIM5_Init
 844              	.LVL61:
 845              	.LEHE0:
 115:Core/Src/main.cpp ****   static GpioSTM32F4 AIN2(GPIOB, GPIO_PIN_14);
 846              		.loc 1 115 3 is_stmt 1 view .LVU152
 115:Core/Src/main.cpp ****   static GpioSTM32F4 AIN2(GPIOB, GPIO_PIN_14);
ARM GAS  C:\Users\hanaj\AppData\Local\Temp\cczfNnLg.s 			page 40


 847              		.loc 1 115 45 is_stmt 0 view .LVU153
 848 0034 AC4B     		ldr	r3, .L185
 849 0036 1B68     		ldr	r3, [r3]
 850 0038 BFF35B8F 		dmb	ish
 115:Core/Src/main.cpp ****   static GpioSTM32F4 AIN2(GPIOB, GPIO_PIN_14);
 851              		.loc 1 115 45 discriminator 1 view .LVU154
 852 003c 13F0010F 		tst	r3, #1
 853 0040 05D1     		bne	.L47
 854 0042 A948     		ldr	r0, .L185
 855 0044 FFF7FEFF 		bl	__cxa_guard_acquire
 856              	.LVL62:
 857 0048 0028     		cmp	r0, #0
 858 004a 40F0E181 		bne	.L151
 859              	.L47:
 116:Core/Src/main.cpp ****   static GpioSTM32F4 BIN1(GPIOB, GPIO_PIN_5);
 860              		.loc 1 116 3 is_stmt 1 view .LVU155
 116:Core/Src/main.cpp ****   static GpioSTM32F4 BIN1(GPIOB, GPIO_PIN_5);
 861              		.loc 1 116 45 is_stmt 0 view .LVU156
 862 004e A74B     		ldr	r3, .L185+4
 863 0050 1B68     		ldr	r3, [r3]
 864 0052 BFF35B8F 		dmb	ish
 116:Core/Src/main.cpp ****   static GpioSTM32F4 BIN1(GPIOB, GPIO_PIN_5);
 865              		.loc 1 116 45 discriminator 1 view .LVU157
 866 0056 13F0010F 		tst	r3, #1
 867 005a 05D1     		bne	.L48
 868 005c A348     		ldr	r0, .L185+4
 869 005e FFF7FEFF 		bl	__cxa_guard_acquire
 870              	.LVL63:
 871 0062 0028     		cmp	r0, #0
 872 0064 40F0E381 		bne	.L152
 873              	.L48:
 117:Core/Src/main.cpp ****   static GpioSTM32F4 BIN2(GPIOB, GPIO_PIN_4);
 874              		.loc 1 117 3 is_stmt 1 view .LVU158
 117:Core/Src/main.cpp ****   static GpioSTM32F4 BIN2(GPIOB, GPIO_PIN_4);
 875              		.loc 1 117 44 is_stmt 0 view .LVU159
 876 0068 A14B     		ldr	r3, .L185+8
 877 006a 1B68     		ldr	r3, [r3]
 878 006c BFF35B8F 		dmb	ish
 117:Core/Src/main.cpp ****   static GpioSTM32F4 BIN2(GPIOB, GPIO_PIN_4);
 879              		.loc 1 117 44 discriminator 1 view .LVU160
 880 0070 13F0010F 		tst	r3, #1
 881 0074 05D1     		bne	.L49
 882 0076 9E48     		ldr	r0, .L185+8
 883 0078 FFF7FEFF 		bl	__cxa_guard_acquire
 884              	.LVL64:
 885 007c 0028     		cmp	r0, #0
 886 007e 40F0E581 		bne	.L153
 887              	.L49:
 118:Core/Src/main.cpp ****   static GpioSTM32F4 SensorLED_FL(GPIOA, GPIO_PIN_12);
 888              		.loc 1 118 3 is_stmt 1 view .LVU161
 118:Core/Src/main.cpp ****   static GpioSTM32F4 SensorLED_FL(GPIOA, GPIO_PIN_12);
 889              		.loc 1 118 44 is_stmt 0 view .LVU162
 890 0082 9C4B     		ldr	r3, .L185+12
 891 0084 1B68     		ldr	r3, [r3]
 892 0086 BFF35B8F 		dmb	ish
 118:Core/Src/main.cpp ****   static GpioSTM32F4 SensorLED_FL(GPIOA, GPIO_PIN_12);
 893              		.loc 1 118 44 discriminator 1 view .LVU163
ARM GAS  C:\Users\hanaj\AppData\Local\Temp\cczfNnLg.s 			page 41


 894 008a 13F0010F 		tst	r3, #1
 895 008e 05D1     		bne	.L50
 896 0090 9848     		ldr	r0, .L185+12
 897 0092 FFF7FEFF 		bl	__cxa_guard_acquire
 898              	.LVL65:
 899 0096 0028     		cmp	r0, #0
 900 0098 40F0E681 		bne	.L154
 901              	.L50:
 119:Core/Src/main.cpp ****   static GpioSTM32F4 SensorLED_FR(GPIOA, GPIO_PIN_11);
 902              		.loc 1 119 3 is_stmt 1 view .LVU164
 119:Core/Src/main.cpp ****   static GpioSTM32F4 SensorLED_FR(GPIOA, GPIO_PIN_11);
 903              		.loc 1 119 53 is_stmt 0 view .LVU165
 904 009c 964B     		ldr	r3, .L185+16
 905 009e 1B68     		ldr	r3, [r3]
 906 00a0 BFF35B8F 		dmb	ish
 119:Core/Src/main.cpp ****   static GpioSTM32F4 SensorLED_FR(GPIOA, GPIO_PIN_11);
 907              		.loc 1 119 53 discriminator 1 view .LVU166
 908 00a4 13F0010F 		tst	r3, #1
 909 00a8 05D1     		bne	.L51
 910 00aa 9348     		ldr	r0, .L185+16
 911 00ac FFF7FEFF 		bl	__cxa_guard_acquire
 912              	.LVL66:
 913 00b0 0028     		cmp	r0, #0
 914 00b2 40F0E781 		bne	.L155
 915              	.L51:
 120:Core/Src/main.cpp ****   static GpioSTM32F4 SensorLED_R(GPIOA, GPIO_PIN_10);
 916              		.loc 1 120 3 is_stmt 1 view .LVU167
 120:Core/Src/main.cpp ****   static GpioSTM32F4 SensorLED_R(GPIOA, GPIO_PIN_10);
 917              		.loc 1 120 53 is_stmt 0 view .LVU168
 918 00b6 914B     		ldr	r3, .L185+20
 919 00b8 1B68     		ldr	r3, [r3]
 920 00ba BFF35B8F 		dmb	ish
 120:Core/Src/main.cpp ****   static GpioSTM32F4 SensorLED_R(GPIOA, GPIO_PIN_10);
 921              		.loc 1 120 53 discriminator 1 view .LVU169
 922 00be 13F0010F 		tst	r3, #1
 923 00c2 05D1     		bne	.L52
 924 00c4 8D48     		ldr	r0, .L185+20
 925 00c6 FFF7FEFF 		bl	__cxa_guard_acquire
 926              	.LVL67:
 927 00ca 0028     		cmp	r0, #0
 928 00cc 40F0E981 		bne	.L156
 929              	.L52:
 121:Core/Src/main.cpp ****   static GpioSTM32F4 SensorLED_L(GPIOC, GPIO_PIN_8);
 930              		.loc 1 121 3 is_stmt 1 view .LVU170
 121:Core/Src/main.cpp ****   static GpioSTM32F4 SensorLED_L(GPIOC, GPIO_PIN_8);
 931              		.loc 1 121 52 is_stmt 0 view .LVU171
 932 00d0 8B4B     		ldr	r3, .L185+24
 933 00d2 1B68     		ldr	r3, [r3]
 934 00d4 BFF35B8F 		dmb	ish
 121:Core/Src/main.cpp ****   static GpioSTM32F4 SensorLED_L(GPIOC, GPIO_PIN_8);
 935              		.loc 1 121 52 discriminator 1 view .LVU172
 936 00d8 13F0010F 		tst	r3, #1
 937 00dc 05D1     		bne	.L53
 938 00de 8848     		ldr	r0, .L185+24
 939 00e0 FFF7FEFF 		bl	__cxa_guard_acquire
 940              	.LVL68:
 941 00e4 0028     		cmp	r0, #0
ARM GAS  C:\Users\hanaj\AppData\Local\Temp\cczfNnLg.s 			page 42


 942 00e6 40F0EB81 		bne	.L157
 943              	.L53:
 122:Core/Src/main.cpp ****   static GpioSTM32F4 LED_FL(GPIOA, GPIO_PIN_7);
 944              		.loc 1 122 3 is_stmt 1 view .LVU173
 122:Core/Src/main.cpp ****   static GpioSTM32F4 LED_FL(GPIOA, GPIO_PIN_7);
 945              		.loc 1 122 51 is_stmt 0 view .LVU174
 946 00ea 864B     		ldr	r3, .L185+28
 947 00ec 1B68     		ldr	r3, [r3]
 948 00ee BFF35B8F 		dmb	ish
 122:Core/Src/main.cpp ****   static GpioSTM32F4 LED_FL(GPIOA, GPIO_PIN_7);
 949              		.loc 1 122 51 discriminator 1 view .LVU175
 950 00f2 13F0010F 		tst	r3, #1
 951 00f6 05D1     		bne	.L54
 952 00f8 8248     		ldr	r0, .L185+28
 953 00fa FFF7FEFF 		bl	__cxa_guard_acquire
 954              	.LVL69:
 955 00fe 0028     		cmp	r0, #0
 956 0100 40F0ED81 		bne	.L158
 957              	.L54:
 123:Core/Src/main.cpp ****   static GpioSTM32F4 LED_FR(GPIOC, GPIO_PIN_2);
 958              		.loc 1 123 3 is_stmt 1 view .LVU176
 123:Core/Src/main.cpp ****   static GpioSTM32F4 LED_FR(GPIOC, GPIO_PIN_2);
 959              		.loc 1 123 46 is_stmt 0 view .LVU177
 960 0104 804B     		ldr	r3, .L185+32
 961 0106 1B68     		ldr	r3, [r3]
 962 0108 BFF35B8F 		dmb	ish
 123:Core/Src/main.cpp ****   static GpioSTM32F4 LED_FR(GPIOC, GPIO_PIN_2);
 963              		.loc 1 123 46 discriminator 1 view .LVU178
 964 010c 13F0010F 		tst	r3, #1
 965 0110 05D1     		bne	.L55
 966 0112 7D48     		ldr	r0, .L185+32
 967 0114 FFF7FEFF 		bl	__cxa_guard_acquire
 968              	.LVL70:
 969 0118 0028     		cmp	r0, #0
 970 011a 40F0EF81 		bne	.L159
 971              	.L55:
 124:Core/Src/main.cpp ****   static GpioSTM32F4 LED_R(GPIOC, GPIO_PIN_3);
 972              		.loc 1 124 3 is_stmt 1 view .LVU179
 124:Core/Src/main.cpp ****   static GpioSTM32F4 LED_R(GPIOC, GPIO_PIN_3);
 973              		.loc 1 124 46 is_stmt 0 view .LVU180
 974 011e 7B4B     		ldr	r3, .L185+36
 975 0120 1B68     		ldr	r3, [r3]
 976 0122 BFF35B8F 		dmb	ish
 124:Core/Src/main.cpp ****   static GpioSTM32F4 LED_R(GPIOC, GPIO_PIN_3);
 977              		.loc 1 124 46 discriminator 1 view .LVU181
 978 0126 13F0010F 		tst	r3, #1
 979 012a 05D1     		bne	.L56
 980 012c 7748     		ldr	r0, .L185+36
 981 012e FFF7FEFF 		bl	__cxa_guard_acquire
 982              	.LVL71:
 983 0132 0028     		cmp	r0, #0
 984 0134 40F0F081 		bne	.L160
 985              	.L56:
 125:Core/Src/main.cpp ****   static GpioSTM32F4 LED_L(GPIOA, GPIO_PIN_8);
 986              		.loc 1 125 3 is_stmt 1 view .LVU182
 125:Core/Src/main.cpp ****   static GpioSTM32F4 LED_L(GPIOA, GPIO_PIN_8);
 987              		.loc 1 125 45 is_stmt 0 view .LVU183
ARM GAS  C:\Users\hanaj\AppData\Local\Temp\cczfNnLg.s 			page 43


 988 0138 754B     		ldr	r3, .L185+40
 989 013a 1B68     		ldr	r3, [r3]
 990 013c BFF35B8F 		dmb	ish
 125:Core/Src/main.cpp ****   static GpioSTM32F4 LED_L(GPIOA, GPIO_PIN_8);
 991              		.loc 1 125 45 discriminator 1 view .LVU184
 992 0140 13F0010F 		tst	r3, #1
 993 0144 05D1     		bne	.L57
 994 0146 7248     		ldr	r0, .L185+40
 995 0148 FFF7FEFF 		bl	__cxa_guard_acquire
 996              	.LVL72:
 997 014c 0028     		cmp	r0, #0
 998 014e 40F0F181 		bne	.L161
 999              	.L57:
 126:Core/Src/main.cpp ****   static GpioSTM32F4 ModeLED1(GPIOA, GPIO_PIN_15);
 1000              		.loc 1 126 3 is_stmt 1 view .LVU185
 126:Core/Src/main.cpp ****   static GpioSTM32F4 ModeLED1(GPIOA, GPIO_PIN_15);
 1001              		.loc 1 126 45 is_stmt 0 view .LVU186
 1002 0152 704B     		ldr	r3, .L185+44
 1003 0154 1B68     		ldr	r3, [r3]
 1004 0156 BFF35B8F 		dmb	ish
 126:Core/Src/main.cpp ****   static GpioSTM32F4 ModeLED1(GPIOA, GPIO_PIN_15);
 1005              		.loc 1 126 45 discriminator 1 view .LVU187
 1006 015a 13F0010F 		tst	r3, #1
 1007 015e 05D1     		bne	.L58
 1008 0160 6C48     		ldr	r0, .L185+44
 1009 0162 FFF7FEFF 		bl	__cxa_guard_acquire
 1010              	.LVL73:
 1011 0166 0028     		cmp	r0, #0
 1012 0168 40F0F281 		bne	.L162
 1013              	.L58:
 127:Core/Src/main.cpp ****   static GpioSTM32F4 ModeLED2(GPIOB, GPIO_PIN_0);
 1014              		.loc 1 127 3 is_stmt 1 view .LVU188
 127:Core/Src/main.cpp ****   static GpioSTM32F4 ModeLED2(GPIOB, GPIO_PIN_0);
 1015              		.loc 1 127 49 is_stmt 0 view .LVU189
 1016 016c 6A4B     		ldr	r3, .L185+48
 1017 016e 1B68     		ldr	r3, [r3]
 1018 0170 BFF35B8F 		dmb	ish
 127:Core/Src/main.cpp ****   static GpioSTM32F4 ModeLED2(GPIOB, GPIO_PIN_0);
 1019              		.loc 1 127 49 discriminator 1 view .LVU190
 1020 0174 13F0010F 		tst	r3, #1
 1021 0178 05D1     		bne	.L59
 1022 017a 6748     		ldr	r0, .L185+48
 1023 017c FFF7FEFF 		bl	__cxa_guard_acquire
 1024              	.LVL74:
 1025 0180 0028     		cmp	r0, #0
 1026 0182 40F0F481 		bne	.L163
 1027              	.L59:
 128:Core/Src/main.cpp ****   static GpioSTM32F4 ModeLED3(GPIOB, GPIO_PIN_1);
 1028              		.loc 1 128 3 is_stmt 1 view .LVU191
 128:Core/Src/main.cpp ****   static GpioSTM32F4 ModeLED3(GPIOB, GPIO_PIN_1);
 1029              		.loc 1 128 48 is_stmt 0 view .LVU192
 1030 0186 654B     		ldr	r3, .L185+52
 1031 0188 1B68     		ldr	r3, [r3]
 1032 018a BFF35B8F 		dmb	ish
 128:Core/Src/main.cpp ****   static GpioSTM32F4 ModeLED3(GPIOB, GPIO_PIN_1);
 1033              		.loc 1 128 48 discriminator 1 view .LVU193
 1034 018e 13F0010F 		tst	r3, #1
ARM GAS  C:\Users\hanaj\AppData\Local\Temp\cczfNnLg.s 			page 44


 1035 0192 05D1     		bne	.L60
 1036 0194 6148     		ldr	r0, .L185+52
 1037 0196 FFF7FEFF 		bl	__cxa_guard_acquire
 1038              	.LVL75:
 1039 019a 0028     		cmp	r0, #0
 1040 019c 40F0F681 		bne	.L164
 1041              	.L60:
 129:Core/Src/main.cpp ****   static GpioSTM32F4 gpioButton(GPIOC, GPIO_PIN_5);
 1042              		.loc 1 129 3 is_stmt 1 view .LVU194
 129:Core/Src/main.cpp ****   static GpioSTM32F4 gpioButton(GPIOC, GPIO_PIN_5);
 1043              		.loc 1 129 48 is_stmt 0 view .LVU195
 1044 01a0 5F4B     		ldr	r3, .L185+56
 1045 01a2 1B68     		ldr	r3, [r3]
 1046 01a4 BFF35B8F 		dmb	ish
 129:Core/Src/main.cpp ****   static GpioSTM32F4 gpioButton(GPIOC, GPIO_PIN_5);
 1047              		.loc 1 129 48 discriminator 1 view .LVU196
 1048 01a8 13F0010F 		tst	r3, #1
 1049 01ac 05D1     		bne	.L61
 1050 01ae 5C48     		ldr	r0, .L185+56
 1051 01b0 FFF7FEFF 		bl	__cxa_guard_acquire
 1052              	.LVL76:
 1053 01b4 0028     		cmp	r0, #0
 1054 01b6 40F0F781 		bne	.L165
 1055              	.L61:
 130:Core/Src/main.cpp **** 
 1056              		.loc 1 130 3 is_stmt 1 view .LVU197
 130:Core/Src/main.cpp **** 
 1057              		.loc 1 130 50 is_stmt 0 view .LVU198
 1058 01ba 5A4B     		ldr	r3, .L185+60
 1059 01bc 1B68     		ldr	r3, [r3]
 1060 01be BFF35B8F 		dmb	ish
 130:Core/Src/main.cpp **** 
 1061              		.loc 1 130 50 discriminator 1 view .LVU199
 1062 01c2 13F0010F 		tst	r3, #1
 1063 01c6 05D1     		bne	.L62
 1064 01c8 5648     		ldr	r0, .L185+60
 1065 01ca FFF7FEFF 		bl	__cxa_guard_acquire
 1066              	.LVL77:
 1067 01ce 0028     		cmp	r0, #0
 1068 01d0 40F0F881 		bne	.L166
 1069              	.L62:
 133:Core/Src/main.cpp ****   static AdcSTM32F4 Adc2(&hadc2);
 1070              		.loc 1 133 3 is_stmt 1 view .LVU200
 133:Core/Src/main.cpp ****   static AdcSTM32F4 Adc2(&hadc2);
 1071              		.loc 1 133 32 is_stmt 0 view .LVU201
 1072 01d4 544B     		ldr	r3, .L185+64
 1073 01d6 1B68     		ldr	r3, [r3]
 1074 01d8 BFF35B8F 		dmb	ish
 133:Core/Src/main.cpp ****   static AdcSTM32F4 Adc2(&hadc2);
 1075              		.loc 1 133 32 discriminator 1 view .LVU202
 1076 01dc 13F0010F 		tst	r3, #1
 1077 01e0 05D1     		bne	.L63
 1078 01e2 5148     		ldr	r0, .L185+64
 1079 01e4 FFF7FEFF 		bl	__cxa_guard_acquire
 1080              	.LVL78:
 1081 01e8 0028     		cmp	r0, #0
 1082 01ea 40F0F981 		bne	.L167
ARM GAS  C:\Users\hanaj\AppData\Local\Temp\cczfNnLg.s 			page 45


 1083              	.L63:
 134:Core/Src/main.cpp ****   static AdcSTM32F4 Adc3(&hadc3);
 1084              		.loc 1 134 3 is_stmt 1 view .LVU203
 134:Core/Src/main.cpp ****   static AdcSTM32F4 Adc3(&hadc3);
 1085              		.loc 1 134 32 is_stmt 0 view .LVU204
 1086 01ee 4F4B     		ldr	r3, .L185+68
 1087 01f0 1B68     		ldr	r3, [r3]
 1088 01f2 BFF35B8F 		dmb	ish
 134:Core/Src/main.cpp ****   static AdcSTM32F4 Adc3(&hadc3);
 1089              		.loc 1 134 32 discriminator 1 view .LVU205
 1090 01f6 13F0010F 		tst	r3, #1
 1091 01fa 05D1     		bne	.L64
 1092 01fc 4B48     		ldr	r0, .L185+68
 1093 01fe FFF7FEFF 		bl	__cxa_guard_acquire
 1094              	.LVL79:
 1095 0202 0028     		cmp	r0, #0
 1096 0204 40F06082 		bne	.L168
 1097              	.L64:
 135:Core/Src/main.cpp **** 
 1098              		.loc 1 135 3 is_stmt 1 view .LVU206
 135:Core/Src/main.cpp **** 
 1099              		.loc 1 135 32 is_stmt 0 view .LVU207
 1100 0208 494B     		ldr	r3, .L185+72
 1101 020a 1B68     		ldr	r3, [r3]
 1102 020c BFF35B8F 		dmb	ish
 135:Core/Src/main.cpp **** 
 1103              		.loc 1 135 32 discriminator 1 view .LVU208
 1104 0210 13F0010F 		tst	r3, #1
 1105 0214 05D1     		bne	.L65
 1106 0216 4648     		ldr	r0, .L185+72
 1107 0218 FFF7FEFF 		bl	__cxa_guard_acquire
 1108              	.LVL80:
 1109 021c 0028     		cmp	r0, #0
 1110 021e 40F06082 		bne	.L169
 1111              	.L65:
 138:Core/Src/main.cpp ****   static PwmSTM32F4 pwmLeft(&htim11, TIM_CHANNEL_1);
 1112              		.loc 1 138 3 is_stmt 1 view .LVU209
 138:Core/Src/main.cpp ****   static PwmSTM32F4 pwmLeft(&htim11, TIM_CHANNEL_1);
 1113              		.loc 1 138 51 is_stmt 0 view .LVU210
 1114 0222 444B     		ldr	r3, .L185+76
 1115 0224 1B68     		ldr	r3, [r3]
 1116 0226 BFF35B8F 		dmb	ish
 138:Core/Src/main.cpp ****   static PwmSTM32F4 pwmLeft(&htim11, TIM_CHANNEL_1);
 1117              		.loc 1 138 51 discriminator 1 view .LVU211
 1118 022a 13F0010F 		tst	r3, #1
 1119 022e 05D1     		bne	.L66
 1120 0230 4048     		ldr	r0, .L185+76
 1121 0232 FFF7FEFF 		bl	__cxa_guard_acquire
 1122              	.LVL81:
 1123 0236 0028     		cmp	r0, #0
 1124 0238 40F06082 		bne	.L170
 1125              	.L66:
 139:Core/Src/main.cpp ****   static PwmSTM32F4 SuctionMotor(&htim10, TIM_CHANNEL_1);
 1126              		.loc 1 139 3 is_stmt 1 view .LVU212
 139:Core/Src/main.cpp ****   static PwmSTM32F4 SuctionMotor(&htim10, TIM_CHANNEL_1);
 1127              		.loc 1 139 51 is_stmt 0 view .LVU213
 1128 023c 3E4B     		ldr	r3, .L185+80
ARM GAS  C:\Users\hanaj\AppData\Local\Temp\cczfNnLg.s 			page 46


 1129 023e 1B68     		ldr	r3, [r3]
 1130 0240 BFF35B8F 		dmb	ish
 139:Core/Src/main.cpp ****   static PwmSTM32F4 SuctionMotor(&htim10, TIM_CHANNEL_1);
 1131              		.loc 1 139 51 discriminator 1 view .LVU214
 1132 0244 13F0010F 		tst	r3, #1
 1133 0248 05D1     		bne	.L67
 1134 024a 3B48     		ldr	r0, .L185+80
 1135 024c FFF7FEFF 		bl	__cxa_guard_acquire
 1136              	.LVL82:
 1137 0250 0028     		cmp	r0, #0
 1138 0252 40F05C82 		bne	.L171
 1139              	.L67:
 140:Core/Src/main.cpp ****   static PwmSTM32F4 Buzzer(&htim2, TIM_CHANNEL_1);
 1140              		.loc 1 140 3 is_stmt 1 view .LVU215
 140:Core/Src/main.cpp ****   static PwmSTM32F4 Buzzer(&htim2, TIM_CHANNEL_1);
 1141              		.loc 1 140 56 is_stmt 0 view .LVU216
 1142 0256 394B     		ldr	r3, .L185+84
 1143 0258 1B68     		ldr	r3, [r3]
 1144 025a BFF35B8F 		dmb	ish
 140:Core/Src/main.cpp ****   static PwmSTM32F4 Buzzer(&htim2, TIM_CHANNEL_1);
 1145              		.loc 1 140 56 discriminator 1 view .LVU217
 1146 025e 13F0010F 		tst	r3, #1
 1147 0262 05D1     		bne	.L68
 1148 0264 3548     		ldr	r0, .L185+84
 1149 0266 FFF7FEFF 		bl	__cxa_guard_acquire
 1150              	.LVL83:
 1151 026a 0028     		cmp	r0, #0
 1152 026c 40F05882 		bne	.L172
 1153              	.L68:
 141:Core/Src/main.cpp **** 
 1154              		.loc 1 141 3 is_stmt 1 view .LVU218
 141:Core/Src/main.cpp **** 
 1155              		.loc 1 141 49 is_stmt 0 view .LVU219
 1156 0270 334B     		ldr	r3, .L185+88
 1157 0272 1B68     		ldr	r3, [r3]
 1158 0274 BFF35B8F 		dmb	ish
 141:Core/Src/main.cpp **** 
 1159              		.loc 1 141 49 discriminator 1 view .LVU220
 1160 0278 13F0010F 		tst	r3, #1
 1161 027c 05D1     		bne	.L69
 1162 027e 3048     		ldr	r0, .L185+88
 1163 0280 FFF7FEFF 		bl	__cxa_guard_acquire
 1164              	.LVL84:
 1165 0284 0028     		cmp	r0, #0
 1166 0286 40F05482 		bne	.L173
 1167              	.L69:
 144:Core/Src/main.cpp ****   static EncoderSTM32F4 EncoderRight(&htim3);
 1168              		.loc 1 144 3 is_stmt 1 view .LVU221
 144:Core/Src/main.cpp ****   static EncoderSTM32F4 EncoderRight(&htim3);
 1169              		.loc 1 144 42 is_stmt 0 view .LVU222
 1170 028a 2E4B     		ldr	r3, .L185+92
 1171 028c 1B68     		ldr	r3, [r3]
 1172 028e BFF35B8F 		dmb	ish
 144:Core/Src/main.cpp ****   static EncoderSTM32F4 EncoderRight(&htim3);
 1173              		.loc 1 144 42 discriminator 1 view .LVU223
 1174 0292 13F0010F 		tst	r3, #1
 1175 0296 05D1     		bne	.L70
ARM GAS  C:\Users\hanaj\AppData\Local\Temp\cczfNnLg.s 			page 47


 1176 0298 2A48     		ldr	r0, .L185+92
 1177 029a FFF7FEFF 		bl	__cxa_guard_acquire
 1178              	.LVL85:
 1179 029e 0028     		cmp	r0, #0
 1180 02a0 40F05082 		bne	.L174
 1181              	.L70:
 145:Core/Src/main.cpp ****   static EncoderSTM32F4 EncoderLeft(&htim4);
 1182              		.loc 1 145 3 is_stmt 1 view .LVU224
 145:Core/Src/main.cpp ****   static EncoderSTM32F4 EncoderLeft(&htim4);
 1183              		.loc 1 145 44 is_stmt 0 view .LVU225
 1184 02a4 284B     		ldr	r3, .L185+96
 1185 02a6 1B68     		ldr	r3, [r3]
 1186 02a8 BFF35B8F 		dmb	ish
 145:Core/Src/main.cpp ****   static EncoderSTM32F4 EncoderLeft(&htim4);
 1187              		.loc 1 145 44 discriminator 1 view .LVU226
 1188 02ac 13F0010F 		tst	r3, #1
 1189 02b0 05D1     		bne	.L71
 1190 02b2 2548     		ldr	r0, .L185+96
 1191 02b4 FFF7FEFF 		bl	__cxa_guard_acquire
 1192              	.LVL86:
 1193 02b8 0028     		cmp	r0, #0
 1194 02ba 40F05082 		bne	.L175
 1195              	.L71:
 146:Core/Src/main.cpp **** 
 1196              		.loc 1 146 3 is_stmt 1 view .LVU227
 146:Core/Src/main.cpp **** 
 1197              		.loc 1 146 43 is_stmt 0 view .LVU228
 1198 02be 234B     		ldr	r3, .L185+100
 1199 02c0 1B68     		ldr	r3, [r3]
 1200 02c2 BFF35B8F 		dmb	ish
 146:Core/Src/main.cpp **** 
 1201              		.loc 1 146 43 discriminator 1 view .LVU229
 1202 02c6 13F0010F 		tst	r3, #1
 1203 02ca 05D1     		bne	.L72
 1204 02cc 1F48     		ldr	r0, .L185+100
 1205 02ce FFF7FEFF 		bl	__cxa_guard_acquire
 1206              	.LVL87:
 1207 02d2 0028     		cmp	r0, #0
 1208 02d4 40F05082 		bne	.L176
 1209              	.L72:
 149:Core/Src/main.cpp **** 
 1210              		.loc 1 149 3 is_stmt 1 view .LVU230
 149:Core/Src/main.cpp **** 
 1211              		.loc 1 149 64 is_stmt 0 view .LVU231
 1212 02d8 1D4B     		ldr	r3, .L185+104
 1213 02da 1B68     		ldr	r3, [r3]
 1214 02dc BFF35B8F 		dmb	ish
 149:Core/Src/main.cpp **** 
 1215              		.loc 1 149 64 discriminator 1 view .LVU232
 1216 02e0 13F0010F 		tst	r3, #1
 1217 02e4 3CD1     		bne	.L73
 1218 02e6 35E0     		b	.L186
 1219              	.L187:
 1220              		.align	2
 1221              	.L185:
 1222 02e8 00000000 		.word	_ZGVZ4mainE4AIN1
 1223 02ec 00000000 		.word	_ZGVZ4mainE4AIN2
ARM GAS  C:\Users\hanaj\AppData\Local\Temp\cczfNnLg.s 			page 48


 1224 02f0 00000000 		.word	_ZGVZ4mainE4BIN1
 1225 02f4 00000000 		.word	_ZGVZ4mainE4BIN2
 1226 02f8 00000000 		.word	_ZGVZ4mainE12SensorLED_FL
 1227 02fc 00000000 		.word	_ZGVZ4mainE12SensorLED_FR
 1228 0300 00000000 		.word	_ZGVZ4mainE11SensorLED_R
 1229 0304 00000000 		.word	_ZGVZ4mainE11SensorLED_L
 1230 0308 00000000 		.word	_ZGVZ4mainE6LED_FL
 1231 030c 00000000 		.word	_ZGVZ4mainE6LED_FR
 1232 0310 00000000 		.word	_ZGVZ4mainE5LED_R
 1233 0314 00000000 		.word	_ZGVZ4mainE5LED_L
 1234 0318 00000000 		.word	_ZGVZ4mainE8ModeLED1
 1235 031c 00000000 		.word	_ZGVZ4mainE8ModeLED2
 1236 0320 00000000 		.word	_ZGVZ4mainE8ModeLED3
 1237 0324 00000000 		.word	_ZGVZ4mainE10gpioButton
 1238 0328 00000000 		.word	_ZGVZ4mainE4Adc1
 1239 032c 00000000 		.word	_ZGVZ4mainE4Adc2
 1240 0330 00000000 		.word	_ZGVZ4mainE4Adc3
 1241 0334 00000000 		.word	_ZGVZ4mainE8pwmRight
 1242 0338 00000000 		.word	_ZGVZ4mainE7pwmLeft
 1243 033c 00000000 		.word	_ZGVZ4mainE12SuctionMotor
 1244 0340 00000000 		.word	_ZGVZ4mainE6Buzzer
 1245 0344 00000000 		.word	_ZGVZ4mainE12CalcDynamics
 1246 0348 00000000 		.word	_ZGVZ4mainE12EncoderRight
 1247 034c 00000000 		.word	_ZGVZ4mainE11EncoderLeft
 1248 0350 00000000 		.word	_ZGVZ4mainE4spi3
 1249              	.L186:
 1250 0354 A948     		ldr	r0, .L188
 1251 0356 FFF7FEFF 		bl	__cxa_guard_acquire
 1252              	.LVL88:
 1253 035a 0028     		cmp	r0, #0
 1254 035c 40F01982 		bne	.L177
 1255              	.L73:
 152:Core/Src/main.cpp ****   static LEDController LEDController(
 1256              		.loc 1 152 3 is_stmt 1 view .LVU233
 152:Core/Src/main.cpp ****   static LEDController LEDController(
 1257              		.loc 1 152 51 is_stmt 0 view .LVU234
 1258 0360 A74B     		ldr	r3, .L188+4
 1259 0362 1B68     		ldr	r3, [r3]
 1260 0364 BFF35B8F 		dmb	ish
 152:Core/Src/main.cpp ****   static LEDController LEDController(
 1261              		.loc 1 152 51 discriminator 1 view .LVU235
 1262 0368 13F0010F 		tst	r3, #1
 1263 036c 05D1     		bne	.L74
 1264 036e A448     		ldr	r0, .L188+4
 1265 0370 FFF7FEFF 		bl	__cxa_guard_acquire
 1266              	.LVL89:
 1267 0374 0028     		cmp	r0, #0
 1268 0376 40F01B82 		bne	.L178
 1269              	.L74:
 153:Core/Src/main.cpp ****       &SensorLED_FL,
 1270              		.loc 1 153 3 is_stmt 1 view .LVU236
 165:Core/Src/main.cpp ****   static Imu lsm6dsr(&spi3);
 1271              		.loc 1 165 3 is_stmt 0 view .LVU237
 1272 037a A24B     		ldr	r3, .L188+8
 1273 037c 1B68     		ldr	r3, [r3]
 1274 037e BFF35B8F 		dmb	ish
 165:Core/Src/main.cpp ****   static Imu lsm6dsr(&spi3);
ARM GAS  C:\Users\hanaj\AppData\Local\Temp\cczfNnLg.s 			page 49


 1275              		.loc 1 165 3 discriminator 1 view .LVU238
 1276 0382 13F0010F 		tst	r3, #1
 1277 0386 05D1     		bne	.L75
 1278 0388 9E48     		ldr	r0, .L188+8
 1279 038a FFF7FEFF 		bl	__cxa_guard_acquire
 1280              	.LVL90:
 1281 038e 0028     		cmp	r0, #0
 1282 0390 40F01882 		bne	.L179
 1283              	.L75:
 166:Core/Src/main.cpp ****   static PhotoSensor PhotoSensor(&hadc1, adcBuffer, 4);
 1284              		.loc 1 166 3 is_stmt 1 view .LVU239
 166:Core/Src/main.cpp ****   static PhotoSensor PhotoSensor(&hadc1, adcBuffer, 4);
 1285              		.loc 1 166 27 is_stmt 0 view .LVU240
 1286 0394 9C4B     		ldr	r3, .L188+12
 1287 0396 1B68     		ldr	r3, [r3]
 1288 0398 BFF35B8F 		dmb	ish
 166:Core/Src/main.cpp ****   static PhotoSensor PhotoSensor(&hadc1, adcBuffer, 4);
 1289              		.loc 1 166 27 discriminator 1 view .LVU241
 1290 039c 13F0010F 		tst	r3, #1
 1291 03a0 05D1     		bne	.L76
 1292 03a2 9948     		ldr	r0, .L188+12
 1293 03a4 FFF7FEFF 		bl	__cxa_guard_acquire
 1294              	.LVL91:
 1295 03a8 0028     		cmp	r0, #0
 1296 03aa 40F02582 		bne	.L180
 1297              	.L76:
 167:Core/Src/main.cpp **** 
 1298              		.loc 1 167 3 is_stmt 1 view .LVU242
 167:Core/Src/main.cpp **** 
 1299              		.loc 1 167 54 is_stmt 0 view .LVU243
 1300 03ae 974B     		ldr	r3, .L188+16
 1301 03b0 1B68     		ldr	r3, [r3]
 1302 03b2 BFF35B8F 		dmb	ish
 167:Core/Src/main.cpp **** 
 1303              		.loc 1 167 54 discriminator 1 view .LVU244
 1304 03b6 13F0010F 		tst	r3, #1
 1305 03ba 05D1     		bne	.L77
 1306 03bc 9348     		ldr	r0, .L188+16
 1307 03be FFF7FEFF 		bl	__cxa_guard_acquire
 1308              	.LVL92:
 1309 03c2 0028     		cmp	r0, #0
 1310 03c4 40F02082 		bne	.L181
 1311              	.L77:
 170:Core/Src/main.cpp ****       &pwmRight,
 1312              		.loc 1 170 3 is_stmt 1 view .LVU245
 175:Core/Src/main.cpp **** 
 1313              		.loc 1 175 3 is_stmt 0 view .LVU246
 1314 03c8 914B     		ldr	r3, .L188+20
 1315 03ca 1B68     		ldr	r3, [r3]
 1316 03cc BFF35B8F 		dmb	ish
 175:Core/Src/main.cpp **** 
 1317              		.loc 1 175 3 discriminator 1 view .LVU247
 1318 03d0 13F0010F 		tst	r3, #1
 1319 03d4 05D1     		bne	.L78
 1320 03d6 8E48     		ldr	r0, .L188+20
 1321 03d8 FFF7FEFF 		bl	__cxa_guard_acquire
 1322              	.LVL93:
ARM GAS  C:\Users\hanaj\AppData\Local\Temp\cczfNnLg.s 			page 50


 1323 03dc 0028     		cmp	r0, #0
 1324 03de 40F01D82 		bne	.L182
 1325              	.L78:
 178:Core/Src/main.cpp ****       &pwmLeft,
 1326              		.loc 1 178 3 is_stmt 1 view .LVU248
 183:Core/Src/main.cpp ****   /* USER CODE END 2 */
 1327              		.loc 1 183 3 is_stmt 0 view .LVU249
 1328 03e2 8C4B     		ldr	r3, .L188+24
 1329 03e4 1B68     		ldr	r3, [r3]
 1330 03e6 BFF35B8F 		dmb	ish
 183:Core/Src/main.cpp ****   /* USER CODE END 2 */
 1331              		.loc 1 183 3 discriminator 1 view .LVU250
 1332 03ea 13F0010F 		tst	r3, #1
 1333 03ee 40F02D82 		bne	.L83
 1334 03f2 8848     		ldr	r0, .L188+24
 1335 03f4 FFF7FEFF 		bl	__cxa_guard_acquire
 1336              	.LVL94:
 1337 03f8 0028     		cmp	r0, #0
 1338 03fa 00F02782 		beq	.L83
 183:Core/Src/main.cpp ****   /* USER CODE END 2 */
 1339              		.loc 1 183 3 discriminator 2 view .LVU251
 1340 03fe 9FED860A 		vldr.32	s0, .L188+28
 1341 0402 864B     		ldr	r3, .L188+32
 1342 0404 864A     		ldr	r2, .L188+36
 1343 0406 8749     		ldr	r1, .L188+40
 1344 0408 8748     		ldr	r0, .L188+44
 1345              	.LEHB1:
 1346 040a FFF7FEFF 		bl	_ZN11MotorDriverC1EP10PwmSTM32F4P11GpioSTM32F4S3_f
 1347              	.LVL95:
 1348              	.LEHE1:
 1349 040e 11E2     		b	.L183
 1350              	.L151:
 115:Core/Src/main.cpp ****   static GpioSTM32F4 AIN2(GPIOB, GPIO_PIN_14);
 1351              		.loc 1 115 45 discriminator 2 view .LVU252
 1352 0410 4FF40042 		mov	r2, #32768
 1353 0414 8549     		ldr	r1, .L188+48
 1354 0416 8648     		ldr	r0, .L188+52
 1355              	.LEHB2:
 1356 0418 FFF7FEFF 		bl	_ZN11GpioSTM32F4C1EP12GPIO_TypeDeft
 1357              	.LVL96:
 1358              	.LEHE2:
 115:Core/Src/main.cpp ****   static GpioSTM32F4 AIN2(GPIOB, GPIO_PIN_14);
 1359              		.loc 1 115 45 discriminator 4 view .LVU253
 1360 041c 854A     		ldr	r2, .L188+56
 1361 041e 8649     		ldr	r1, .L188+60
 1362 0420 8348     		ldr	r0, .L188+52
 1363 0422 FFF7FEFF 		bl	__aeabi_atexit
 1364              	.LVL97:
 115:Core/Src/main.cpp ****   static GpioSTM32F4 AIN2(GPIOB, GPIO_PIN_14);
 1365              		.loc 1 115 45 discriminator 1 view .LVU254
 1366 0426 8548     		ldr	r0, .L188+64
 1367 0428 FFF7FEFF 		bl	__cxa_guard_release
 1368              	.LVL98:
 1369 042c 0FE6     		b	.L47
 1370              	.L152:
 116:Core/Src/main.cpp ****   static GpioSTM32F4 BIN1(GPIOB, GPIO_PIN_5);
 1371              		.loc 1 116 45 discriminator 2 view .LVU255
ARM GAS  C:\Users\hanaj\AppData\Local\Temp\cczfNnLg.s 			page 51


 1372 042e 4FF48042 		mov	r2, #16384
 1373 0432 7E49     		ldr	r1, .L188+48
 1374 0434 8248     		ldr	r0, .L188+68
 1375              	.LEHB3:
 1376 0436 FFF7FEFF 		bl	_ZN11GpioSTM32F4C1EP12GPIO_TypeDeft
 1377              	.LVL99:
 1378              	.LEHE3:
 116:Core/Src/main.cpp ****   static GpioSTM32F4 BIN1(GPIOB, GPIO_PIN_5);
 1379              		.loc 1 116 45 discriminator 4 view .LVU256
 1380 043a 7E4A     		ldr	r2, .L188+56
 1381 043c 7E49     		ldr	r1, .L188+60
 1382 043e 8048     		ldr	r0, .L188+68
 1383 0440 FFF7FEFF 		bl	__aeabi_atexit
 1384              	.LVL100:
 116:Core/Src/main.cpp ****   static GpioSTM32F4 BIN1(GPIOB, GPIO_PIN_5);
 1385              		.loc 1 116 45 discriminator 1 view .LVU257
 1386 0444 7F48     		ldr	r0, .L188+72
 1387 0446 FFF7FEFF 		bl	__cxa_guard_release
 1388              	.LVL101:
 1389 044a 0DE6     		b	.L48
 1390              	.L153:
 117:Core/Src/main.cpp ****   static GpioSTM32F4 BIN2(GPIOB, GPIO_PIN_4);
 1391              		.loc 1 117 44 discriminator 2 view .LVU258
 1392 044c 2022     		movs	r2, #32
 1393 044e 7749     		ldr	r1, .L188+48
 1394 0450 7348     		ldr	r0, .L188+36
 1395              	.LEHB4:
 1396 0452 FFF7FEFF 		bl	_ZN11GpioSTM32F4C1EP12GPIO_TypeDeft
 1397              	.LVL102:
 1398              	.LEHE4:
 117:Core/Src/main.cpp ****   static GpioSTM32F4 BIN2(GPIOB, GPIO_PIN_4);
 1399              		.loc 1 117 44 discriminator 4 view .LVU259
 1400 0456 774A     		ldr	r2, .L188+56
 1401 0458 7749     		ldr	r1, .L188+60
 1402 045a 7148     		ldr	r0, .L188+36
 1403 045c FFF7FEFF 		bl	__aeabi_atexit
 1404              	.LVL103:
 117:Core/Src/main.cpp ****   static GpioSTM32F4 BIN2(GPIOB, GPIO_PIN_4);
 1405              		.loc 1 117 44 discriminator 1 view .LVU260
 1406 0460 7948     		ldr	r0, .L188+76
 1407 0462 FFF7FEFF 		bl	__cxa_guard_release
 1408              	.LVL104:
 1409 0466 0CE6     		b	.L49
 1410              	.L154:
 118:Core/Src/main.cpp ****   static GpioSTM32F4 SensorLED_FL(GPIOA, GPIO_PIN_12);
 1411              		.loc 1 118 44 discriminator 2 view .LVU261
 1412 0468 1022     		movs	r2, #16
 1413 046a 7049     		ldr	r1, .L188+48
 1414 046c 6B48     		ldr	r0, .L188+32
 1415              	.LEHB5:
 1416 046e FFF7FEFF 		bl	_ZN11GpioSTM32F4C1EP12GPIO_TypeDeft
 1417              	.LVL105:
 1418              	.LEHE5:
 118:Core/Src/main.cpp ****   static GpioSTM32F4 SensorLED_FL(GPIOA, GPIO_PIN_12);
 1419              		.loc 1 118 44 discriminator 4 view .LVU262
 1420 0472 704A     		ldr	r2, .L188+56
 1421 0474 7049     		ldr	r1, .L188+60
ARM GAS  C:\Users\hanaj\AppData\Local\Temp\cczfNnLg.s 			page 52


 1422 0476 6948     		ldr	r0, .L188+32
 1423 0478 FFF7FEFF 		bl	__aeabi_atexit
 1424              	.LVL106:
 118:Core/Src/main.cpp ****   static GpioSTM32F4 SensorLED_FL(GPIOA, GPIO_PIN_12);
 1425              		.loc 1 118 44 discriminator 1 view .LVU263
 1426 047c 7348     		ldr	r0, .L188+80
 1427 047e FFF7FEFF 		bl	__cxa_guard_release
 1428              	.LVL107:
 1429 0482 0BE6     		b	.L50
 1430              	.L155:
 119:Core/Src/main.cpp ****   static GpioSTM32F4 SensorLED_FR(GPIOA, GPIO_PIN_11);
 1431              		.loc 1 119 53 discriminator 2 view .LVU264
 1432 0484 4FF48052 		mov	r2, #4096
 1433 0488 7149     		ldr	r1, .L188+84
 1434 048a 7248     		ldr	r0, .L188+88
 1435              	.LEHB6:
 1436 048c FFF7FEFF 		bl	_ZN11GpioSTM32F4C1EP12GPIO_TypeDeft
 1437              	.LVL108:
 1438              	.LEHE6:
 119:Core/Src/main.cpp ****   static GpioSTM32F4 SensorLED_FR(GPIOA, GPIO_PIN_11);
 1439              		.loc 1 119 53 discriminator 4 view .LVU265
 1440 0490 684A     		ldr	r2, .L188+56
 1441 0492 6949     		ldr	r1, .L188+60
 1442 0494 6F48     		ldr	r0, .L188+88
 1443 0496 FFF7FEFF 		bl	__aeabi_atexit
 1444              	.LVL109:
 119:Core/Src/main.cpp ****   static GpioSTM32F4 SensorLED_FR(GPIOA, GPIO_PIN_11);
 1445              		.loc 1 119 53 discriminator 1 view .LVU266
 1446 049a 6F48     		ldr	r0, .L188+92
 1447 049c FFF7FEFF 		bl	__cxa_guard_release
 1448              	.LVL110:
 1449 04a0 09E6     		b	.L51
 1450              	.L156:
 120:Core/Src/main.cpp ****   static GpioSTM32F4 SensorLED_R(GPIOA, GPIO_PIN_10);
 1451              		.loc 1 120 53 discriminator 2 view .LVU267
 1452 04a2 4FF40062 		mov	r2, #2048
 1453 04a6 6A49     		ldr	r1, .L188+84
 1454 04a8 6C48     		ldr	r0, .L188+96
 1455              	.LEHB7:
 1456 04aa FFF7FEFF 		bl	_ZN11GpioSTM32F4C1EP12GPIO_TypeDeft
 1457              	.LVL111:
 1458              	.LEHE7:
 120:Core/Src/main.cpp ****   static GpioSTM32F4 SensorLED_R(GPIOA, GPIO_PIN_10);
 1459              		.loc 1 120 53 discriminator 4 view .LVU268
 1460 04ae 614A     		ldr	r2, .L188+56
 1461 04b0 6149     		ldr	r1, .L188+60
 1462 04b2 6A48     		ldr	r0, .L188+96
 1463 04b4 FFF7FEFF 		bl	__aeabi_atexit
 1464              	.LVL112:
 120:Core/Src/main.cpp ****   static GpioSTM32F4 SensorLED_R(GPIOA, GPIO_PIN_10);
 1465              		.loc 1 120 53 discriminator 1 view .LVU269
 1466 04b8 6948     		ldr	r0, .L188+100
 1467 04ba FFF7FEFF 		bl	__cxa_guard_release
 1468              	.LVL113:
 1469 04be 07E6     		b	.L52
 1470              	.L157:
 121:Core/Src/main.cpp ****   static GpioSTM32F4 SensorLED_L(GPIOC, GPIO_PIN_8);
ARM GAS  C:\Users\hanaj\AppData\Local\Temp\cczfNnLg.s 			page 53


 1471              		.loc 1 121 52 discriminator 2 view .LVU270
 1472 04c0 4FF48062 		mov	r2, #1024
 1473 04c4 6249     		ldr	r1, .L188+84
 1474 04c6 6748     		ldr	r0, .L188+104
 1475              	.LEHB8:
 1476 04c8 FFF7FEFF 		bl	_ZN11GpioSTM32F4C1EP12GPIO_TypeDeft
 1477              	.LVL114:
 1478              	.LEHE8:
 121:Core/Src/main.cpp ****   static GpioSTM32F4 SensorLED_L(GPIOC, GPIO_PIN_8);
 1479              		.loc 1 121 52 discriminator 4 view .LVU271
 1480 04cc 594A     		ldr	r2, .L188+56
 1481 04ce 5A49     		ldr	r1, .L188+60
 1482 04d0 6448     		ldr	r0, .L188+104
 1483 04d2 FFF7FEFF 		bl	__aeabi_atexit
 1484              	.LVL115:
 121:Core/Src/main.cpp ****   static GpioSTM32F4 SensorLED_L(GPIOC, GPIO_PIN_8);
 1485              		.loc 1 121 52 discriminator 1 view .LVU272
 1486 04d6 6448     		ldr	r0, .L188+108
 1487 04d8 FFF7FEFF 		bl	__cxa_guard_release
 1488              	.LVL116:
 1489 04dc 05E6     		b	.L53
 1490              	.L158:
 122:Core/Src/main.cpp ****   static GpioSTM32F4 LED_FL(GPIOA, GPIO_PIN_7);
 1491              		.loc 1 122 51 discriminator 2 view .LVU273
 1492 04de 4FF48072 		mov	r2, #256
 1493 04e2 6249     		ldr	r1, .L188+112
 1494 04e4 6248     		ldr	r0, .L188+116
 1495              	.LEHB9:
 1496 04e6 FFF7FEFF 		bl	_ZN11GpioSTM32F4C1EP12GPIO_TypeDeft
 1497              	.LVL117:
 1498              	.LEHE9:
 122:Core/Src/main.cpp ****   static GpioSTM32F4 LED_FL(GPIOA, GPIO_PIN_7);
 1499              		.loc 1 122 51 discriminator 4 view .LVU274
 1500 04ea 524A     		ldr	r2, .L188+56
 1501 04ec 5249     		ldr	r1, .L188+60
 1502 04ee 6048     		ldr	r0, .L188+116
 1503 04f0 FFF7FEFF 		bl	__aeabi_atexit
 1504              	.LVL118:
 122:Core/Src/main.cpp ****   static GpioSTM32F4 LED_FL(GPIOA, GPIO_PIN_7);
 1505              		.loc 1 122 51 discriminator 1 view .LVU275
 1506 04f4 5F48     		ldr	r0, .L188+120
 1507 04f6 FFF7FEFF 		bl	__cxa_guard_release
 1508              	.LVL119:
 1509 04fa 03E6     		b	.L54
 1510              	.L159:
 123:Core/Src/main.cpp ****   static GpioSTM32F4 LED_FR(GPIOC, GPIO_PIN_2);
 1511              		.loc 1 123 46 discriminator 2 view .LVU276
 1512 04fc 8022     		movs	r2, #128
 1513 04fe 5449     		ldr	r1, .L188+84
 1514 0500 5D48     		ldr	r0, .L188+124
 1515              	.LEHB10:
 1516 0502 FFF7FEFF 		bl	_ZN11GpioSTM32F4C1EP12GPIO_TypeDeft
 1517              	.LVL120:
 1518              	.LEHE10:
 123:Core/Src/main.cpp ****   static GpioSTM32F4 LED_FR(GPIOC, GPIO_PIN_2);
 1519              		.loc 1 123 46 discriminator 4 view .LVU277
 1520 0506 4B4A     		ldr	r2, .L188+56
ARM GAS  C:\Users\hanaj\AppData\Local\Temp\cczfNnLg.s 			page 54


 1521 0508 4B49     		ldr	r1, .L188+60
 1522 050a 5B48     		ldr	r0, .L188+124
 1523 050c FFF7FEFF 		bl	__aeabi_atexit
 1524              	.LVL121:
 123:Core/Src/main.cpp ****   static GpioSTM32F4 LED_FR(GPIOC, GPIO_PIN_2);
 1525              		.loc 1 123 46 discriminator 1 view .LVU278
 1526 0510 5A48     		ldr	r0, .L188+128
 1527 0512 FFF7FEFF 		bl	__cxa_guard_release
 1528              	.LVL122:
 1529 0516 02E6     		b	.L55
 1530              	.L160:
 124:Core/Src/main.cpp ****   static GpioSTM32F4 LED_R(GPIOC, GPIO_PIN_3);
 1531              		.loc 1 124 46 discriminator 2 view .LVU279
 1532 0518 0422     		movs	r2, #4
 1533 051a 5449     		ldr	r1, .L188+112
 1534 051c 5848     		ldr	r0, .L188+132
 1535              	.LEHB11:
 1536 051e FFF7FEFF 		bl	_ZN11GpioSTM32F4C1EP12GPIO_TypeDeft
 1537              	.LVL123:
 1538              	.LEHE11:
 124:Core/Src/main.cpp ****   static GpioSTM32F4 LED_R(GPIOC, GPIO_PIN_3);
 1539              		.loc 1 124 46 discriminator 4 view .LVU280
 1540 0522 444A     		ldr	r2, .L188+56
 1541 0524 4449     		ldr	r1, .L188+60
 1542 0526 5648     		ldr	r0, .L188+132
 1543 0528 FFF7FEFF 		bl	__aeabi_atexit
 1544              	.LVL124:
 124:Core/Src/main.cpp ****   static GpioSTM32F4 LED_R(GPIOC, GPIO_PIN_3);
 1545              		.loc 1 124 46 discriminator 1 view .LVU281
 1546 052c 5548     		ldr	r0, .L188+136
 1547 052e FFF7FEFF 		bl	__cxa_guard_release
 1548              	.LVL125:
 1549 0532 01E6     		b	.L56
 1550              	.L161:
 125:Core/Src/main.cpp ****   static GpioSTM32F4 LED_L(GPIOA, GPIO_PIN_8);
 1551              		.loc 1 125 45 discriminator 2 view .LVU282
 1552 0534 0822     		movs	r2, #8
 1553 0536 4D49     		ldr	r1, .L188+112
 1554 0538 5348     		ldr	r0, .L188+140
 1555              	.LEHB12:
 1556 053a FFF7FEFF 		bl	_ZN11GpioSTM32F4C1EP12GPIO_TypeDeft
 1557              	.LVL126:
 1558              	.LEHE12:
 125:Core/Src/main.cpp ****   static GpioSTM32F4 LED_L(GPIOA, GPIO_PIN_8);
 1559              		.loc 1 125 45 discriminator 4 view .LVU283
 1560 053e 3D4A     		ldr	r2, .L188+56
 1561 0540 3D49     		ldr	r1, .L188+60
 1562 0542 5148     		ldr	r0, .L188+140
 1563 0544 FFF7FEFF 		bl	__aeabi_atexit
 1564              	.LVL127:
 125:Core/Src/main.cpp ****   static GpioSTM32F4 LED_L(GPIOA, GPIO_PIN_8);
 1565              		.loc 1 125 45 discriminator 1 view .LVU284
 1566 0548 5048     		ldr	r0, .L188+144
 1567 054a FFF7FEFF 		bl	__cxa_guard_release
 1568              	.LVL128:
 1569 054e 00E6     		b	.L57
 1570              	.L162:
ARM GAS  C:\Users\hanaj\AppData\Local\Temp\cczfNnLg.s 			page 55


 126:Core/Src/main.cpp ****   static GpioSTM32F4 ModeLED1(GPIOA, GPIO_PIN_15);
 1571              		.loc 1 126 45 discriminator 2 view .LVU285
 1572 0550 4FF48072 		mov	r2, #256
 1573 0554 3E49     		ldr	r1, .L188+84
 1574 0556 4E48     		ldr	r0, .L188+148
 1575              	.LEHB13:
 1576 0558 FFF7FEFF 		bl	_ZN11GpioSTM32F4C1EP12GPIO_TypeDeft
 1577              	.LVL129:
 1578              	.LEHE13:
 126:Core/Src/main.cpp ****   static GpioSTM32F4 ModeLED1(GPIOA, GPIO_PIN_15);
 1579              		.loc 1 126 45 discriminator 4 view .LVU286
 1580 055c 354A     		ldr	r2, .L188+56
 1581 055e 3649     		ldr	r1, .L188+60
 1582 0560 4B48     		ldr	r0, .L188+148
 1583 0562 FFF7FEFF 		bl	__aeabi_atexit
 1584              	.LVL130:
 126:Core/Src/main.cpp ****   static GpioSTM32F4 ModeLED1(GPIOA, GPIO_PIN_15);
 1585              		.loc 1 126 45 discriminator 1 view .LVU287
 1586 0566 4B48     		ldr	r0, .L188+152
 1587 0568 FFF7FEFF 		bl	__cxa_guard_release
 1588              	.LVL131:
 1589 056c FEE5     		b	.L58
 1590              	.L163:
 127:Core/Src/main.cpp ****   static GpioSTM32F4 ModeLED2(GPIOB, GPIO_PIN_0);
 1591              		.loc 1 127 49 discriminator 2 view .LVU288
 1592 056e 4FF40042 		mov	r2, #32768
 1593 0572 3749     		ldr	r1, .L188+84
 1594 0574 4848     		ldr	r0, .L188+156
 1595              	.LEHB14:
 1596 0576 FFF7FEFF 		bl	_ZN11GpioSTM32F4C1EP12GPIO_TypeDeft
 1597              	.LVL132:
 1598              	.LEHE14:
 127:Core/Src/main.cpp ****   static GpioSTM32F4 ModeLED2(GPIOB, GPIO_PIN_0);
 1599              		.loc 1 127 49 discriminator 4 view .LVU289
 1600 057a 2E4A     		ldr	r2, .L188+56
 1601 057c 2E49     		ldr	r1, .L188+60
 1602 057e 4648     		ldr	r0, .L188+156
 1603 0580 FFF7FEFF 		bl	__aeabi_atexit
 1604              	.LVL133:
 127:Core/Src/main.cpp ****   static GpioSTM32F4 ModeLED2(GPIOB, GPIO_PIN_0);
 1605              		.loc 1 127 49 discriminator 1 view .LVU290
 1606 0584 4548     		ldr	r0, .L188+160
 1607 0586 FFF7FEFF 		bl	__cxa_guard_release
 1608              	.LVL134:
 1609 058a FCE5     		b	.L59
 1610              	.L164:
 128:Core/Src/main.cpp ****   static GpioSTM32F4 ModeLED3(GPIOB, GPIO_PIN_1);
 1611              		.loc 1 128 48 discriminator 2 view .LVU291
 1612 058c 0122     		movs	r2, #1
 1613 058e 2749     		ldr	r1, .L188+48
 1614 0590 4348     		ldr	r0, .L188+164
 1615              	.LEHB15:
 1616 0592 FFF7FEFF 		bl	_ZN11GpioSTM32F4C1EP12GPIO_TypeDeft
 1617              	.LVL135:
 1618              	.LEHE15:
 128:Core/Src/main.cpp ****   static GpioSTM32F4 ModeLED3(GPIOB, GPIO_PIN_1);
 1619              		.loc 1 128 48 discriminator 4 view .LVU292
ARM GAS  C:\Users\hanaj\AppData\Local\Temp\cczfNnLg.s 			page 56


 1620 0596 274A     		ldr	r2, .L188+56
 1621 0598 2749     		ldr	r1, .L188+60
 1622 059a 4148     		ldr	r0, .L188+164
 1623 059c FFF7FEFF 		bl	__aeabi_atexit
 1624              	.LVL136:
 128:Core/Src/main.cpp ****   static GpioSTM32F4 ModeLED3(GPIOB, GPIO_PIN_1);
 1625              		.loc 1 128 48 discriminator 1 view .LVU293
 1626 05a0 4048     		ldr	r0, .L188+168
 1627 05a2 FFF7FEFF 		bl	__cxa_guard_release
 1628              	.LVL137:
 1629 05a6 FBE5     		b	.L60
 1630              	.L165:
 129:Core/Src/main.cpp ****   static GpioSTM32F4 gpioButton(GPIOC, GPIO_PIN_5);
 1631              		.loc 1 129 48 discriminator 2 view .LVU294
 1632 05a8 0222     		movs	r2, #2
 1633 05aa 2049     		ldr	r1, .L188+48
 1634 05ac 3E48     		ldr	r0, .L188+172
 1635              	.LEHB16:
 1636 05ae FFF7FEFF 		bl	_ZN11GpioSTM32F4C1EP12GPIO_TypeDeft
 1637              	.LVL138:
 1638              	.LEHE16:
 129:Core/Src/main.cpp ****   static GpioSTM32F4 gpioButton(GPIOC, GPIO_PIN_5);
 1639              		.loc 1 129 48 discriminator 4 view .LVU295
 1640 05b2 204A     		ldr	r2, .L188+56
 1641 05b4 2049     		ldr	r1, .L188+60
 1642 05b6 3C48     		ldr	r0, .L188+172
 1643 05b8 FFF7FEFF 		bl	__aeabi_atexit
 1644              	.LVL139:
 129:Core/Src/main.cpp ****   static GpioSTM32F4 gpioButton(GPIOC, GPIO_PIN_5);
 1645              		.loc 1 129 48 discriminator 1 view .LVU296
 1646 05bc 3B48     		ldr	r0, .L188+176
 1647 05be FFF7FEFF 		bl	__cxa_guard_release
 1648              	.LVL140:
 1649 05c2 FAE5     		b	.L61
 1650              	.L166:
 130:Core/Src/main.cpp **** 
 1651              		.loc 1 130 50 discriminator 2 view .LVU297
 1652 05c4 2022     		movs	r2, #32
 1653 05c6 2949     		ldr	r1, .L188+112
 1654 05c8 3948     		ldr	r0, .L188+180
 1655              	.LEHB17:
 1656 05ca FFF7FEFF 		bl	_ZN11GpioSTM32F4C1EP12GPIO_TypeDeft
 1657              	.LVL141:
 1658              	.LEHE17:
 130:Core/Src/main.cpp **** 
 1659              		.loc 1 130 50 discriminator 4 view .LVU298
 1660 05ce 194A     		ldr	r2, .L188+56
 1661 05d0 1949     		ldr	r1, .L188+60
 1662 05d2 3748     		ldr	r0, .L188+180
 1663 05d4 FFF7FEFF 		bl	__aeabi_atexit
 1664              	.LVL142:
 130:Core/Src/main.cpp **** 
 1665              		.loc 1 130 50 discriminator 1 view .LVU299
 1666 05d8 3648     		ldr	r0, .L188+184
 1667 05da FFF7FEFF 		bl	__cxa_guard_release
 1668              	.LVL143:
 1669 05de F9E5     		b	.L62
ARM GAS  C:\Users\hanaj\AppData\Local\Temp\cczfNnLg.s 			page 57


 1670              	.L167:
 133:Core/Src/main.cpp ****   static AdcSTM32F4 Adc2(&hadc2);
 1671              		.loc 1 133 32 discriminator 2 view .LVU300
 1672 05e0 3549     		ldr	r1, .L188+188
 1673 05e2 3648     		ldr	r0, .L188+192
 1674              	.LEHB18:
 1675 05e4 FFF7FEFF 		bl	_ZN10AdcSTM32F4C1EP17ADC_HandleTypeDef
 1676              	.LVL144:
 1677              	.LEHE18:
 133:Core/Src/main.cpp ****   static AdcSTM32F4 Adc2(&hadc2);
 1678              		.loc 1 133 32 discriminator 4 view .LVU301
 1679 05e8 124A     		ldr	r2, .L188+56
 1680 05ea 3549     		ldr	r1, .L188+196
 1681 05ec 3348     		ldr	r0, .L188+192
 1682 05ee FFF7FEFF 		bl	__aeabi_atexit
 1683              	.LVL145:
 133:Core/Src/main.cpp ****   static AdcSTM32F4 Adc2(&hadc2);
 1684              		.loc 1 133 32 discriminator 1 view .LVU302
 1685 05f2 3448     		ldr	r0, .L188+200
 1686 05f4 FFF7FEFF 		bl	__cxa_guard_release
 1687              	.LVL146:
 1688 05f8 F9E5     		b	.L63
 1689              	.L189:
 1690 05fa 00BF     		.align	2
 1691              	.L188:
 1692 05fc 00000000 		.word	_ZGVZ4mainE4spi3
 1693 0600 00000000 		.word	_ZGVZ4mainE16ModeChangeButton
 1694 0604 00000000 		.word	_ZGVZ4mainE13LEDController
 1695 0608 00000000 		.word	_ZGVZ4mainE7lsm6dsr
 1696 060c 00000000 		.word	_ZGVZ4mainE11PhotoSensor
 1697 0610 00000000 		.word	_ZGVZ4mainE10RightMotor
 1698 0614 00000000 		.word	_ZGVZ4mainE9LeftMotor
 1699 0618 00005244 		.word	1146224640
 1700 061c 00000000 		.word	_ZZ4mainE4BIN2
 1701 0620 00000000 		.word	_ZZ4mainE4BIN1
 1702 0624 00000000 		.word	_ZZ4mainE7pwmLeft
 1703 0628 00000000 		.word	_ZZ4mainE9LeftMotor
 1704 062c 00040240 		.word	1073873920
 1705 0630 00000000 		.word	_ZZ4mainE4AIN1
 1706 0634 00000000 		.word	__dso_handle
 1707 0638 00000000 		.word	_ZN11GpioSTM32F4D1Ev
 1708 063c 00000000 		.word	_ZGVZ4mainE4AIN1
 1709 0640 00000000 		.word	_ZZ4mainE4AIN2
 1710 0644 00000000 		.word	_ZGVZ4mainE4AIN2
 1711 0648 00000000 		.word	_ZGVZ4mainE4BIN1
 1712 064c 00000000 		.word	_ZGVZ4mainE4BIN2
 1713 0650 00000240 		.word	1073872896
 1714 0654 00000000 		.word	_ZZ4mainE12SensorLED_FL
 1715 0658 00000000 		.word	_ZGVZ4mainE12SensorLED_FL
 1716 065c 00000000 		.word	_ZZ4mainE12SensorLED_FR
 1717 0660 00000000 		.word	_ZGVZ4mainE12SensorLED_FR
 1718 0664 00000000 		.word	_ZZ4mainE11SensorLED_R
 1719 0668 00000000 		.word	_ZGVZ4mainE11SensorLED_R
 1720 066c 00080240 		.word	1073874944
 1721 0670 00000000 		.word	_ZZ4mainE11SensorLED_L
 1722 0674 00000000 		.word	_ZGVZ4mainE11SensorLED_L
 1723 0678 00000000 		.word	_ZZ4mainE6LED_FL
ARM GAS  C:\Users\hanaj\AppData\Local\Temp\cczfNnLg.s 			page 58


 1724 067c 00000000 		.word	_ZGVZ4mainE6LED_FL
 1725 0680 00000000 		.word	_ZZ4mainE6LED_FR
 1726 0684 00000000 		.word	_ZGVZ4mainE6LED_FR
 1727 0688 00000000 		.word	_ZZ4mainE5LED_R
 1728 068c 00000000 		.word	_ZGVZ4mainE5LED_R
 1729 0690 00000000 		.word	_ZZ4mainE5LED_L
 1730 0694 00000000 		.word	_ZGVZ4mainE5LED_L
 1731 0698 00000000 		.word	_ZZ4mainE8ModeLED1
 1732 069c 00000000 		.word	_ZGVZ4mainE8ModeLED1
 1733 06a0 00000000 		.word	_ZZ4mainE8ModeLED2
 1734 06a4 00000000 		.word	_ZGVZ4mainE8ModeLED2
 1735 06a8 00000000 		.word	_ZZ4mainE8ModeLED3
 1736 06ac 00000000 		.word	_ZGVZ4mainE8ModeLED3
 1737 06b0 00000000 		.word	_ZZ4mainE10gpioButton
 1738 06b4 00000000 		.word	_ZGVZ4mainE10gpioButton
 1739 06b8 00000000 		.word	hadc1
 1740 06bc 00000000 		.word	_ZZ4mainE4Adc1
 1741 06c0 00000000 		.word	_ZN10AdcSTM32F4D1Ev
 1742 06c4 00000000 		.word	_ZGVZ4mainE4Adc1
 1743              	.L168:
 134:Core/Src/main.cpp ****   static AdcSTM32F4 Adc3(&hadc3);
 1744              		.loc 1 134 32 discriminator 2 view .LVU303
 1745 06c8 B449     		ldr	r1, .L190
 1746 06ca B548     		ldr	r0, .L190+4
 1747              	.LEHB19:
 1748 06cc FFF7FEFF 		bl	_ZN10AdcSTM32F4C1EP17ADC_HandleTypeDef
 1749              	.LVL147:
 1750              	.LEHE19:
 134:Core/Src/main.cpp ****   static AdcSTM32F4 Adc3(&hadc3);
 1751              		.loc 1 134 32 discriminator 4 view .LVU304
 1752 06d0 B44A     		ldr	r2, .L190+8
 1753 06d2 B549     		ldr	r1, .L190+12
 1754 06d4 B248     		ldr	r0, .L190+4
 1755 06d6 FFF7FEFF 		bl	__aeabi_atexit
 1756              	.LVL148:
 134:Core/Src/main.cpp ****   static AdcSTM32F4 Adc3(&hadc3);
 1757              		.loc 1 134 32 discriminator 1 view .LVU305
 1758 06da B448     		ldr	r0, .L190+16
 1759 06dc FFF7FEFF 		bl	__cxa_guard_release
 1760              	.LVL149:
 1761 06e0 92E5     		b	.L64
 1762              	.L169:
 135:Core/Src/main.cpp **** 
 1763              		.loc 1 135 32 discriminator 2 view .LVU306
 1764 06e2 B349     		ldr	r1, .L190+20
 1765 06e4 B348     		ldr	r0, .L190+24
 1766              	.LEHB20:
 1767 06e6 FFF7FEFF 		bl	_ZN10AdcSTM32F4C1EP17ADC_HandleTypeDef
 1768              	.LVL150:
 1769              	.LEHE20:
 135:Core/Src/main.cpp **** 
 1770              		.loc 1 135 32 discriminator 4 view .LVU307
 1771 06ea AE4A     		ldr	r2, .L190+8
 1772 06ec AE49     		ldr	r1, .L190+12
 1773 06ee B148     		ldr	r0, .L190+24
 1774 06f0 FFF7FEFF 		bl	__aeabi_atexit
 1775              	.LVL151:
ARM GAS  C:\Users\hanaj\AppData\Local\Temp\cczfNnLg.s 			page 59


 135:Core/Src/main.cpp **** 
 1776              		.loc 1 135 32 discriminator 1 view .LVU308
 1777 06f4 B048     		ldr	r0, .L190+28
 1778 06f6 FFF7FEFF 		bl	__cxa_guard_release
 1779              	.LVL152:
 1780 06fa 92E5     		b	.L65
 1781              	.L170:
 138:Core/Src/main.cpp ****   static PwmSTM32F4 pwmLeft(&htim11, TIM_CHANNEL_1);
 1782              		.loc 1 138 51 discriminator 2 view .LVU309
 1783 06fc 0022     		movs	r2, #0
 1784 06fe AF49     		ldr	r1, .L190+32
 1785 0700 AF48     		ldr	r0, .L190+36
 1786              	.LEHB21:
 1787 0702 FFF7FEFF 		bl	_ZN10PwmSTM32F4C1EP17TIM_HandleTypeDefm
 1788              	.LVL153:
 1789              	.LEHE21:
 138:Core/Src/main.cpp ****   static PwmSTM32F4 pwmLeft(&htim11, TIM_CHANNEL_1);
 1790              		.loc 1 138 51 discriminator 4 view .LVU310
 1791 0706 AF48     		ldr	r0, .L190+40
 1792 0708 FFF7FEFF 		bl	__cxa_guard_release
 1793              	.LVL154:
 1794 070c 96E5     		b	.L66
 1795              	.L171:
 139:Core/Src/main.cpp ****   static PwmSTM32F4 SuctionMotor(&htim10, TIM_CHANNEL_1);
 1796              		.loc 1 139 51 discriminator 2 view .LVU311
 1797 070e 0022     		movs	r2, #0
 1798 0710 AD49     		ldr	r1, .L190+44
 1799 0712 AE48     		ldr	r0, .L190+48
 1800              	.LEHB22:
 1801 0714 FFF7FEFF 		bl	_ZN10PwmSTM32F4C1EP17TIM_HandleTypeDefm
 1802              	.LVL155:
 1803              	.LEHE22:
 139:Core/Src/main.cpp ****   static PwmSTM32F4 SuctionMotor(&htim10, TIM_CHANNEL_1);
 1804              		.loc 1 139 51 discriminator 4 view .LVU312
 1805 0718 AD48     		ldr	r0, .L190+52
 1806 071a FFF7FEFF 		bl	__cxa_guard_release
 1807              	.LVL156:
 1808 071e 9AE5     		b	.L67
 1809              	.L172:
 140:Core/Src/main.cpp ****   static PwmSTM32F4 Buzzer(&htim2, TIM_CHANNEL_1);
 1810              		.loc 1 140 56 discriminator 2 view .LVU313
 1811 0720 0022     		movs	r2, #0
 1812 0722 AC49     		ldr	r1, .L190+56
 1813 0724 AC48     		ldr	r0, .L190+60
 1814              	.LEHB23:
 1815 0726 FFF7FEFF 		bl	_ZN10PwmSTM32F4C1EP17TIM_HandleTypeDefm
 1816              	.LVL157:
 1817              	.LEHE23:
 140:Core/Src/main.cpp ****   static PwmSTM32F4 Buzzer(&htim2, TIM_CHANNEL_1);
 1818              		.loc 1 140 56 discriminator 4 view .LVU314
 1819 072a AC48     		ldr	r0, .L190+64
 1820 072c FFF7FEFF 		bl	__cxa_guard_release
 1821              	.LVL158:
 1822 0730 9EE5     		b	.L68
 1823              	.L173:
 141:Core/Src/main.cpp **** 
 1824              		.loc 1 141 49 discriminator 2 view .LVU315
ARM GAS  C:\Users\hanaj\AppData\Local\Temp\cczfNnLg.s 			page 60


 1825 0732 0022     		movs	r2, #0
 1826 0734 AA49     		ldr	r1, .L190+68
 1827 0736 AB48     		ldr	r0, .L190+72
 1828              	.LEHB24:
 1829 0738 FFF7FEFF 		bl	_ZN10PwmSTM32F4C1EP17TIM_HandleTypeDefm
 1830              	.LVL159:
 1831              	.LEHE24:
 141:Core/Src/main.cpp **** 
 1832              		.loc 1 141 49 discriminator 4 view .LVU316
 1833 073c AA48     		ldr	r0, .L190+76
 1834 073e FFF7FEFF 		bl	__cxa_guard_release
 1835              	.LVL160:
 1836 0742 A2E5     		b	.L69
 1837              	.L174:
 144:Core/Src/main.cpp ****   static EncoderSTM32F4 EncoderRight(&htim3);
 1838              		.loc 1 144 42 discriminator 2 view .LVU317
 1839 0744 A949     		ldr	r1, .L190+80
 1840 0746 AA48     		ldr	r0, .L190+84
 1841              	.LEHB25:
 1842 0748 FFF7FEFF 		bl	_ZN12TimerSTM32F4C1EP17TIM_HandleTypeDef
 1843              	.LVL161:
 1844              	.LEHE25:
 144:Core/Src/main.cpp ****   static EncoderSTM32F4 EncoderRight(&htim3);
 1845              		.loc 1 144 42 discriminator 4 view .LVU318
 1846 074c 954A     		ldr	r2, .L190+8
 1847 074e A949     		ldr	r1, .L190+88
 1848 0750 A748     		ldr	r0, .L190+84
 1849 0752 FFF7FEFF 		bl	__aeabi_atexit
 1850              	.LVL162:
 144:Core/Src/main.cpp ****   static EncoderSTM32F4 EncoderRight(&htim3);
 1851              		.loc 1 144 42 discriminator 1 view .LVU319
 1852 0756 A848     		ldr	r0, .L190+92
 1853 0758 FFF7FEFF 		bl	__cxa_guard_release
 1854              	.LVL163:
 1855 075c A2E5     		b	.L70
 1856              	.L175:
 145:Core/Src/main.cpp ****   static EncoderSTM32F4 EncoderLeft(&htim4);
 1857              		.loc 1 145 44 discriminator 2 view .LVU320
 1858 075e A749     		ldr	r1, .L190+96
 1859 0760 A748     		ldr	r0, .L190+100
 1860              	.LEHB26:
 1861 0762 FFF7FEFF 		bl	_ZN14EncoderSTM32F4C1EP17TIM_HandleTypeDef
 1862              	.LVL164:
 1863              	.LEHE26:
 145:Core/Src/main.cpp ****   static EncoderSTM32F4 EncoderLeft(&htim4);
 1864              		.loc 1 145 44 discriminator 4 view .LVU321
 1865 0766 8F4A     		ldr	r2, .L190+8
 1866 0768 A649     		ldr	r1, .L190+104
 1867 076a A548     		ldr	r0, .L190+100
 1868 076c FFF7FEFF 		bl	__aeabi_atexit
 1869              	.LVL165:
 145:Core/Src/main.cpp ****   static EncoderSTM32F4 EncoderLeft(&htim4);
 1870              		.loc 1 145 44 discriminator 1 view .LVU322
 1871 0770 A548     		ldr	r0, .L190+108
 1872 0772 FFF7FEFF 		bl	__cxa_guard_release
 1873              	.LVL166:
 1874 0776 A2E5     		b	.L71
ARM GAS  C:\Users\hanaj\AppData\Local\Temp\cczfNnLg.s 			page 61


 1875              	.L176:
 146:Core/Src/main.cpp **** 
 1876              		.loc 1 146 43 discriminator 2 view .LVU323
 1877 0778 A449     		ldr	r1, .L190+112
 1878 077a A548     		ldr	r0, .L190+116
 1879              	.LEHB27:
 1880 077c FFF7FEFF 		bl	_ZN14EncoderSTM32F4C1EP17TIM_HandleTypeDef
 1881              	.LVL167:
 1882              	.LEHE27:
 146:Core/Src/main.cpp **** 
 1883              		.loc 1 146 43 discriminator 4 view .LVU324
 1884 0780 884A     		ldr	r2, .L190+8
 1885 0782 A049     		ldr	r1, .L190+104
 1886 0784 A248     		ldr	r0, .L190+116
 1887 0786 FFF7FEFF 		bl	__aeabi_atexit
 1888              	.LVL168:
 146:Core/Src/main.cpp **** 
 1889              		.loc 1 146 43 discriminator 1 view .LVU325
 1890 078a A248     		ldr	r0, .L190+120
 1891 078c FFF7FEFF 		bl	__cxa_guard_release
 1892              	.LVL169:
 1893 0790 A2E5     		b	.L72
 1894              	.L177:
 149:Core/Src/main.cpp **** 
 1895              		.loc 1 149 64 discriminator 2 view .LVU326
 1896 0792 1023     		movs	r3, #16
 1897 0794 A04A     		ldr	r2, .L190+124
 1898 0796 A149     		ldr	r1, .L190+128
 1899 0798 A148     		ldr	r0, .L190+132
 1900              	.LEHB28:
 1901 079a FFF7FEFF 		bl	_ZN10SPISTM32F4C1EP19__SPI_HandleTypeDefP12GPIO_TypeDeft
 1902              	.LVL170:
 1903              	.LEHE28:
 149:Core/Src/main.cpp **** 
 1904              		.loc 1 149 64 discriminator 4 view .LVU327
 1905 079e 814A     		ldr	r2, .L190+8
 1906 07a0 A049     		ldr	r1, .L190+136
 1907 07a2 9F48     		ldr	r0, .L190+132
 1908 07a4 FFF7FEFF 		bl	__aeabi_atexit
 1909              	.LVL171:
 149:Core/Src/main.cpp **** 
 1910              		.loc 1 149 64 discriminator 1 view .LVU328
 1911 07a8 9F48     		ldr	r0, .L190+140
 1912 07aa FFF7FEFF 		bl	__cxa_guard_release
 1913              	.LVL172:
 1914 07ae D7E5     		b	.L73
 1915              	.L178:
 152:Core/Src/main.cpp ****   static LEDController LEDController(
 1916              		.loc 1 152 51 discriminator 2 view .LVU329
 1917 07b0 4FF47A72 		mov	r2, #1000
 1918 07b4 9D49     		ldr	r1, .L190+144
 1919 07b6 9E48     		ldr	r0, .L190+148
 1920              	.LEHB29:
 1921 07b8 FFF7FEFF 		bl	_ZN6ButtonC1EP5IGpiom
 1922              	.LVL173:
 1923              	.LEHE29:
 152:Core/Src/main.cpp ****   static LEDController LEDController(
ARM GAS  C:\Users\hanaj\AppData\Local\Temp\cczfNnLg.s 			page 62


 1924              		.loc 1 152 51 discriminator 4 view .LVU330
 1925 07bc 9D48     		ldr	r0, .L190+152
 1926 07be FFF7FEFF 		bl	__cxa_guard_release
 1927              	.LVL174:
 1928 07c2 DAE5     		b	.L74
 1929              	.L179:
 165:Core/Src/main.cpp ****   static Imu lsm6dsr(&spi3);
 1930              		.loc 1 165 3 discriminator 2 view .LVU331
 1931 07c4 9C4B     		ldr	r3, .L190+156
 1932 07c6 0793     		str	r3, [sp, #28]
 1933 07c8 9C4B     		ldr	r3, .L190+160
 1934 07ca 0693     		str	r3, [sp, #24]
 1935 07cc 9C4B     		ldr	r3, .L190+164
 1936 07ce 0593     		str	r3, [sp, #20]
 1937 07d0 9C4B     		ldr	r3, .L190+168
 1938 07d2 0493     		str	r3, [sp, #16]
 1939 07d4 9C4B     		ldr	r3, .L190+172
 1940 07d6 0393     		str	r3, [sp, #12]
 1941 07d8 9C4B     		ldr	r3, .L190+176
 1942 07da 0293     		str	r3, [sp, #8]
 1943 07dc 9C4B     		ldr	r3, .L190+180
 1944 07de 0193     		str	r3, [sp, #4]
 1945 07e0 9C4B     		ldr	r3, .L190+184
 1946 07e2 0093     		str	r3, [sp]
 1947 07e4 9C4B     		ldr	r3, .L190+188
 1948 07e6 9D4A     		ldr	r2, .L190+192
 1949 07e8 9D49     		ldr	r1, .L190+196
 1950 07ea 9E48     		ldr	r0, .L190+200
 1951              	.LEHB30:
 1952 07ec FFF7FEFF 		bl	_ZN13LEDControllerC1EP11GpioSTM32F4S1_S1_S1_S1_S1_S1_S1_S1_S1_S1_
 1953              	.LVL175:
 1954              	.LEHE30:
 165:Core/Src/main.cpp ****   static Imu lsm6dsr(&spi3);
 1955              		.loc 1 165 3 discriminator 4 view .LVU332
 1956 07f0 9D48     		ldr	r0, .L190+204
 1957 07f2 FFF7FEFF 		bl	__cxa_guard_release
 1958              	.LVL176:
 1959 07f6 CDE5     		b	.L75
 1960              	.L180:
 166:Core/Src/main.cpp ****   static PhotoSensor PhotoSensor(&hadc1, adcBuffer, 4);
 1961              		.loc 1 166 27 discriminator 2 view .LVU333
 1962 07f8 8949     		ldr	r1, .L190+132
 1963 07fa 9C48     		ldr	r0, .L190+208
 1964              	.LEHB31:
 1965 07fc FFF7FEFF 		bl	_ZN3ImuC1EP10SPISTM32F4
 1966              	.LVL177:
 1967              	.LEHE31:
 166:Core/Src/main.cpp ****   static PhotoSensor PhotoSensor(&hadc1, adcBuffer, 4);
 1968              		.loc 1 166 27 discriminator 4 view .LVU334
 1969 0800 9B48     		ldr	r0, .L190+212
 1970 0802 FFF7FEFF 		bl	__cxa_guard_release
 1971              	.LVL178:
 1972 0806 D2E5     		b	.L76
 1973              	.L181:
 167:Core/Src/main.cpp **** 
 1974              		.loc 1 167 54 discriminator 2 view .LVU335
 1975 0808 0423     		movs	r3, #4
ARM GAS  C:\Users\hanaj\AppData\Local\Temp\cczfNnLg.s 			page 63


 1976 080a 9A4A     		ldr	r2, .L190+216
 1977 080c 9A49     		ldr	r1, .L190+220
 1978 080e 9B48     		ldr	r0, .L190+224
 1979              	.LEHB32:
 1980 0810 FFF7FEFF 		bl	_ZN11PhotoSensorC1EP17ADC_HandleTypeDefPtm
 1981              	.LVL179:
 1982              	.LEHE32:
 167:Core/Src/main.cpp **** 
 1983              		.loc 1 167 54 discriminator 4 view .LVU336
 1984 0814 9A48     		ldr	r0, .L190+228
 1985 0816 FFF7FEFF 		bl	__cxa_guard_release
 1986              	.LVL180:
 1987 081a D5E5     		b	.L77
 1988              	.L182:
 175:Core/Src/main.cpp **** 
 1989              		.loc 1 175 3 discriminator 2 view .LVU337
 1990 081c 9FED990A 		vldr.32	s0, .L190+232
 1991 0820 994B     		ldr	r3, .L190+236
 1992 0822 9A4A     		ldr	r2, .L190+240
 1993 0824 6649     		ldr	r1, .L190+36
 1994 0826 9A48     		ldr	r0, .L190+244
 1995              	.LEHB33:
 1996 0828 FFF7FEFF 		bl	_ZN11MotorDriverC1EP10PwmSTM32F4P11GpioSTM32F4S3_f
 1997              	.LVL181:
 1998              	.LEHE33:
 175:Core/Src/main.cpp **** 
 1999              		.loc 1 175 3 discriminator 4 view .LVU338
 2000 082c 9948     		ldr	r0, .L190+248
 2001 082e FFF7FEFF 		bl	__cxa_guard_release
 2002              	.LVL182:
 2003 0832 D6E5     		b	.L78
 2004              	.L183:
 183:Core/Src/main.cpp ****   /* USER CODE END 2 */
 2005              		.loc 1 183 3 discriminator 4 view .LVU339
 2006 0834 9848     		ldr	r0, .L190+252
 2007 0836 FFF7FEFF 		bl	__cxa_guard_release
 2008              	.LVL183:
 2009 083a 07E0     		b	.L83
 2010              	.LVL184:
 2011              	.L80:
 2012              	.LBB103:
 197:Core/Src/main.cpp ****           ModeLED2.setHigh();
 2013              		.loc 1 197 14 is_stmt 1 view .LVU340
 2014 083c 0128     		cmp	r0, #1
 2015 083e 0ED0     		beq	.L184
 203:Core/Src/main.cpp ****             // Off
 2016              		.loc 1 203 11 view .LVU341
 203:Core/Src/main.cpp ****             // Off
 2017              		.loc 1 203 27 is_stmt 0 view .LVU342
 2018 0840 7D48     		ldr	r0, .L190+156
 2019              	.LVL185:
 2020              	.LEHB34:
 203:Core/Src/main.cpp ****             // Off
 2021              		.loc 1 203 27 view .LVU343
 2022 0842 FFF7FEFF 		bl	_ZN11GpioSTM32F47setHighEv
 2023              	.LVL186:
 2024              	.L81:
ARM GAS  C:\Users\hanaj\AppData\Local\Temp\cczfNnLg.s 			page 64


 209:Core/Src/main.cpp ****     /* USER CODE END WHILE */
 2025              		.loc 1 209 9 is_stmt 1 view .LVU344
 209:Core/Src/main.cpp ****     /* USER CODE END WHILE */
 2026              		.loc 1 209 18 is_stmt 0 view .LVU345
 2027 0846 3220     		movs	r0, #50
 2028 0848 FFF7FEFF 		bl	HAL_Delay
 2029              	.LVL187:
 2030              	.LBE103:
 188:Core/Src/main.cpp ****   {
 2031              		.loc 1 188 3 is_stmt 1 view .LVU346
 2032              	.L83:
 188:Core/Src/main.cpp ****   {
 2033              		.loc 1 188 3 view .LVU347
 2034              	.LBB104:
 190:Core/Src/main.cpp **** 
 2035              		.loc 1 190 5 view .LVU348
 190:Core/Src/main.cpp **** 
 2036              		.loc 1 190 48 is_stmt 0 view .LVU349
 2037 084c 7848     		ldr	r0, .L190+148
 2038 084e FFF7FEFF 		bl	_ZN6Button10checkStateEv
 2039              	.LVL188:
 192:Core/Src/main.cpp ****           ModeLED1.setHigh();
 2040              		.loc 1 192 9 is_stmt 1 view .LVU350
 2041 0852 0028     		cmp	r0, #0
 2042 0854 F2D1     		bne	.L80
 193:Core/Src/main.cpp ****             // 短い押下
 2043              		.loc 1 193 11 view .LVU351
 193:Core/Src/main.cpp ****             // 短い押下
 2044              		.loc 1 193 27 is_stmt 0 view .LVU352
 2045 0856 7A48     		ldr	r0, .L190+164
 2046              	.LVL189:
 193:Core/Src/main.cpp ****             // 短い押下
 2047              		.loc 1 193 27 view .LVU353
 2048 0858 FFF7FEFF 		bl	_ZN11GpioSTM32F47setHighEv
 2049              	.LVL190:
 2050 085c F3E7     		b	.L81
 2051              	.LVL191:
 2052              	.L184:
 198:Core/Src/main.cpp ****             // 長押し
 2053              		.loc 1 198 11 is_stmt 1 view .LVU354
 198:Core/Src/main.cpp ****             // 長押し
 2054              		.loc 1 198 27 is_stmt 0 view .LVU355
 2055 085e 7748     		ldr	r0, .L190+160
 2056              	.LVL192:
 198:Core/Src/main.cpp ****             // 長押し
 2057              		.loc 1 198 27 view .LVU356
 2058 0860 FFF7FEFF 		bl	_ZN11GpioSTM32F47setHighEv
 2059              	.LVL193:
 2060 0864 EFE7     		b	.L81
 2061              	.LVL194:
 2062              	.L117:
 198:Core/Src/main.cpp ****             // 長押し
 2063              		.loc 1 198 27 view .LVU357
 2064              	.LBE104:
 115:Core/Src/main.cpp ****   static GpioSTM32F4 AIN2(GPIOB, GPIO_PIN_14);
 2065              		.loc 1 115 45 discriminator 5 view .LVU358
 2066 0866 8D48     		ldr	r0, .L190+256
ARM GAS  C:\Users\hanaj\AppData\Local\Temp\cczfNnLg.s 			page 65


 2067 0868 FFF7FEFF 		bl	__cxa_guard_abort
 2068              	.LVL195:
 2069 086c FFF7FEFF 		bl	__cxa_end_cleanup
 2070              	.LVL196:
 2071              	.L118:
 116:Core/Src/main.cpp ****   static GpioSTM32F4 BIN1(GPIOB, GPIO_PIN_5);
 2072              		.loc 1 116 45 discriminator 5 view .LVU359
 2073 0870 8B48     		ldr	r0, .L190+260
 2074 0872 FFF7FEFF 		bl	__cxa_guard_abort
 2075              	.LVL197:
 2076 0876 FFF7FEFF 		bl	__cxa_end_cleanup
 2077              	.LVL198:
 2078              	.L119:
 117:Core/Src/main.cpp ****   static GpioSTM32F4 BIN2(GPIOB, GPIO_PIN_4);
 2079              		.loc 1 117 44 discriminator 5 view .LVU360
 2080 087a 8A48     		ldr	r0, .L190+264
 2081 087c FFF7FEFF 		bl	__cxa_guard_abort
 2082              	.LVL199:
 2083 0880 FFF7FEFF 		bl	__cxa_end_cleanup
 2084              	.LVL200:
 2085              	.L120:
 118:Core/Src/main.cpp ****   static GpioSTM32F4 SensorLED_FL(GPIOA, GPIO_PIN_12);
 2086              		.loc 1 118 44 discriminator 5 view .LVU361
 2087 0884 8848     		ldr	r0, .L190+268
 2088 0886 FFF7FEFF 		bl	__cxa_guard_abort
 2089              	.LVL201:
 2090 088a FFF7FEFF 		bl	__cxa_end_cleanup
 2091              	.LVL202:
 2092              	.L121:
 119:Core/Src/main.cpp ****   static GpioSTM32F4 SensorLED_FR(GPIOA, GPIO_PIN_11);
 2093              		.loc 1 119 53 discriminator 5 view .LVU362
 2094 088e 8748     		ldr	r0, .L190+272
 2095 0890 FFF7FEFF 		bl	__cxa_guard_abort
 2096              	.LVL203:
 2097 0894 FFF7FEFF 		bl	__cxa_end_cleanup
 2098              	.LVL204:
 2099              	.L122:
 120:Core/Src/main.cpp ****   static GpioSTM32F4 SensorLED_R(GPIOA, GPIO_PIN_10);
 2100              		.loc 1 120 53 discriminator 5 view .LVU363
 2101 0898 8548     		ldr	r0, .L190+276
 2102 089a FFF7FEFF 		bl	__cxa_guard_abort
 2103              	.LVL205:
 2104 089e FFF7FEFF 		bl	__cxa_end_cleanup
 2105              	.LVL206:
 2106              	.L123:
 121:Core/Src/main.cpp ****   static GpioSTM32F4 SensorLED_L(GPIOC, GPIO_PIN_8);
 2107              		.loc 1 121 52 discriminator 5 view .LVU364
 2108 08a2 8448     		ldr	r0, .L190+280
 2109 08a4 FFF7FEFF 		bl	__cxa_guard_abort
 2110              	.LVL207:
 2111 08a8 FFF7FEFF 		bl	__cxa_end_cleanup
 2112              	.LVL208:
 2113              	.L124:
 122:Core/Src/main.cpp ****   static GpioSTM32F4 LED_FL(GPIOA, GPIO_PIN_7);
 2114              		.loc 1 122 51 discriminator 5 view .LVU365
 2115 08ac 8248     		ldr	r0, .L190+284
 2116 08ae FFF7FEFF 		bl	__cxa_guard_abort
ARM GAS  C:\Users\hanaj\AppData\Local\Temp\cczfNnLg.s 			page 66


 2117              	.LVL209:
 2118 08b2 FFF7FEFF 		bl	__cxa_end_cleanup
 2119              	.LVL210:
 2120              	.L125:
 123:Core/Src/main.cpp ****   static GpioSTM32F4 LED_FR(GPIOC, GPIO_PIN_2);
 2121              		.loc 1 123 46 discriminator 5 view .LVU366
 2122 08b6 8148     		ldr	r0, .L190+288
 2123 08b8 FFF7FEFF 		bl	__cxa_guard_abort
 2124              	.LVL211:
 2125 08bc FFF7FEFF 		bl	__cxa_end_cleanup
 2126              	.LVL212:
 2127              	.L126:
 124:Core/Src/main.cpp ****   static GpioSTM32F4 LED_R(GPIOC, GPIO_PIN_3);
 2128              		.loc 1 124 46 discriminator 5 view .LVU367
 2129 08c0 7F48     		ldr	r0, .L190+292
 2130 08c2 FFF7FEFF 		bl	__cxa_guard_abort
 2131              	.LVL213:
 2132 08c6 FFF7FEFF 		bl	__cxa_end_cleanup
 2133              	.LVL214:
 2134              	.L127:
 125:Core/Src/main.cpp ****   static GpioSTM32F4 LED_L(GPIOA, GPIO_PIN_8);
 2135              		.loc 1 125 45 discriminator 5 view .LVU368
 2136 08ca 7E48     		ldr	r0, .L190+296
 2137 08cc FFF7FEFF 		bl	__cxa_guard_abort
 2138              	.LVL215:
 2139 08d0 FFF7FEFF 		bl	__cxa_end_cleanup
 2140              	.LVL216:
 2141              	.L128:
 126:Core/Src/main.cpp ****   static GpioSTM32F4 ModeLED1(GPIOA, GPIO_PIN_15);
 2142              		.loc 1 126 45 discriminator 5 view .LVU369
 2143 08d4 7C48     		ldr	r0, .L190+300
 2144 08d6 FFF7FEFF 		bl	__cxa_guard_abort
 2145              	.LVL217:
 2146 08da FFF7FEFF 		bl	__cxa_end_cleanup
 2147              	.LVL218:
 2148              	.L129:
 127:Core/Src/main.cpp ****   static GpioSTM32F4 ModeLED2(GPIOB, GPIO_PIN_0);
 2149              		.loc 1 127 49 discriminator 5 view .LVU370
 2150 08de 7B48     		ldr	r0, .L190+304
 2151 08e0 FFF7FEFF 		bl	__cxa_guard_abort
 2152              	.LVL219:
 2153 08e4 FFF7FEFF 		bl	__cxa_end_cleanup
 2154              	.LVL220:
 2155              	.L130:
 128:Core/Src/main.cpp ****   static GpioSTM32F4 ModeLED3(GPIOB, GPIO_PIN_1);
 2156              		.loc 1 128 48 discriminator 5 view .LVU371
 2157 08e8 7948     		ldr	r0, .L190+308
 2158 08ea FFF7FEFF 		bl	__cxa_guard_abort
 2159              	.LVL221:
 2160 08ee FFF7FEFF 		bl	__cxa_end_cleanup
 2161              	.LVL222:
 2162              	.L131:
 129:Core/Src/main.cpp ****   static GpioSTM32F4 gpioButton(GPIOC, GPIO_PIN_5);
 2163              		.loc 1 129 48 discriminator 5 view .LVU372
 2164 08f2 7848     		ldr	r0, .L190+312
 2165 08f4 FFF7FEFF 		bl	__cxa_guard_abort
 2166              	.LVL223:
ARM GAS  C:\Users\hanaj\AppData\Local\Temp\cczfNnLg.s 			page 67


 2167 08f8 FFF7FEFF 		bl	__cxa_end_cleanup
 2168              	.LVL224:
 2169              	.L132:
 130:Core/Src/main.cpp **** 
 2170              		.loc 1 130 50 discriminator 5 view .LVU373
 2171 08fc 7648     		ldr	r0, .L190+316
 2172 08fe FFF7FEFF 		bl	__cxa_guard_abort
 2173              	.LVL225:
 2174 0902 FFF7FEFF 		bl	__cxa_end_cleanup
 2175              	.LVL226:
 2176              	.L133:
 133:Core/Src/main.cpp ****   static AdcSTM32F4 Adc2(&hadc2);
 2177              		.loc 1 133 32 discriminator 5 view .LVU374
 2178 0906 7548     		ldr	r0, .L190+320
 2179 0908 FFF7FEFF 		bl	__cxa_guard_abort
 2180              	.LVL227:
 2181 090c FFF7FEFF 		bl	__cxa_end_cleanup
 2182              	.LVL228:
 2183              	.L134:
 134:Core/Src/main.cpp ****   static AdcSTM32F4 Adc3(&hadc3);
 2184              		.loc 1 134 32 discriminator 5 view .LVU375
 2185 0910 2648     		ldr	r0, .L190+16
 2186 0912 FFF7FEFF 		bl	__cxa_guard_abort
 2187              	.LVL229:
 2188 0916 FFF7FEFF 		bl	__cxa_end_cleanup
 2189              	.LVL230:
 2190              	.L135:
 135:Core/Src/main.cpp **** 
 2191              		.loc 1 135 32 discriminator 5 view .LVU376
 2192 091a 2748     		ldr	r0, .L190+28
 2193 091c FFF7FEFF 		bl	__cxa_guard_abort
 2194              	.LVL231:
 2195 0920 FFF7FEFF 		bl	__cxa_end_cleanup
 2196              	.LVL232:
 2197              	.L136:
 138:Core/Src/main.cpp ****   static PwmSTM32F4 pwmLeft(&htim11, TIM_CHANNEL_1);
 2198              		.loc 1 138 51 discriminator 5 view .LVU377
 2199 0924 2748     		ldr	r0, .L190+40
 2200 0926 FFF7FEFF 		bl	__cxa_guard_abort
 2201              	.LVL233:
 2202 092a FFF7FEFF 		bl	__cxa_end_cleanup
 2203              	.LVL234:
 2204              	.L137:
 139:Core/Src/main.cpp ****   static PwmSTM32F4 SuctionMotor(&htim10, TIM_CHANNEL_1);
 2205              		.loc 1 139 51 discriminator 5 view .LVU378
 2206 092e 2848     		ldr	r0, .L190+52
 2207 0930 FFF7FEFF 		bl	__cxa_guard_abort
 2208              	.LVL235:
 2209 0934 FFF7FEFF 		bl	__cxa_end_cleanup
 2210              	.LVL236:
 2211              	.L138:
 140:Core/Src/main.cpp ****   static PwmSTM32F4 Buzzer(&htim2, TIM_CHANNEL_1);
 2212              		.loc 1 140 56 discriminator 5 view .LVU379
 2213 0938 2848     		ldr	r0, .L190+64
 2214 093a FFF7FEFF 		bl	__cxa_guard_abort
 2215              	.LVL237:
 2216 093e FFF7FEFF 		bl	__cxa_end_cleanup
ARM GAS  C:\Users\hanaj\AppData\Local\Temp\cczfNnLg.s 			page 68


 2217              	.LVL238:
 2218              	.L139:
 141:Core/Src/main.cpp **** 
 2219              		.loc 1 141 49 discriminator 5 view .LVU380
 2220 0942 2948     		ldr	r0, .L190+76
 2221 0944 FFF7FEFF 		bl	__cxa_guard_abort
 2222              	.LVL239:
 2223 0948 FFF7FEFF 		bl	__cxa_end_cleanup
 2224              	.LVL240:
 2225              	.L140:
 144:Core/Src/main.cpp ****   static EncoderSTM32F4 EncoderRight(&htim3);
 2226              		.loc 1 144 42 discriminator 5 view .LVU381
 2227 094c 2A48     		ldr	r0, .L190+92
 2228 094e FFF7FEFF 		bl	__cxa_guard_abort
 2229              	.LVL241:
 2230 0952 FFF7FEFF 		bl	__cxa_end_cleanup
 2231              	.LVL242:
 2232              	.L141:
 145:Core/Src/main.cpp ****   static EncoderSTM32F4 EncoderLeft(&htim4);
 2233              		.loc 1 145 44 discriminator 5 view .LVU382
 2234 0956 2C48     		ldr	r0, .L190+108
 2235 0958 FFF7FEFF 		bl	__cxa_guard_abort
 2236              	.LVL243:
 2237 095c FFF7FEFF 		bl	__cxa_end_cleanup
 2238              	.LVL244:
 2239              	.L142:
 146:Core/Src/main.cpp **** 
 2240              		.loc 1 146 43 discriminator 5 view .LVU383
 2241 0960 2C48     		ldr	r0, .L190+120
 2242 0962 FFF7FEFF 		bl	__cxa_guard_abort
 2243              	.LVL245:
 2244 0966 FFF7FEFF 		bl	__cxa_end_cleanup
 2245              	.LVL246:
 2246              	.L143:
 149:Core/Src/main.cpp **** 
 2247              		.loc 1 149 64 discriminator 5 view .LVU384
 2248 096a 2F48     		ldr	r0, .L190+140
 2249 096c FFF7FEFF 		bl	__cxa_guard_abort
 2250              	.LVL247:
 2251 0970 FFF7FEFF 		bl	__cxa_end_cleanup
 2252              	.LVL248:
 2253              	.L144:
 152:Core/Src/main.cpp ****   static LEDController LEDController(
 2254              		.loc 1 152 51 discriminator 5 view .LVU385
 2255 0974 2F48     		ldr	r0, .L190+152
 2256 0976 FFF7FEFF 		bl	__cxa_guard_abort
 2257              	.LVL249:
 2258 097a FFF7FEFF 		bl	__cxa_end_cleanup
 2259              	.LVL250:
 2260              	.L145:
 165:Core/Src/main.cpp ****   static Imu lsm6dsr(&spi3);
 2261              		.loc 1 165 3 discriminator 5 view .LVU386
 2262 097e 3A48     		ldr	r0, .L190+204
 2263 0980 FFF7FEFF 		bl	__cxa_guard_abort
 2264              	.LVL251:
 2265 0984 FFF7FEFF 		bl	__cxa_end_cleanup
 2266              	.LVL252:
ARM GAS  C:\Users\hanaj\AppData\Local\Temp\cczfNnLg.s 			page 69


 2267              	.L146:
 166:Core/Src/main.cpp ****   static PhotoSensor PhotoSensor(&hadc1, adcBuffer, 4);
 2268              		.loc 1 166 27 discriminator 5 view .LVU387
 2269 0988 3948     		ldr	r0, .L190+212
 2270 098a FFF7FEFF 		bl	__cxa_guard_abort
 2271              	.LVL253:
 2272 098e FFF7FEFF 		bl	__cxa_end_cleanup
 2273              	.LVL254:
 2274              	.L147:
 167:Core/Src/main.cpp **** 
 2275              		.loc 1 167 54 discriminator 5 view .LVU388
 2276 0992 3B48     		ldr	r0, .L190+228
 2277 0994 FFF7FEFF 		bl	__cxa_guard_abort
 2278              	.LVL255:
 2279 0998 FFF7FEFF 		bl	__cxa_end_cleanup
 2280              	.LVL256:
 2281              	.L191:
 2282              		.align	2
 2283              	.L190:
 2284 099c 00000000 		.word	hadc2
 2285 09a0 00000000 		.word	_ZZ4mainE4Adc2
 2286 09a4 00000000 		.word	__dso_handle
 2287 09a8 00000000 		.word	_ZN10AdcSTM32F4D1Ev
 2288 09ac 00000000 		.word	_ZGVZ4mainE4Adc2
 2289 09b0 00000000 		.word	hadc3
 2290 09b4 00000000 		.word	_ZZ4mainE4Adc3
 2291 09b8 00000000 		.word	_ZGVZ4mainE4Adc3
 2292 09bc 00000000 		.word	htim1
 2293 09c0 00000000 		.word	_ZZ4mainE8pwmRight
 2294 09c4 00000000 		.word	_ZGVZ4mainE8pwmRight
 2295 09c8 00000000 		.word	htim11
 2296 09cc 00000000 		.word	_ZZ4mainE7pwmLeft
 2297 09d0 00000000 		.word	_ZGVZ4mainE7pwmLeft
 2298 09d4 00000000 		.word	htim10
 2299 09d8 00000000 		.word	_ZZ4mainE12SuctionMotor
 2300 09dc 00000000 		.word	_ZGVZ4mainE12SuctionMotor
 2301 09e0 00000000 		.word	htim2
 2302 09e4 00000000 		.word	_ZZ4mainE6Buzzer
 2303 09e8 00000000 		.word	_ZGVZ4mainE6Buzzer
 2304 09ec 00000000 		.word	htim5
 2305 09f0 00000000 		.word	_ZZ4mainE12CalcDynamics
 2306 09f4 00000000 		.word	_ZN12TimerSTM32F4D1Ev
 2307 09f8 00000000 		.word	_ZGVZ4mainE12CalcDynamics
 2308 09fc 00000000 		.word	htim3
 2309 0a00 00000000 		.word	_ZZ4mainE12EncoderRight
 2310 0a04 00000000 		.word	_ZN14EncoderSTM32F4D1Ev
 2311 0a08 00000000 		.word	_ZGVZ4mainE12EncoderRight
 2312 0a0c 00000000 		.word	htim4
 2313 0a10 00000000 		.word	_ZZ4mainE11EncoderLeft
 2314 0a14 00000000 		.word	_ZGVZ4mainE11EncoderLeft
 2315 0a18 00000240 		.word	1073872896
 2316 0a1c 00000000 		.word	hspi3
 2317 0a20 00000000 		.word	_ZZ4mainE4spi3
 2318 0a24 00000000 		.word	_ZN10SPISTM32F4D1Ev
 2319 0a28 00000000 		.word	_ZGVZ4mainE4spi3
 2320 0a2c 00000000 		.word	_ZZ4mainE10gpioButton
 2321 0a30 00000000 		.word	_ZZ4mainE16ModeChangeButton
ARM GAS  C:\Users\hanaj\AppData\Local\Temp\cczfNnLg.s 			page 70


 2322 0a34 00000000 		.word	_ZGVZ4mainE16ModeChangeButton
 2323 0a38 00000000 		.word	_ZZ4mainE8ModeLED3
 2324 0a3c 00000000 		.word	_ZZ4mainE8ModeLED2
 2325 0a40 00000000 		.word	_ZZ4mainE8ModeLED1
 2326 0a44 00000000 		.word	_ZZ4mainE5LED_L
 2327 0a48 00000000 		.word	_ZZ4mainE5LED_R
 2328 0a4c 00000000 		.word	_ZZ4mainE6LED_FR
 2329 0a50 00000000 		.word	_ZZ4mainE6LED_FL
 2330 0a54 00000000 		.word	_ZZ4mainE11SensorLED_L
 2331 0a58 00000000 		.word	_ZZ4mainE11SensorLED_R
 2332 0a5c 00000000 		.word	_ZZ4mainE12SensorLED_FR
 2333 0a60 00000000 		.word	_ZZ4mainE12SensorLED_FL
 2334 0a64 00000000 		.word	_ZZ4mainE13LEDController
 2335 0a68 00000000 		.word	_ZGVZ4mainE13LEDController
 2336 0a6c 00000000 		.word	_ZZ4mainE7lsm6dsr
 2337 0a70 00000000 		.word	_ZGVZ4mainE7lsm6dsr
 2338 0a74 00000000 		.word	_ZL9adcBuffer
 2339 0a78 00000000 		.word	hadc1
 2340 0a7c 00000000 		.word	_ZZ4mainE11PhotoSensor
 2341 0a80 00000000 		.word	_ZGVZ4mainE11PhotoSensor
 2342 0a84 00005244 		.word	1146224640
 2343 0a88 00000000 		.word	_ZZ4mainE4AIN2
 2344 0a8c 00000000 		.word	_ZZ4mainE4AIN1
 2345 0a90 00000000 		.word	_ZZ4mainE10RightMotor
 2346 0a94 00000000 		.word	_ZGVZ4mainE10RightMotor
 2347 0a98 00000000 		.word	_ZGVZ4mainE9LeftMotor
 2348 0a9c 00000000 		.word	_ZGVZ4mainE4AIN1
 2349 0aa0 00000000 		.word	_ZGVZ4mainE4AIN2
 2350 0aa4 00000000 		.word	_ZGVZ4mainE4BIN1
 2351 0aa8 00000000 		.word	_ZGVZ4mainE4BIN2
 2352 0aac 00000000 		.word	_ZGVZ4mainE12SensorLED_FL
 2353 0ab0 00000000 		.word	_ZGVZ4mainE12SensorLED_FR
 2354 0ab4 00000000 		.word	_ZGVZ4mainE11SensorLED_R
 2355 0ab8 00000000 		.word	_ZGVZ4mainE11SensorLED_L
 2356 0abc 00000000 		.word	_ZGVZ4mainE6LED_FL
 2357 0ac0 00000000 		.word	_ZGVZ4mainE6LED_FR
 2358 0ac4 00000000 		.word	_ZGVZ4mainE5LED_R
 2359 0ac8 00000000 		.word	_ZGVZ4mainE5LED_L
 2360 0acc 00000000 		.word	_ZGVZ4mainE8ModeLED1
 2361 0ad0 00000000 		.word	_ZGVZ4mainE8ModeLED2
 2362 0ad4 00000000 		.word	_ZGVZ4mainE8ModeLED3
 2363 0ad8 00000000 		.word	_ZGVZ4mainE10gpioButton
 2364 0adc 00000000 		.word	_ZGVZ4mainE4Adc1
 2365              	.L148:
 175:Core/Src/main.cpp **** 
 2366              		.loc 1 175 3 discriminator 5 view .LVU389
 2367 0ae0 0448     		ldr	r0, .L192
 2368 0ae2 FFF7FEFF 		bl	__cxa_guard_abort
 2369              	.LVL257:
 2370 0ae6 FFF7FEFF 		bl	__cxa_end_cleanup
 2371              	.LVL258:
 2372              	.L149:
 183:Core/Src/main.cpp ****   /* USER CODE END 2 */
 2373              		.loc 1 183 3 discriminator 5 view .LVU390
 2374 0aea 0348     		ldr	r0, .L192+4
 2375 0aec FFF7FEFF 		bl	__cxa_guard_abort
 2376              	.LVL259:
ARM GAS  C:\Users\hanaj\AppData\Local\Temp\cczfNnLg.s 			page 71


 2377 0af0 FFF7FEFF 		bl	__cxa_end_cleanup
 2378              	.LVL260:
 2379              	.LEHE34:
 2380              	.L193:
 2381              		.align	2
 2382              	.L192:
 2383 0af4 00000000 		.word	_ZGVZ4mainE10RightMotor
 2384 0af8 00000000 		.word	_ZGVZ4mainE9LeftMotor
 2385              		.cfi_endproc
 2386              	.LFE242:
 2387              		.global	__gxx_personality_v0
 2388              		.personality	__gxx_personality_v0
 2389              		.handlerdata
 2390              	.LLSDA242:
 2391 0008 FF       		.byte	0xff
 2392 0009 FF       		.byte	0xff
 2393 000a 01       		.byte	0x1
 2394 000b D001     		.uleb128 .LLSDACSE242-.LLSDACSB242
 2395              	.LLSDACSB242:
 2396 000d 04       		.uleb128 .LEHB0-.LFB242
 2397 000e 30       		.uleb128 .LEHE0-.LEHB0
 2398 000f 00       		.uleb128 0
 2399 0010 00       		.uleb128 0
 2400 0011 8A08     		.uleb128 .LEHB1-.LFB242
 2401 0013 04       		.uleb128 .LEHE1-.LEHB1
 2402 0014 EA15     		.uleb128 .L149-.LFB242
 2403 0016 00       		.uleb128 0
 2404 0017 9808     		.uleb128 .LEHB2-.LFB242
 2405 0019 04       		.uleb128 .LEHE2-.LEHB2
 2406 001a E610     		.uleb128 .L117-.LFB242
 2407 001c 00       		.uleb128 0
 2408 001d B608     		.uleb128 .LEHB3-.LFB242
 2409 001f 04       		.uleb128 .LEHE3-.LEHB3
 2410 0020 F010     		.uleb128 .L118-.LFB242
 2411 0022 00       		.uleb128 0
 2412 0023 D208     		.uleb128 .LEHB4-.LFB242
 2413 0025 04       		.uleb128 .LEHE4-.LEHB4
 2414 0026 FA10     		.uleb128 .L119-.LFB242
 2415 0028 00       		.uleb128 0
 2416 0029 EE08     		.uleb128 .LEHB5-.LFB242
 2417 002b 04       		.uleb128 .LEHE5-.LEHB5
 2418 002c 8411     		.uleb128 .L120-.LFB242
 2419 002e 00       		.uleb128 0
 2420 002f 8C09     		.uleb128 .LEHB6-.LFB242
 2421 0031 04       		.uleb128 .LEHE6-.LEHB6
 2422 0032 8E11     		.uleb128 .L121-.LFB242
 2423 0034 00       		.uleb128 0
 2424 0035 AA09     		.uleb128 .LEHB7-.LFB242
 2425 0037 04       		.uleb128 .LEHE7-.LEHB7
 2426 0038 9811     		.uleb128 .L122-.LFB242
 2427 003a 00       		.uleb128 0
 2428 003b C809     		.uleb128 .LEHB8-.LFB242
 2429 003d 04       		.uleb128 .LEHE8-.LEHB8
 2430 003e A211     		.uleb128 .L123-.LFB242
 2431 0040 00       		.uleb128 0
 2432 0041 E609     		.uleb128 .LEHB9-.LFB242
 2433 0043 04       		.uleb128 .LEHE9-.LEHB9
ARM GAS  C:\Users\hanaj\AppData\Local\Temp\cczfNnLg.s 			page 72


 2434 0044 AC11     		.uleb128 .L124-.LFB242
 2435 0046 00       		.uleb128 0
 2436 0047 820A     		.uleb128 .LEHB10-.LFB242
 2437 0049 04       		.uleb128 .LEHE10-.LEHB10
 2438 004a B611     		.uleb128 .L125-.LFB242
 2439 004c 00       		.uleb128 0
 2440 004d 9E0A     		.uleb128 .LEHB11-.LFB242
 2441 004f 04       		.uleb128 .LEHE11-.LEHB11
 2442 0050 C011     		.uleb128 .L126-.LFB242
 2443 0052 00       		.uleb128 0
 2444 0053 BA0A     		.uleb128 .LEHB12-.LFB242
 2445 0055 04       		.uleb128 .LEHE12-.LEHB12
 2446 0056 CA11     		.uleb128 .L127-.LFB242
 2447 0058 00       		.uleb128 0
 2448 0059 D80A     		.uleb128 .LEHB13-.LFB242
 2449 005b 04       		.uleb128 .LEHE13-.LEHB13
 2450 005c D411     		.uleb128 .L128-.LFB242
 2451 005e 00       		.uleb128 0
 2452 005f F60A     		.uleb128 .LEHB14-.LFB242
 2453 0061 04       		.uleb128 .LEHE14-.LEHB14
 2454 0062 DE11     		.uleb128 .L129-.LFB242
 2455 0064 00       		.uleb128 0
 2456 0065 920B     		.uleb128 .LEHB15-.LFB242
 2457 0067 04       		.uleb128 .LEHE15-.LEHB15
 2458 0068 E811     		.uleb128 .L130-.LFB242
 2459 006a 00       		.uleb128 0
 2460 006b AE0B     		.uleb128 .LEHB16-.LFB242
 2461 006d 04       		.uleb128 .LEHE16-.LEHB16
 2462 006e F211     		.uleb128 .L131-.LFB242
 2463 0070 00       		.uleb128 0
 2464 0071 CA0B     		.uleb128 .LEHB17-.LFB242
 2465 0073 04       		.uleb128 .LEHE17-.LEHB17
 2466 0074 FC11     		.uleb128 .L132-.LFB242
 2467 0076 00       		.uleb128 0
 2468 0077 E40B     		.uleb128 .LEHB18-.LFB242
 2469 0079 04       		.uleb128 .LEHE18-.LEHB18
 2470 007a 8612     		.uleb128 .L133-.LFB242
 2471 007c 00       		.uleb128 0
 2472 007d CC0D     		.uleb128 .LEHB19-.LFB242
 2473 007f 04       		.uleb128 .LEHE19-.LEHB19
 2474 0080 9012     		.uleb128 .L134-.LFB242
 2475 0082 00       		.uleb128 0
 2476 0083 E60D     		.uleb128 .LEHB20-.LFB242
 2477 0085 04       		.uleb128 .LEHE20-.LEHB20
 2478 0086 9A12     		.uleb128 .L135-.LFB242
 2479 0088 00       		.uleb128 0
 2480 0089 820E     		.uleb128 .LEHB21-.LFB242
 2481 008b 04       		.uleb128 .LEHE21-.LEHB21
 2482 008c A412     		.uleb128 .L136-.LFB242
 2483 008e 00       		.uleb128 0
 2484 008f 940E     		.uleb128 .LEHB22-.LFB242
 2485 0091 04       		.uleb128 .LEHE22-.LEHB22
 2486 0092 AE12     		.uleb128 .L137-.LFB242
 2487 0094 00       		.uleb128 0
 2488 0095 A60E     		.uleb128 .LEHB23-.LFB242
 2489 0097 04       		.uleb128 .LEHE23-.LEHB23
 2490 0098 B812     		.uleb128 .L138-.LFB242
ARM GAS  C:\Users\hanaj\AppData\Local\Temp\cczfNnLg.s 			page 73


 2491 009a 00       		.uleb128 0
 2492 009b B80E     		.uleb128 .LEHB24-.LFB242
 2493 009d 04       		.uleb128 .LEHE24-.LEHB24
 2494 009e C212     		.uleb128 .L139-.LFB242
 2495 00a0 00       		.uleb128 0
 2496 00a1 C80E     		.uleb128 .LEHB25-.LFB242
 2497 00a3 04       		.uleb128 .LEHE25-.LEHB25
 2498 00a4 CC12     		.uleb128 .L140-.LFB242
 2499 00a6 00       		.uleb128 0
 2500 00a7 E20E     		.uleb128 .LEHB26-.LFB242
 2501 00a9 04       		.uleb128 .LEHE26-.LEHB26
 2502 00aa D612     		.uleb128 .L141-.LFB242
 2503 00ac 00       		.uleb128 0
 2504 00ad FC0E     		.uleb128 .LEHB27-.LFB242
 2505 00af 04       		.uleb128 .LEHE27-.LEHB27
 2506 00b0 E012     		.uleb128 .L142-.LFB242
 2507 00b2 00       		.uleb128 0
 2508 00b3 9A0F     		.uleb128 .LEHB28-.LFB242
 2509 00b5 04       		.uleb128 .LEHE28-.LEHB28
 2510 00b6 EA12     		.uleb128 .L143-.LFB242
 2511 00b8 00       		.uleb128 0
 2512 00b9 B80F     		.uleb128 .LEHB29-.LFB242
 2513 00bb 04       		.uleb128 .LEHE29-.LEHB29
 2514 00bc F412     		.uleb128 .L144-.LFB242
 2515 00be 00       		.uleb128 0
 2516 00bf EC0F     		.uleb128 .LEHB30-.LFB242
 2517 00c1 04       		.uleb128 .LEHE30-.LEHB30
 2518 00c2 FE12     		.uleb128 .L145-.LFB242
 2519 00c4 00       		.uleb128 0
 2520 00c5 FC0F     		.uleb128 .LEHB31-.LFB242
 2521 00c7 04       		.uleb128 .LEHE31-.LEHB31
 2522 00c8 8813     		.uleb128 .L146-.LFB242
 2523 00ca 00       		.uleb128 0
 2524 00cb 9010     		.uleb128 .LEHB32-.LFB242
 2525 00cd 04       		.uleb128 .LEHE32-.LEHB32
 2526 00ce 9213     		.uleb128 .L147-.LFB242
 2527 00d0 00       		.uleb128 0
 2528 00d1 A810     		.uleb128 .LEHB33-.LFB242
 2529 00d3 04       		.uleb128 .LEHE33-.LEHB33
 2530 00d4 E015     		.uleb128 .L148-.LFB242
 2531 00d6 00       		.uleb128 0
 2532 00d7 C210     		.uleb128 .LEHB34-.LFB242
 2533 00d9 B205     		.uleb128 .LEHE34-.LEHB34
 2534 00db 00       		.uleb128 0
 2535 00dc 00       		.uleb128 0
 2536              	.LLSDACSE242:
 2537              		.section	.text.main
 2538              		.fnend
 2540              		.section	.text.assert_failed,"ax",%progbits
 2541              		.align	1
 2542              		.global	assert_failed
 2543              		.syntax unified
 2544              		.thumb
 2545              		.thumb_func
 2547              	assert_failed:
 2548              		.fnstart
 2549              	.LVL261:
ARM GAS  C:\Users\hanaj\AppData\Local\Temp\cczfNnLg.s 			page 74


 2550              	.LFB285:
 277:Core/Src/main.cpp ****   {
 278:Core/Src/main.cpp ****   }
 279:Core/Src/main.cpp ****   /* USER CODE END Error_Handler_Debug */
 280:Core/Src/main.cpp **** }
 281:Core/Src/main.cpp **** 
 282:Core/Src/main.cpp **** #ifdef  USE_FULL_ASSERT
 283:Core/Src/main.cpp **** /**
 284:Core/Src/main.cpp ****   * @brief  Reports the name of the source file and the source line number
 285:Core/Src/main.cpp ****   *         where the assert_param error has occurred.
 286:Core/Src/main.cpp ****   * @param  file: pointer to the source file name
 287:Core/Src/main.cpp ****   * @param  line: assert_param error line source number
 288:Core/Src/main.cpp ****   * @retval None
 289:Core/Src/main.cpp ****   */
 290:Core/Src/main.cpp **** void assert_failed(uint8_t *file, uint32_t line)
 291:Core/Src/main.cpp **** {
 2551              		.loc 1 291 1 is_stmt 1 view -0
 2552              		.cfi_startproc
 2553              		@ args = 0, pretend = 0, frame = 0
 2554              		@ frame_needed = 0, uses_anonymous_args = 0
 2555              		@ link register save eliminated.
 292:Core/Src/main.cpp ****   /* USER CODE BEGIN 6 */
 293:Core/Src/main.cpp ****   /* User can add his own implementation to report the file name and line number,
 294:Core/Src/main.cpp ****      ex: printf("Wrong parameters value: file %s on line %d\r\n", file, line) */
 295:Core/Src/main.cpp ****   /* USER CODE END 6 */
 296:Core/Src/main.cpp **** }
 2556              		.loc 1 296 1 is_stmt 0 view .LVU392
 2557 0000 7047     		bx	lr
 2558              		.cfi_endproc
 2559              	.LFE285:
 2560              		.cantunwind
 2561              		.fnend
 2563              		.weak	_ZTS4IAdc
 2564              		.section	.rodata._ZTS4IAdc,"aG",%progbits,_ZTS4IAdc,comdat
 2565              		.align	2
 2568              	_ZTS4IAdc:
 2569 0000 34494164 		.ascii	"4IAdc\000"
 2569      6300
 2570              		.weak	_ZTI4IAdc
 2571              		.section	.rodata._ZTI4IAdc,"aG",%progbits,_ZTI4IAdc,comdat
 2572              		.align	2
 2575              	_ZTI4IAdc:
 2576 0000 08000000 		.word	_ZTVN10__cxxabiv117__class_type_infoE+8
 2577 0004 00000000 		.word	_ZTS4IAdc
 2578              		.weak	_ZTS6ITimer
 2579              		.section	.rodata._ZTS6ITimer,"aG",%progbits,_ZTS6ITimer,comdat
 2580              		.align	2
 2583              	_ZTS6ITimer:
 2584 0000 36495469 		.ascii	"6ITimer\000"
 2584      6D657200 
 2585              		.weak	_ZTI6ITimer
 2586              		.section	.rodata._ZTI6ITimer,"aG",%progbits,_ZTI6ITimer,comdat
 2587              		.align	2
 2590              	_ZTI6ITimer:
 2591 0000 08000000 		.word	_ZTVN10__cxxabiv117__class_type_infoE+8
 2592 0004 00000000 		.word	_ZTS6ITimer
 2593              		.weak	_ZTS5IGpio
ARM GAS  C:\Users\hanaj\AppData\Local\Temp\cczfNnLg.s 			page 75


 2594              		.section	.rodata._ZTS5IGpio,"aG",%progbits,_ZTS5IGpio,comdat
 2595              		.align	2
 2598              	_ZTS5IGpio:
 2599 0000 35494770 		.ascii	"5IGpio\000"
 2599      696F00
 2600              		.weak	_ZTI5IGpio
 2601              		.section	.rodata._ZTI5IGpio,"aG",%progbits,_ZTI5IGpio,comdat
 2602              		.align	2
 2605              	_ZTI5IGpio:
 2606 0000 08000000 		.word	_ZTVN10__cxxabiv117__class_type_infoE+8
 2607 0004 00000000 		.word	_ZTS5IGpio
 2608              		.weak	_ZTS8IEncoder
 2609              		.section	.rodata._ZTS8IEncoder,"aG",%progbits,_ZTS8IEncoder,comdat
 2610              		.align	2
 2613              	_ZTS8IEncoder:
 2614 0000 3849456E 		.ascii	"8IEncoder\000"
 2614      636F6465 
 2614      7200
 2615              		.weak	_ZTI8IEncoder
 2616              		.section	.rodata._ZTI8IEncoder,"aG",%progbits,_ZTI8IEncoder,comdat
 2617              		.align	2
 2620              	_ZTI8IEncoder:
 2621 0000 08000000 		.word	_ZTVN10__cxxabiv117__class_type_infoE+8
 2622 0004 00000000 		.word	_ZTS8IEncoder
 2623              		.weak	_ZTS4ISpi
 2624              		.section	.rodata._ZTS4ISpi,"aG",%progbits,_ZTS4ISpi,comdat
 2625              		.align	2
 2628              	_ZTS4ISpi:
 2629 0000 34495370 		.ascii	"4ISpi\000"
 2629      6900
 2630              		.weak	_ZTI4ISpi
 2631              		.section	.rodata._ZTI4ISpi,"aG",%progbits,_ZTI4ISpi,comdat
 2632              		.align	2
 2635              	_ZTI4ISpi:
 2636 0000 08000000 		.word	_ZTVN10__cxxabiv117__class_type_infoE+8
 2637 0004 00000000 		.word	_ZTS4ISpi
 2638              		.weak	_ZTV4IAdc
 2639              		.section	.rodata._ZTV4IAdc,"aG",%progbits,_ZTV4IAdc,comdat
 2640              		.align	2
 2643              	_ZTV4IAdc:
 2644 0000 00000000 		.word	0
 2645 0004 00000000 		.word	_ZTI4IAdc
 2646 0008 00000000 		.word	0
 2647 000c 00000000 		.word	0
 2648 0010 00000000 		.word	__cxa_pure_virtual
 2649              		.weak	_ZTV6ITimer
 2650              		.section	.rodata._ZTV6ITimer,"aG",%progbits,_ZTV6ITimer,comdat
 2651              		.align	2
 2654              	_ZTV6ITimer:
 2655 0000 00000000 		.word	0
 2656 0004 00000000 		.word	_ZTI6ITimer
 2657 0008 00000000 		.word	0
 2658 000c 00000000 		.word	0
 2659 0010 00000000 		.word	__cxa_pure_virtual
 2660 0014 00000000 		.word	__cxa_pure_virtual
 2661 0018 00000000 		.word	__cxa_pure_virtual
 2662              		.weak	_ZTV5IGpio
ARM GAS  C:\Users\hanaj\AppData\Local\Temp\cczfNnLg.s 			page 76


 2663              		.section	.rodata._ZTV5IGpio,"aG",%progbits,_ZTV5IGpio,comdat
 2664              		.align	2
 2667              	_ZTV5IGpio:
 2668 0000 00000000 		.word	0
 2669 0004 00000000 		.word	_ZTI5IGpio
 2670 0008 00000000 		.word	0
 2671 000c 00000000 		.word	0
 2672 0010 00000000 		.word	__cxa_pure_virtual
 2673 0014 00000000 		.word	__cxa_pure_virtual
 2674 0018 00000000 		.word	__cxa_pure_virtual
 2675              		.weak	_ZTV8IEncoder
 2676              		.section	.rodata._ZTV8IEncoder,"aG",%progbits,_ZTV8IEncoder,comdat
 2677              		.align	2
 2680              	_ZTV8IEncoder:
 2681 0000 00000000 		.word	0
 2682 0004 00000000 		.word	_ZTI8IEncoder
 2683 0008 00000000 		.word	0
 2684 000c 00000000 		.word	0
 2685 0010 00000000 		.word	__cxa_pure_virtual
 2686 0014 00000000 		.word	__cxa_pure_virtual
 2687              		.weak	_ZTV4ISpi
 2688              		.section	.rodata._ZTV4ISpi,"aG",%progbits,_ZTV4ISpi,comdat
 2689              		.align	2
 2692              	_ZTV4ISpi:
 2693 0000 00000000 		.word	0
 2694 0004 00000000 		.word	_ZTI4ISpi
 2695 0008 00000000 		.word	0
 2696 000c 00000000 		.word	0
 2697 0010 00000000 		.word	__cxa_pure_virtual
 2698 0014 00000000 		.word	__cxa_pure_virtual
 2699 0018 00000000 		.word	__cxa_pure_virtual
 2700              		.section	.bss._ZGVZ4mainE9LeftMotor,"aw",%nobits
 2701              		.align	2
 2704              	_ZGVZ4mainE9LeftMotor:
 2705 0000 00000000 		.space	4
 2706              		.section	.bss._ZZ4mainE9LeftMotor,"aw",%nobits
 2707              		.align	2
 2710              	_ZZ4mainE9LeftMotor:
 2711 0000 00000000 		.space	20
 2711      00000000 
 2711      00000000 
 2711      00000000 
 2711      00000000 
 2712              		.section	.bss._ZGVZ4mainE10RightMotor,"aw",%nobits
 2713              		.align	2
 2716              	_ZGVZ4mainE10RightMotor:
 2717 0000 00000000 		.space	4
 2718              		.section	.bss._ZZ4mainE10RightMotor,"aw",%nobits
 2719              		.align	2
 2722              	_ZZ4mainE10RightMotor:
 2723 0000 00000000 		.space	20
 2723      00000000 
 2723      00000000 
 2723      00000000 
 2723      00000000 
 2724              		.section	.bss._ZGVZ4mainE11PhotoSensor,"aw",%nobits
 2725              		.align	2
ARM GAS  C:\Users\hanaj\AppData\Local\Temp\cczfNnLg.s 			page 77


 2728              	_ZGVZ4mainE11PhotoSensor:
 2729 0000 00000000 		.space	4
 2730              		.section	.bss._ZZ4mainE11PhotoSensor,"aw",%nobits
 2731              		.align	2
 2734              	_ZZ4mainE11PhotoSensor:
 2735 0000 00000000 		.space	12
 2735      00000000 
 2735      00000000 
 2736              		.section	.bss._ZGVZ4mainE7lsm6dsr,"aw",%nobits
 2737              		.align	2
 2740              	_ZGVZ4mainE7lsm6dsr:
 2741 0000 00000000 		.space	4
 2742              		.section	.bss._ZZ4mainE7lsm6dsr,"aw",%nobits
 2743              		.align	2
 2746              	_ZZ4mainE7lsm6dsr:
 2747 0000 00000000 		.space	8
 2747      00000000 
 2748              		.section	.bss._ZGVZ4mainE13LEDController,"aw",%nobits
 2749              		.align	2
 2752              	_ZGVZ4mainE13LEDController:
 2753 0000 00000000 		.space	4
 2754              		.section	.bss._ZZ4mainE13LEDController,"aw",%nobits
 2755              		.align	2
 2758              	_ZZ4mainE13LEDController:
 2759 0000 00000000 		.space	48
 2759      00000000 
 2759      00000000 
 2759      00000000 
 2759      00000000 
 2760              		.section	.bss._ZGVZ4mainE16ModeChangeButton,"aw",%nobits
 2761              		.align	2
 2764              	_ZGVZ4mainE16ModeChangeButton:
 2765 0000 00000000 		.space	4
 2766              		.section	.bss._ZZ4mainE16ModeChangeButton,"aw",%nobits
 2767              		.align	2
 2770              	_ZZ4mainE16ModeChangeButton:
 2771 0000 00000000 		.space	8
 2771      00000000 
 2772              		.section	.bss._ZGVZ4mainE4spi3,"aw",%nobits
 2773              		.align	2
 2776              	_ZGVZ4mainE4spi3:
 2777 0000 00000000 		.space	4
 2778              		.section	.bss._ZZ4mainE4spi3,"aw",%nobits
 2779              		.align	2
 2782              	_ZZ4mainE4spi3:
 2783 0000 00000000 		.space	16
 2783      00000000 
 2783      00000000 
 2783      00000000 
 2784              		.section	.bss._ZGVZ4mainE11EncoderLeft,"aw",%nobits
 2785              		.align	2
 2788              	_ZGVZ4mainE11EncoderLeft:
 2789 0000 00000000 		.space	4
 2790              		.section	.bss._ZZ4mainE11EncoderLeft,"aw",%nobits
 2791              		.align	2
 2794              	_ZZ4mainE11EncoderLeft:
 2795 0000 00000000 		.space	8
ARM GAS  C:\Users\hanaj\AppData\Local\Temp\cczfNnLg.s 			page 78


 2795      00000000 
 2796              		.section	.bss._ZGVZ4mainE12EncoderRight,"aw",%nobits
 2797              		.align	2
 2800              	_ZGVZ4mainE12EncoderRight:
 2801 0000 00000000 		.space	4
 2802              		.section	.bss._ZZ4mainE12EncoderRight,"aw",%nobits
 2803              		.align	2
 2806              	_ZZ4mainE12EncoderRight:
 2807 0000 00000000 		.space	8
 2807      00000000 
 2808              		.section	.bss._ZGVZ4mainE12CalcDynamics,"aw",%nobits
 2809              		.align	2
 2812              	_ZGVZ4mainE12CalcDynamics:
 2813 0000 00000000 		.space	4
 2814              		.section	.bss._ZZ4mainE12CalcDynamics,"aw",%nobits
 2815              		.align	2
 2818              	_ZZ4mainE12CalcDynamics:
 2819 0000 00000000 		.space	12
 2819      00000000 
 2819      00000000 
 2820              		.section	.bss._ZGVZ4mainE6Buzzer,"aw",%nobits
 2821              		.align	2
 2824              	_ZGVZ4mainE6Buzzer:
 2825 0000 00000000 		.space	4
 2826              		.section	.bss._ZZ4mainE6Buzzer,"aw",%nobits
 2827              		.align	2
 2830              	_ZZ4mainE6Buzzer:
 2831 0000 00000000 		.space	8
 2831      00000000 
 2832              		.section	.bss._ZGVZ4mainE12SuctionMotor,"aw",%nobits
 2833              		.align	2
 2836              	_ZGVZ4mainE12SuctionMotor:
 2837 0000 00000000 		.space	4
 2838              		.section	.bss._ZZ4mainE12SuctionMotor,"aw",%nobits
 2839              		.align	2
 2842              	_ZZ4mainE12SuctionMotor:
 2843 0000 00000000 		.space	8
 2843      00000000 
 2844              		.section	.bss._ZGVZ4mainE7pwmLeft,"aw",%nobits
 2845              		.align	2
 2848              	_ZGVZ4mainE7pwmLeft:
 2849 0000 00000000 		.space	4
 2850              		.section	.bss._ZZ4mainE7pwmLeft,"aw",%nobits
 2851              		.align	2
 2854              	_ZZ4mainE7pwmLeft:
 2855 0000 00000000 		.space	8
 2855      00000000 
 2856              		.section	.bss._ZGVZ4mainE8pwmRight,"aw",%nobits
 2857              		.align	2
 2860              	_ZGVZ4mainE8pwmRight:
 2861 0000 00000000 		.space	4
 2862              		.section	.bss._ZZ4mainE8pwmRight,"aw",%nobits
 2863              		.align	2
 2866              	_ZZ4mainE8pwmRight:
 2867 0000 00000000 		.space	8
 2867      00000000 
 2868              		.section	.bss._ZGVZ4mainE4Adc3,"aw",%nobits
ARM GAS  C:\Users\hanaj\AppData\Local\Temp\cczfNnLg.s 			page 79


 2869              		.align	2
 2872              	_ZGVZ4mainE4Adc3:
 2873 0000 00000000 		.space	4
 2874              		.section	.bss._ZZ4mainE4Adc3,"aw",%nobits
 2875              		.align	2
 2878              	_ZZ4mainE4Adc3:
 2879 0000 00000000 		.space	8
 2879      00000000 
 2880              		.section	.bss._ZGVZ4mainE4Adc2,"aw",%nobits
 2881              		.align	2
 2884              	_ZGVZ4mainE4Adc2:
 2885 0000 00000000 		.space	4
 2886              		.section	.bss._ZZ4mainE4Adc2,"aw",%nobits
 2887              		.align	2
 2890              	_ZZ4mainE4Adc2:
 2891 0000 00000000 		.space	8
 2891      00000000 
 2892              		.section	.bss._ZGVZ4mainE4Adc1,"aw",%nobits
 2893              		.align	2
 2896              	_ZGVZ4mainE4Adc1:
 2897 0000 00000000 		.space	4
 2898              		.section	.bss._ZZ4mainE4Adc1,"aw",%nobits
 2899              		.align	2
 2902              	_ZZ4mainE4Adc1:
 2903 0000 00000000 		.space	8
 2903      00000000 
 2904              		.section	.bss._ZGVZ4mainE10gpioButton,"aw",%nobits
 2905              		.align	2
 2908              	_ZGVZ4mainE10gpioButton:
 2909 0000 00000000 		.space	4
 2910              		.section	.bss._ZZ4mainE10gpioButton,"aw",%nobits
 2911              		.align	2
 2914              	_ZZ4mainE10gpioButton:
 2915 0000 00000000 		.space	12
 2915      00000000 
 2915      00000000 
 2916              		.section	.bss._ZGVZ4mainE8ModeLED3,"aw",%nobits
 2917              		.align	2
 2920              	_ZGVZ4mainE8ModeLED3:
 2921 0000 00000000 		.space	4
 2922              		.section	.bss._ZZ4mainE8ModeLED3,"aw",%nobits
 2923              		.align	2
 2926              	_ZZ4mainE8ModeLED3:
 2927 0000 00000000 		.space	12
 2927      00000000 
 2927      00000000 
 2928              		.section	.bss._ZGVZ4mainE8ModeLED2,"aw",%nobits
 2929              		.align	2
 2932              	_ZGVZ4mainE8ModeLED2:
 2933 0000 00000000 		.space	4
 2934              		.section	.bss._ZZ4mainE8ModeLED2,"aw",%nobits
 2935              		.align	2
 2938              	_ZZ4mainE8ModeLED2:
 2939 0000 00000000 		.space	12
 2939      00000000 
 2939      00000000 
 2940              		.section	.bss._ZGVZ4mainE8ModeLED1,"aw",%nobits
ARM GAS  C:\Users\hanaj\AppData\Local\Temp\cczfNnLg.s 			page 80


 2941              		.align	2
 2944              	_ZGVZ4mainE8ModeLED1:
 2945 0000 00000000 		.space	4
 2946              		.section	.bss._ZZ4mainE8ModeLED1,"aw",%nobits
 2947              		.align	2
 2950              	_ZZ4mainE8ModeLED1:
 2951 0000 00000000 		.space	12
 2951      00000000 
 2951      00000000 
 2952              		.section	.bss._ZGVZ4mainE5LED_L,"aw",%nobits
 2953              		.align	2
 2956              	_ZGVZ4mainE5LED_L:
 2957 0000 00000000 		.space	4
 2958              		.section	.bss._ZZ4mainE5LED_L,"aw",%nobits
 2959              		.align	2
 2962              	_ZZ4mainE5LED_L:
 2963 0000 00000000 		.space	12
 2963      00000000 
 2963      00000000 
 2964              		.section	.bss._ZGVZ4mainE5LED_R,"aw",%nobits
 2965              		.align	2
 2968              	_ZGVZ4mainE5LED_R:
 2969 0000 00000000 		.space	4
 2970              		.section	.bss._ZZ4mainE5LED_R,"aw",%nobits
 2971              		.align	2
 2974              	_ZZ4mainE5LED_R:
 2975 0000 00000000 		.space	12
 2975      00000000 
 2975      00000000 
 2976              		.section	.bss._ZGVZ4mainE6LED_FR,"aw",%nobits
 2977              		.align	2
 2980              	_ZGVZ4mainE6LED_FR:
 2981 0000 00000000 		.space	4
 2982              		.section	.bss._ZZ4mainE6LED_FR,"aw",%nobits
 2983              		.align	2
 2986              	_ZZ4mainE6LED_FR:
 2987 0000 00000000 		.space	12
 2987      00000000 
 2987      00000000 
 2988              		.section	.bss._ZGVZ4mainE6LED_FL,"aw",%nobits
 2989              		.align	2
 2992              	_ZGVZ4mainE6LED_FL:
 2993 0000 00000000 		.space	4
 2994              		.section	.bss._ZZ4mainE6LED_FL,"aw",%nobits
 2995              		.align	2
 2998              	_ZZ4mainE6LED_FL:
 2999 0000 00000000 		.space	12
 2999      00000000 
 2999      00000000 
 3000              		.section	.bss._ZGVZ4mainE11SensorLED_L,"aw",%nobits
 3001              		.align	2
 3004              	_ZGVZ4mainE11SensorLED_L:
 3005 0000 00000000 		.space	4
 3006              		.section	.bss._ZZ4mainE11SensorLED_L,"aw",%nobits
 3007              		.align	2
 3010              	_ZZ4mainE11SensorLED_L:
 3011 0000 00000000 		.space	12
ARM GAS  C:\Users\hanaj\AppData\Local\Temp\cczfNnLg.s 			page 81


 3011      00000000 
 3011      00000000 
 3012              		.section	.bss._ZGVZ4mainE11SensorLED_R,"aw",%nobits
 3013              		.align	2
 3016              	_ZGVZ4mainE11SensorLED_R:
 3017 0000 00000000 		.space	4
 3018              		.section	.bss._ZZ4mainE11SensorLED_R,"aw",%nobits
 3019              		.align	2
 3022              	_ZZ4mainE11SensorLED_R:
 3023 0000 00000000 		.space	12
 3023      00000000 
 3023      00000000 
 3024              		.section	.bss._ZGVZ4mainE12SensorLED_FR,"aw",%nobits
 3025              		.align	2
 3028              	_ZGVZ4mainE12SensorLED_FR:
 3029 0000 00000000 		.space	4
 3030              		.section	.bss._ZZ4mainE12SensorLED_FR,"aw",%nobits
 3031              		.align	2
 3034              	_ZZ4mainE12SensorLED_FR:
 3035 0000 00000000 		.space	12
 3035      00000000 
 3035      00000000 
 3036              		.section	.bss._ZGVZ4mainE12SensorLED_FL,"aw",%nobits
 3037              		.align	2
 3040              	_ZGVZ4mainE12SensorLED_FL:
 3041 0000 00000000 		.space	4
 3042              		.section	.bss._ZZ4mainE12SensorLED_FL,"aw",%nobits
 3043              		.align	2
 3046              	_ZZ4mainE12SensorLED_FL:
 3047 0000 00000000 		.space	12
 3047      00000000 
 3047      00000000 
 3048              		.section	.bss._ZGVZ4mainE4BIN2,"aw",%nobits
 3049              		.align	2
 3052              	_ZGVZ4mainE4BIN2:
 3053 0000 00000000 		.space	4
 3054              		.section	.bss._ZZ4mainE4BIN2,"aw",%nobits
 3055              		.align	2
 3058              	_ZZ4mainE4BIN2:
 3059 0000 00000000 		.space	12
 3059      00000000 
 3059      00000000 
 3060              		.section	.bss._ZGVZ4mainE4BIN1,"aw",%nobits
 3061              		.align	2
 3064              	_ZGVZ4mainE4BIN1:
 3065 0000 00000000 		.space	4
 3066              		.section	.bss._ZZ4mainE4BIN1,"aw",%nobits
 3067              		.align	2
 3070              	_ZZ4mainE4BIN1:
 3071 0000 00000000 		.space	12
 3071      00000000 
 3071      00000000 
 3072              		.section	.bss._ZGVZ4mainE4AIN2,"aw",%nobits
 3073              		.align	2
 3076              	_ZGVZ4mainE4AIN2:
 3077 0000 00000000 		.space	4
 3078              		.section	.bss._ZZ4mainE4AIN2,"aw",%nobits
ARM GAS  C:\Users\hanaj\AppData\Local\Temp\cczfNnLg.s 			page 82


 3079              		.align	2
 3082              	_ZZ4mainE4AIN2:
 3083 0000 00000000 		.space	12
 3083      00000000 
 3083      00000000 
 3084              		.section	.bss._ZGVZ4mainE4AIN1,"aw",%nobits
 3085              		.align	2
 3088              	_ZGVZ4mainE4AIN1:
 3089 0000 00000000 		.space	4
 3090              		.section	.bss._ZZ4mainE4AIN1,"aw",%nobits
 3091              		.align	2
 3094              	_ZZ4mainE4AIN1:
 3095 0000 00000000 		.space	12
 3095      00000000 
 3095      00000000 
 3096              		.section	.bss._ZL9adcBuffer,"aw",%nobits
 3097              		.align	2
 3100              	_ZL9adcBuffer:
 3101 0000 00000000 		.space	8
 3101      00000000 
 3102              		.weak	__cxa_pure_virtual
 3103              		.text
 3104              	.Letext0:
 3105              		.file 13 "C:/Tools/arm-gnu-toolchain/arm-none-eabi/include/machine/_default_types.h"
 3106              		.file 14 "C:/Tools/arm-gnu-toolchain/arm-none-eabi/include/sys/_stdint.h"
 3107              		.file 15 "C:/Tools/arm-gnu-toolchain/arm-none-eabi/include/stdint.h"
 3108              		.file 16 "Drivers/CMSIS/Device/ST/STM32F4xx/Include/stm32f405xx.h"
 3109              		.file 17 "Drivers/CMSIS/Device/ST/STM32F4xx/Include/stm32f4xx.h"
 3110              		.file 18 "Drivers/STM32F4xx_HAL_Driver/Inc/stm32f4xx_hal_def.h"
 3111              		.file 19 "Drivers/STM32F4xx_HAL_Driver/Inc/stm32f4xx_hal_rcc_ex.h"
 3112              		.file 20 "Drivers/STM32F4xx_HAL_Driver/Inc/stm32f4xx_hal_rcc.h"
 3113              		.file 21 "Drivers/STM32F4xx_HAL_Driver/Inc/stm32f4xx_hal_dma.h"
 3114              		.file 22 "Drivers/STM32F4xx_HAL_Driver/Inc/stm32f4xx_hal_adc.h"
 3115              		.file 23 "Drivers/STM32F4xx_HAL_Driver/Inc/stm32f4xx_hal_spi.h"
 3116              		.file 24 "Drivers/STM32F4xx_HAL_Driver/Inc/stm32f4xx_hal_tim.h"
 3117              		.file 25 "Drivers/STM32F4xx_HAL_Driver/Inc/stm32f4xx_hal.h"
 3118              		.file 26 "Core/Inc/adc.h"
 3119              		.file 27 "Core/Inc/spi.h"
 3120              		.file 28 "Core/Inc/tim.h"
 3121              		.file 29 "C:/Tools/arm-gnu-toolchain/arm-none-eabi/include/c++/13.2.1/cstdint"
 3122              		.file 30 "C:/Tools/arm-gnu-toolchain/arm-none-eabi/include/c++/13.2.1/arm-none-eabi/thumb/v7e-m+fp
 3123              		.file 31 "Core/Src/../HALinterface/Inc/PwmSTM32F4.hpp"
 3124              		.file 32 "Core/Src/../Driver/Inc/Button.hpp"
 3125              		.file 33 "Core/Src/../Driver/Inc/MotorDriver.hpp"
 3126              		.file 34 "Core/Src/../Driver/Inc/IMUDriver.hpp"
 3127              		.file 35 "Core/Src/../Driver/Inc/PhotoSensor.hpp"
 3128              		.file 36 "Core/Src/../Driver/Inc/LEDController.hpp"
 3129              		.file 37 "Core/Inc/dma.h"
 3130              		.file 38 "Core/Inc/gpio.h"
ARM GAS  C:\Users\hanaj\AppData\Local\Temp\cczfNnLg.s 			page 83

