ARM GAS  C:\Users\hanaj\AppData\Local\Temp\ccO9sAWH.s 			page 1


   1              		.cpu cortex-m4
   2              		.arch armv7e-m
   3              		.fpu fpv4-sp-d16
   4              		.eabi_attribute 27, 1
   5              		.eabi_attribute 28, 1
   6              		.eabi_attribute 20, 1
   7              		.eabi_attribute 21, 1
   8              		.eabi_attribute 23, 3
   9              		.eabi_attribute 24, 1
  10              		.eabi_attribute 25, 1
  11              		.eabi_attribute 26, 1
  12              		.eabi_attribute 30, 1
  13              		.eabi_attribute 34, 1
  14              		.eabi_attribute 18, 4
  15              		.file	"stm32f4xx_hal_dma_ex.c"
  16              		.text
  17              	.Ltext0:
  18              		.cfi_sections	.debug_frame
  19              		.file 1 "Drivers/STM32F4xx_HAL_Driver/Src/stm32f4xx_hal_dma_ex.c"
  20              		.section	.text.DMA_MultiBufferSetConfig,"ax",%progbits
  21              		.align	1
  22              		.syntax unified
  23              		.thumb
  24              		.thumb_func
  26              	DMA_MultiBufferSetConfig:
  27              	.LVL0:
  28              	.LFB242:
   1:Drivers/STM32F4xx_HAL_Driver/Src/stm32f4xx_hal_dma_ex.c **** /**
   2:Drivers/STM32F4xx_HAL_Driver/Src/stm32f4xx_hal_dma_ex.c ****   ******************************************************************************
   3:Drivers/STM32F4xx_HAL_Driver/Src/stm32f4xx_hal_dma_ex.c ****   * @file    stm32f4xx_hal_dma_ex.c
   4:Drivers/STM32F4xx_HAL_Driver/Src/stm32f4xx_hal_dma_ex.c ****   * @author  MCD Application Team
   5:Drivers/STM32F4xx_HAL_Driver/Src/stm32f4xx_hal_dma_ex.c ****   * @brief   DMA Extension HAL module driver
   6:Drivers/STM32F4xx_HAL_Driver/Src/stm32f4xx_hal_dma_ex.c ****   *         This file provides firmware functions to manage the following 
   7:Drivers/STM32F4xx_HAL_Driver/Src/stm32f4xx_hal_dma_ex.c ****   *         functionalities of the DMA Extension peripheral:
   8:Drivers/STM32F4xx_HAL_Driver/Src/stm32f4xx_hal_dma_ex.c ****   *           + Extended features functions
   9:Drivers/STM32F4xx_HAL_Driver/Src/stm32f4xx_hal_dma_ex.c ****   *
  10:Drivers/STM32F4xx_HAL_Driver/Src/stm32f4xx_hal_dma_ex.c ****   @verbatim
  11:Drivers/STM32F4xx_HAL_Driver/Src/stm32f4xx_hal_dma_ex.c ****   ==============================================================================
  12:Drivers/STM32F4xx_HAL_Driver/Src/stm32f4xx_hal_dma_ex.c ****                         ##### How to use this driver #####
  13:Drivers/STM32F4xx_HAL_Driver/Src/stm32f4xx_hal_dma_ex.c ****   ==============================================================================
  14:Drivers/STM32F4xx_HAL_Driver/Src/stm32f4xx_hal_dma_ex.c ****   [..]
  15:Drivers/STM32F4xx_HAL_Driver/Src/stm32f4xx_hal_dma_ex.c ****   The DMA Extension HAL driver can be used as follows:
  16:Drivers/STM32F4xx_HAL_Driver/Src/stm32f4xx_hal_dma_ex.c ****    (#) Start a multi buffer transfer using the HAL_DMA_MultiBufferStart() function
  17:Drivers/STM32F4xx_HAL_Driver/Src/stm32f4xx_hal_dma_ex.c ****        for polling mode or HAL_DMA_MultiBufferStart_IT() for interrupt mode.
  18:Drivers/STM32F4xx_HAL_Driver/Src/stm32f4xx_hal_dma_ex.c ****                    
  19:Drivers/STM32F4xx_HAL_Driver/Src/stm32f4xx_hal_dma_ex.c ****      -@-  In Memory-to-Memory transfer mode, Multi (Double) Buffer mode is not allowed.
  20:Drivers/STM32F4xx_HAL_Driver/Src/stm32f4xx_hal_dma_ex.c ****      -@-  When Multi (Double) Buffer mode is enabled the, transfer is circular by default.
  21:Drivers/STM32F4xx_HAL_Driver/Src/stm32f4xx_hal_dma_ex.c ****      -@-  In Multi (Double) buffer mode, it is possible to update the base address for 
  22:Drivers/STM32F4xx_HAL_Driver/Src/stm32f4xx_hal_dma_ex.c ****           the AHB memory port on the fly (DMA_SxM0AR or DMA_SxM1AR) when the stream is enabled. 
  23:Drivers/STM32F4xx_HAL_Driver/Src/stm32f4xx_hal_dma_ex.c ****   
  24:Drivers/STM32F4xx_HAL_Driver/Src/stm32f4xx_hal_dma_ex.c ****   @endverbatim
  25:Drivers/STM32F4xx_HAL_Driver/Src/stm32f4xx_hal_dma_ex.c ****   ******************************************************************************
  26:Drivers/STM32F4xx_HAL_Driver/Src/stm32f4xx_hal_dma_ex.c ****   * @attention
  27:Drivers/STM32F4xx_HAL_Driver/Src/stm32f4xx_hal_dma_ex.c ****   *
  28:Drivers/STM32F4xx_HAL_Driver/Src/stm32f4xx_hal_dma_ex.c ****   * Copyright (c) 2017 STMicroelectronics.
  29:Drivers/STM32F4xx_HAL_Driver/Src/stm32f4xx_hal_dma_ex.c ****   * All rights reserved.
  30:Drivers/STM32F4xx_HAL_Driver/Src/stm32f4xx_hal_dma_ex.c ****   *
ARM GAS  C:\Users\hanaj\AppData\Local\Temp\ccO9sAWH.s 			page 2


  31:Drivers/STM32F4xx_HAL_Driver/Src/stm32f4xx_hal_dma_ex.c ****   * This software is licensed under terms that can be found in the LICENSE file in
  32:Drivers/STM32F4xx_HAL_Driver/Src/stm32f4xx_hal_dma_ex.c ****   * the root directory of this software component.
  33:Drivers/STM32F4xx_HAL_Driver/Src/stm32f4xx_hal_dma_ex.c ****   * If no LICENSE file comes with this software, it is provided AS-IS.
  34:Drivers/STM32F4xx_HAL_Driver/Src/stm32f4xx_hal_dma_ex.c ****   *
  35:Drivers/STM32F4xx_HAL_Driver/Src/stm32f4xx_hal_dma_ex.c ****   ******************************************************************************
  36:Drivers/STM32F4xx_HAL_Driver/Src/stm32f4xx_hal_dma_ex.c ****   */
  37:Drivers/STM32F4xx_HAL_Driver/Src/stm32f4xx_hal_dma_ex.c **** 
  38:Drivers/STM32F4xx_HAL_Driver/Src/stm32f4xx_hal_dma_ex.c **** /* Includes ------------------------------------------------------------------*/
  39:Drivers/STM32F4xx_HAL_Driver/Src/stm32f4xx_hal_dma_ex.c **** #include "stm32f4xx_hal.h"
  40:Drivers/STM32F4xx_HAL_Driver/Src/stm32f4xx_hal_dma_ex.c **** 
  41:Drivers/STM32F4xx_HAL_Driver/Src/stm32f4xx_hal_dma_ex.c **** /** @addtogroup STM32F4xx_HAL_Driver
  42:Drivers/STM32F4xx_HAL_Driver/Src/stm32f4xx_hal_dma_ex.c ****   * @{
  43:Drivers/STM32F4xx_HAL_Driver/Src/stm32f4xx_hal_dma_ex.c ****   */
  44:Drivers/STM32F4xx_HAL_Driver/Src/stm32f4xx_hal_dma_ex.c **** 
  45:Drivers/STM32F4xx_HAL_Driver/Src/stm32f4xx_hal_dma_ex.c **** /** @defgroup DMAEx DMAEx
  46:Drivers/STM32F4xx_HAL_Driver/Src/stm32f4xx_hal_dma_ex.c ****   * @brief DMA Extended HAL module driver
  47:Drivers/STM32F4xx_HAL_Driver/Src/stm32f4xx_hal_dma_ex.c ****   * @{
  48:Drivers/STM32F4xx_HAL_Driver/Src/stm32f4xx_hal_dma_ex.c ****   */
  49:Drivers/STM32F4xx_HAL_Driver/Src/stm32f4xx_hal_dma_ex.c **** 
  50:Drivers/STM32F4xx_HAL_Driver/Src/stm32f4xx_hal_dma_ex.c **** #ifdef HAL_DMA_MODULE_ENABLED
  51:Drivers/STM32F4xx_HAL_Driver/Src/stm32f4xx_hal_dma_ex.c **** 
  52:Drivers/STM32F4xx_HAL_Driver/Src/stm32f4xx_hal_dma_ex.c **** /* Private types -------------------------------------------------------------*/
  53:Drivers/STM32F4xx_HAL_Driver/Src/stm32f4xx_hal_dma_ex.c **** /* Private variables ---------------------------------------------------------*/
  54:Drivers/STM32F4xx_HAL_Driver/Src/stm32f4xx_hal_dma_ex.c **** /* Private Constants ---------------------------------------------------------*/
  55:Drivers/STM32F4xx_HAL_Driver/Src/stm32f4xx_hal_dma_ex.c **** /* Private macros ------------------------------------------------------------*/
  56:Drivers/STM32F4xx_HAL_Driver/Src/stm32f4xx_hal_dma_ex.c **** /* Private functions ---------------------------------------------------------*/
  57:Drivers/STM32F4xx_HAL_Driver/Src/stm32f4xx_hal_dma_ex.c **** /** @addtogroup DMAEx_Private_Functions
  58:Drivers/STM32F4xx_HAL_Driver/Src/stm32f4xx_hal_dma_ex.c ****   * @{
  59:Drivers/STM32F4xx_HAL_Driver/Src/stm32f4xx_hal_dma_ex.c ****   */
  60:Drivers/STM32F4xx_HAL_Driver/Src/stm32f4xx_hal_dma_ex.c **** static void DMA_MultiBufferSetConfig(DMA_HandleTypeDef *hdma, uint32_t SrcAddress, uint32_t DstAddr
  61:Drivers/STM32F4xx_HAL_Driver/Src/stm32f4xx_hal_dma_ex.c **** /**
  62:Drivers/STM32F4xx_HAL_Driver/Src/stm32f4xx_hal_dma_ex.c ****   * @}
  63:Drivers/STM32F4xx_HAL_Driver/Src/stm32f4xx_hal_dma_ex.c ****   */
  64:Drivers/STM32F4xx_HAL_Driver/Src/stm32f4xx_hal_dma_ex.c **** 
  65:Drivers/STM32F4xx_HAL_Driver/Src/stm32f4xx_hal_dma_ex.c **** /* Exported functions ---------------------------------------------------------*/
  66:Drivers/STM32F4xx_HAL_Driver/Src/stm32f4xx_hal_dma_ex.c **** 
  67:Drivers/STM32F4xx_HAL_Driver/Src/stm32f4xx_hal_dma_ex.c **** /** @addtogroup DMAEx_Exported_Functions
  68:Drivers/STM32F4xx_HAL_Driver/Src/stm32f4xx_hal_dma_ex.c ****   * @{
  69:Drivers/STM32F4xx_HAL_Driver/Src/stm32f4xx_hal_dma_ex.c ****   */
  70:Drivers/STM32F4xx_HAL_Driver/Src/stm32f4xx_hal_dma_ex.c **** 
  71:Drivers/STM32F4xx_HAL_Driver/Src/stm32f4xx_hal_dma_ex.c **** 
  72:Drivers/STM32F4xx_HAL_Driver/Src/stm32f4xx_hal_dma_ex.c **** /** @addtogroup DMAEx_Exported_Functions_Group1
  73:Drivers/STM32F4xx_HAL_Driver/Src/stm32f4xx_hal_dma_ex.c ****   *
  74:Drivers/STM32F4xx_HAL_Driver/Src/stm32f4xx_hal_dma_ex.c **** @verbatim   
  75:Drivers/STM32F4xx_HAL_Driver/Src/stm32f4xx_hal_dma_ex.c ****  ===============================================================================
  76:Drivers/STM32F4xx_HAL_Driver/Src/stm32f4xx_hal_dma_ex.c ****                 #####  Extended features functions  #####
  77:Drivers/STM32F4xx_HAL_Driver/Src/stm32f4xx_hal_dma_ex.c ****  ===============================================================================  
  78:Drivers/STM32F4xx_HAL_Driver/Src/stm32f4xx_hal_dma_ex.c ****     [..]  This section provides functions allowing to:
  79:Drivers/STM32F4xx_HAL_Driver/Src/stm32f4xx_hal_dma_ex.c ****       (+) Configure the source, destination address and data length and 
  80:Drivers/STM32F4xx_HAL_Driver/Src/stm32f4xx_hal_dma_ex.c ****           Start MultiBuffer DMA transfer
  81:Drivers/STM32F4xx_HAL_Driver/Src/stm32f4xx_hal_dma_ex.c ****       (+) Configure the source, destination address and data length and 
  82:Drivers/STM32F4xx_HAL_Driver/Src/stm32f4xx_hal_dma_ex.c ****           Start MultiBuffer DMA transfer with interrupt
  83:Drivers/STM32F4xx_HAL_Driver/Src/stm32f4xx_hal_dma_ex.c ****       (+) Change on the fly the memory0 or memory1 address.
  84:Drivers/STM32F4xx_HAL_Driver/Src/stm32f4xx_hal_dma_ex.c ****       
  85:Drivers/STM32F4xx_HAL_Driver/Src/stm32f4xx_hal_dma_ex.c **** @endverbatim
  86:Drivers/STM32F4xx_HAL_Driver/Src/stm32f4xx_hal_dma_ex.c ****   * @{
  87:Drivers/STM32F4xx_HAL_Driver/Src/stm32f4xx_hal_dma_ex.c ****   */
ARM GAS  C:\Users\hanaj\AppData\Local\Temp\ccO9sAWH.s 			page 3


  88:Drivers/STM32F4xx_HAL_Driver/Src/stm32f4xx_hal_dma_ex.c **** 
  89:Drivers/STM32F4xx_HAL_Driver/Src/stm32f4xx_hal_dma_ex.c **** 
  90:Drivers/STM32F4xx_HAL_Driver/Src/stm32f4xx_hal_dma_ex.c **** /**
  91:Drivers/STM32F4xx_HAL_Driver/Src/stm32f4xx_hal_dma_ex.c ****   * @brief  Starts the multi_buffer DMA Transfer.
  92:Drivers/STM32F4xx_HAL_Driver/Src/stm32f4xx_hal_dma_ex.c ****   * @param  hdma       pointer to a DMA_HandleTypeDef structure that contains
  93:Drivers/STM32F4xx_HAL_Driver/Src/stm32f4xx_hal_dma_ex.c ****   *                     the configuration information for the specified DMA Stream.  
  94:Drivers/STM32F4xx_HAL_Driver/Src/stm32f4xx_hal_dma_ex.c ****   * @param  SrcAddress The source memory Buffer address
  95:Drivers/STM32F4xx_HAL_Driver/Src/stm32f4xx_hal_dma_ex.c ****   * @param  DstAddress The destination memory Buffer address
  96:Drivers/STM32F4xx_HAL_Driver/Src/stm32f4xx_hal_dma_ex.c ****   * @param  SecondMemAddress The second memory Buffer address in case of multi buffer Transfer  
  97:Drivers/STM32F4xx_HAL_Driver/Src/stm32f4xx_hal_dma_ex.c ****   * @param  DataLength The length of data to be transferred from source to destination
  98:Drivers/STM32F4xx_HAL_Driver/Src/stm32f4xx_hal_dma_ex.c ****   * @retval HAL status
  99:Drivers/STM32F4xx_HAL_Driver/Src/stm32f4xx_hal_dma_ex.c ****   */
 100:Drivers/STM32F4xx_HAL_Driver/Src/stm32f4xx_hal_dma_ex.c **** HAL_StatusTypeDef HAL_DMAEx_MultiBufferStart(DMA_HandleTypeDef *hdma, uint32_t SrcAddress, uint32_t
 101:Drivers/STM32F4xx_HAL_Driver/Src/stm32f4xx_hal_dma_ex.c **** {
 102:Drivers/STM32F4xx_HAL_Driver/Src/stm32f4xx_hal_dma_ex.c ****   HAL_StatusTypeDef status = HAL_OK;
 103:Drivers/STM32F4xx_HAL_Driver/Src/stm32f4xx_hal_dma_ex.c ****   
 104:Drivers/STM32F4xx_HAL_Driver/Src/stm32f4xx_hal_dma_ex.c ****   /* Check the parameters */
 105:Drivers/STM32F4xx_HAL_Driver/Src/stm32f4xx_hal_dma_ex.c ****   assert_param(IS_DMA_BUFFER_SIZE(DataLength));
 106:Drivers/STM32F4xx_HAL_Driver/Src/stm32f4xx_hal_dma_ex.c ****   
 107:Drivers/STM32F4xx_HAL_Driver/Src/stm32f4xx_hal_dma_ex.c ****   /* Memory-to-memory transfer not supported in double buffering mode */
 108:Drivers/STM32F4xx_HAL_Driver/Src/stm32f4xx_hal_dma_ex.c ****   if (hdma->Init.Direction == DMA_MEMORY_TO_MEMORY)
 109:Drivers/STM32F4xx_HAL_Driver/Src/stm32f4xx_hal_dma_ex.c ****   {
 110:Drivers/STM32F4xx_HAL_Driver/Src/stm32f4xx_hal_dma_ex.c ****     hdma->ErrorCode = HAL_DMA_ERROR_NOT_SUPPORTED;
 111:Drivers/STM32F4xx_HAL_Driver/Src/stm32f4xx_hal_dma_ex.c ****     status = HAL_ERROR;
 112:Drivers/STM32F4xx_HAL_Driver/Src/stm32f4xx_hal_dma_ex.c ****   }
 113:Drivers/STM32F4xx_HAL_Driver/Src/stm32f4xx_hal_dma_ex.c ****   else
 114:Drivers/STM32F4xx_HAL_Driver/Src/stm32f4xx_hal_dma_ex.c ****   {
 115:Drivers/STM32F4xx_HAL_Driver/Src/stm32f4xx_hal_dma_ex.c ****     /* Process Locked */
 116:Drivers/STM32F4xx_HAL_Driver/Src/stm32f4xx_hal_dma_ex.c ****     __HAL_LOCK(hdma);
 117:Drivers/STM32F4xx_HAL_Driver/Src/stm32f4xx_hal_dma_ex.c ****     
 118:Drivers/STM32F4xx_HAL_Driver/Src/stm32f4xx_hal_dma_ex.c ****     if(HAL_DMA_STATE_READY == hdma->State)
 119:Drivers/STM32F4xx_HAL_Driver/Src/stm32f4xx_hal_dma_ex.c ****     {
 120:Drivers/STM32F4xx_HAL_Driver/Src/stm32f4xx_hal_dma_ex.c ****       /* Change DMA peripheral state */
 121:Drivers/STM32F4xx_HAL_Driver/Src/stm32f4xx_hal_dma_ex.c ****       hdma->State = HAL_DMA_STATE_BUSY; 
 122:Drivers/STM32F4xx_HAL_Driver/Src/stm32f4xx_hal_dma_ex.c ****       
 123:Drivers/STM32F4xx_HAL_Driver/Src/stm32f4xx_hal_dma_ex.c ****       /* Enable the double buffer mode */
 124:Drivers/STM32F4xx_HAL_Driver/Src/stm32f4xx_hal_dma_ex.c ****       hdma->Instance->CR |= (uint32_t)DMA_SxCR_DBM;
 125:Drivers/STM32F4xx_HAL_Driver/Src/stm32f4xx_hal_dma_ex.c ****       
 126:Drivers/STM32F4xx_HAL_Driver/Src/stm32f4xx_hal_dma_ex.c ****       /* Configure DMA Stream destination address */
 127:Drivers/STM32F4xx_HAL_Driver/Src/stm32f4xx_hal_dma_ex.c ****       hdma->Instance->M1AR = SecondMemAddress;
 128:Drivers/STM32F4xx_HAL_Driver/Src/stm32f4xx_hal_dma_ex.c ****       
 129:Drivers/STM32F4xx_HAL_Driver/Src/stm32f4xx_hal_dma_ex.c ****       /* Configure the source, destination address and the data length */
 130:Drivers/STM32F4xx_HAL_Driver/Src/stm32f4xx_hal_dma_ex.c ****       DMA_MultiBufferSetConfig(hdma, SrcAddress, DstAddress, DataLength);
 131:Drivers/STM32F4xx_HAL_Driver/Src/stm32f4xx_hal_dma_ex.c ****       
 132:Drivers/STM32F4xx_HAL_Driver/Src/stm32f4xx_hal_dma_ex.c ****       /* Enable the peripheral */
 133:Drivers/STM32F4xx_HAL_Driver/Src/stm32f4xx_hal_dma_ex.c ****       __HAL_DMA_ENABLE(hdma);
 134:Drivers/STM32F4xx_HAL_Driver/Src/stm32f4xx_hal_dma_ex.c ****     }
 135:Drivers/STM32F4xx_HAL_Driver/Src/stm32f4xx_hal_dma_ex.c ****     else
 136:Drivers/STM32F4xx_HAL_Driver/Src/stm32f4xx_hal_dma_ex.c ****     {
 137:Drivers/STM32F4xx_HAL_Driver/Src/stm32f4xx_hal_dma_ex.c ****       /* Return error status */
 138:Drivers/STM32F4xx_HAL_Driver/Src/stm32f4xx_hal_dma_ex.c ****       status = HAL_BUSY;
 139:Drivers/STM32F4xx_HAL_Driver/Src/stm32f4xx_hal_dma_ex.c ****     }
 140:Drivers/STM32F4xx_HAL_Driver/Src/stm32f4xx_hal_dma_ex.c ****   }
 141:Drivers/STM32F4xx_HAL_Driver/Src/stm32f4xx_hal_dma_ex.c ****   return status;
 142:Drivers/STM32F4xx_HAL_Driver/Src/stm32f4xx_hal_dma_ex.c **** }
 143:Drivers/STM32F4xx_HAL_Driver/Src/stm32f4xx_hal_dma_ex.c **** 
 144:Drivers/STM32F4xx_HAL_Driver/Src/stm32f4xx_hal_dma_ex.c **** /**
ARM GAS  C:\Users\hanaj\AppData\Local\Temp\ccO9sAWH.s 			page 4


 145:Drivers/STM32F4xx_HAL_Driver/Src/stm32f4xx_hal_dma_ex.c ****   * @brief  Starts the multi_buffer DMA Transfer with interrupt enabled.
 146:Drivers/STM32F4xx_HAL_Driver/Src/stm32f4xx_hal_dma_ex.c ****   * @param  hdma       pointer to a DMA_HandleTypeDef structure that contains
 147:Drivers/STM32F4xx_HAL_Driver/Src/stm32f4xx_hal_dma_ex.c ****   *                     the configuration information for the specified DMA Stream.  
 148:Drivers/STM32F4xx_HAL_Driver/Src/stm32f4xx_hal_dma_ex.c ****   * @param  SrcAddress The source memory Buffer address
 149:Drivers/STM32F4xx_HAL_Driver/Src/stm32f4xx_hal_dma_ex.c ****   * @param  DstAddress The destination memory Buffer address
 150:Drivers/STM32F4xx_HAL_Driver/Src/stm32f4xx_hal_dma_ex.c ****   * @param  SecondMemAddress The second memory Buffer address in case of multi buffer Transfer  
 151:Drivers/STM32F4xx_HAL_Driver/Src/stm32f4xx_hal_dma_ex.c ****   * @param  DataLength The length of data to be transferred from source to destination
 152:Drivers/STM32F4xx_HAL_Driver/Src/stm32f4xx_hal_dma_ex.c ****   * @retval HAL status
 153:Drivers/STM32F4xx_HAL_Driver/Src/stm32f4xx_hal_dma_ex.c ****   */
 154:Drivers/STM32F4xx_HAL_Driver/Src/stm32f4xx_hal_dma_ex.c **** HAL_StatusTypeDef HAL_DMAEx_MultiBufferStart_IT(DMA_HandleTypeDef *hdma, uint32_t SrcAddress, uint3
 155:Drivers/STM32F4xx_HAL_Driver/Src/stm32f4xx_hal_dma_ex.c **** {
 156:Drivers/STM32F4xx_HAL_Driver/Src/stm32f4xx_hal_dma_ex.c ****   HAL_StatusTypeDef status = HAL_OK;
 157:Drivers/STM32F4xx_HAL_Driver/Src/stm32f4xx_hal_dma_ex.c ****   
 158:Drivers/STM32F4xx_HAL_Driver/Src/stm32f4xx_hal_dma_ex.c ****   /* Check the parameters */
 159:Drivers/STM32F4xx_HAL_Driver/Src/stm32f4xx_hal_dma_ex.c ****   assert_param(IS_DMA_BUFFER_SIZE(DataLength));
 160:Drivers/STM32F4xx_HAL_Driver/Src/stm32f4xx_hal_dma_ex.c ****   
 161:Drivers/STM32F4xx_HAL_Driver/Src/stm32f4xx_hal_dma_ex.c ****   /* Memory-to-memory transfer not supported in double buffering mode */
 162:Drivers/STM32F4xx_HAL_Driver/Src/stm32f4xx_hal_dma_ex.c ****   if (hdma->Init.Direction == DMA_MEMORY_TO_MEMORY)
 163:Drivers/STM32F4xx_HAL_Driver/Src/stm32f4xx_hal_dma_ex.c ****   {
 164:Drivers/STM32F4xx_HAL_Driver/Src/stm32f4xx_hal_dma_ex.c ****     hdma->ErrorCode = HAL_DMA_ERROR_NOT_SUPPORTED;
 165:Drivers/STM32F4xx_HAL_Driver/Src/stm32f4xx_hal_dma_ex.c ****     return HAL_ERROR;
 166:Drivers/STM32F4xx_HAL_Driver/Src/stm32f4xx_hal_dma_ex.c ****   }
 167:Drivers/STM32F4xx_HAL_Driver/Src/stm32f4xx_hal_dma_ex.c ****   
 168:Drivers/STM32F4xx_HAL_Driver/Src/stm32f4xx_hal_dma_ex.c ****   /* Check callback functions */
 169:Drivers/STM32F4xx_HAL_Driver/Src/stm32f4xx_hal_dma_ex.c ****   if ((NULL == hdma->XferCpltCallback) || (NULL == hdma->XferM1CpltCallback) || (NULL == hdma->Xfer
 170:Drivers/STM32F4xx_HAL_Driver/Src/stm32f4xx_hal_dma_ex.c ****   {
 171:Drivers/STM32F4xx_HAL_Driver/Src/stm32f4xx_hal_dma_ex.c ****     hdma->ErrorCode = HAL_DMA_ERROR_PARAM;
 172:Drivers/STM32F4xx_HAL_Driver/Src/stm32f4xx_hal_dma_ex.c ****     return HAL_ERROR;
 173:Drivers/STM32F4xx_HAL_Driver/Src/stm32f4xx_hal_dma_ex.c ****   }
 174:Drivers/STM32F4xx_HAL_Driver/Src/stm32f4xx_hal_dma_ex.c ****   
 175:Drivers/STM32F4xx_HAL_Driver/Src/stm32f4xx_hal_dma_ex.c ****   /* Process locked */
 176:Drivers/STM32F4xx_HAL_Driver/Src/stm32f4xx_hal_dma_ex.c ****   __HAL_LOCK(hdma);
 177:Drivers/STM32F4xx_HAL_Driver/Src/stm32f4xx_hal_dma_ex.c ****   
 178:Drivers/STM32F4xx_HAL_Driver/Src/stm32f4xx_hal_dma_ex.c ****   if(HAL_DMA_STATE_READY == hdma->State)
 179:Drivers/STM32F4xx_HAL_Driver/Src/stm32f4xx_hal_dma_ex.c ****   {
 180:Drivers/STM32F4xx_HAL_Driver/Src/stm32f4xx_hal_dma_ex.c ****     /* Change DMA peripheral state */
 181:Drivers/STM32F4xx_HAL_Driver/Src/stm32f4xx_hal_dma_ex.c ****     hdma->State = HAL_DMA_STATE_BUSY;
 182:Drivers/STM32F4xx_HAL_Driver/Src/stm32f4xx_hal_dma_ex.c ****     
 183:Drivers/STM32F4xx_HAL_Driver/Src/stm32f4xx_hal_dma_ex.c ****     /* Initialize the error code */
 184:Drivers/STM32F4xx_HAL_Driver/Src/stm32f4xx_hal_dma_ex.c ****     hdma->ErrorCode = HAL_DMA_ERROR_NONE;
 185:Drivers/STM32F4xx_HAL_Driver/Src/stm32f4xx_hal_dma_ex.c ****     
 186:Drivers/STM32F4xx_HAL_Driver/Src/stm32f4xx_hal_dma_ex.c ****     /* Enable the Double buffer mode */
 187:Drivers/STM32F4xx_HAL_Driver/Src/stm32f4xx_hal_dma_ex.c ****     hdma->Instance->CR |= (uint32_t)DMA_SxCR_DBM;
 188:Drivers/STM32F4xx_HAL_Driver/Src/stm32f4xx_hal_dma_ex.c ****     
 189:Drivers/STM32F4xx_HAL_Driver/Src/stm32f4xx_hal_dma_ex.c ****     /* Configure DMA Stream destination address */
 190:Drivers/STM32F4xx_HAL_Driver/Src/stm32f4xx_hal_dma_ex.c ****     hdma->Instance->M1AR = SecondMemAddress;
 191:Drivers/STM32F4xx_HAL_Driver/Src/stm32f4xx_hal_dma_ex.c ****     
 192:Drivers/STM32F4xx_HAL_Driver/Src/stm32f4xx_hal_dma_ex.c ****     /* Configure the source, destination address and the data length */
 193:Drivers/STM32F4xx_HAL_Driver/Src/stm32f4xx_hal_dma_ex.c ****     DMA_MultiBufferSetConfig(hdma, SrcAddress, DstAddress, DataLength); 
 194:Drivers/STM32F4xx_HAL_Driver/Src/stm32f4xx_hal_dma_ex.c ****     
 195:Drivers/STM32F4xx_HAL_Driver/Src/stm32f4xx_hal_dma_ex.c ****     /* Clear all flags */
 196:Drivers/STM32F4xx_HAL_Driver/Src/stm32f4xx_hal_dma_ex.c ****     __HAL_DMA_CLEAR_FLAG (hdma, __HAL_DMA_GET_TC_FLAG_INDEX(hdma));
 197:Drivers/STM32F4xx_HAL_Driver/Src/stm32f4xx_hal_dma_ex.c ****     __HAL_DMA_CLEAR_FLAG (hdma, __HAL_DMA_GET_HT_FLAG_INDEX(hdma));
 198:Drivers/STM32F4xx_HAL_Driver/Src/stm32f4xx_hal_dma_ex.c ****     __HAL_DMA_CLEAR_FLAG (hdma, __HAL_DMA_GET_TE_FLAG_INDEX(hdma));
 199:Drivers/STM32F4xx_HAL_Driver/Src/stm32f4xx_hal_dma_ex.c ****     __HAL_DMA_CLEAR_FLAG (hdma, __HAL_DMA_GET_DME_FLAG_INDEX(hdma));
 200:Drivers/STM32F4xx_HAL_Driver/Src/stm32f4xx_hal_dma_ex.c ****     __HAL_DMA_CLEAR_FLAG (hdma, __HAL_DMA_GET_FE_FLAG_INDEX(hdma));
 201:Drivers/STM32F4xx_HAL_Driver/Src/stm32f4xx_hal_dma_ex.c **** 
ARM GAS  C:\Users\hanaj\AppData\Local\Temp\ccO9sAWH.s 			page 5


 202:Drivers/STM32F4xx_HAL_Driver/Src/stm32f4xx_hal_dma_ex.c ****     /* Enable Common interrupts*/
 203:Drivers/STM32F4xx_HAL_Driver/Src/stm32f4xx_hal_dma_ex.c ****     hdma->Instance->CR  |= DMA_IT_TC | DMA_IT_TE | DMA_IT_DME;
 204:Drivers/STM32F4xx_HAL_Driver/Src/stm32f4xx_hal_dma_ex.c ****     hdma->Instance->FCR |= DMA_IT_FE;
 205:Drivers/STM32F4xx_HAL_Driver/Src/stm32f4xx_hal_dma_ex.c ****     
 206:Drivers/STM32F4xx_HAL_Driver/Src/stm32f4xx_hal_dma_ex.c ****     if((hdma->XferHalfCpltCallback != NULL) || (hdma->XferM1HalfCpltCallback != NULL))
 207:Drivers/STM32F4xx_HAL_Driver/Src/stm32f4xx_hal_dma_ex.c ****     {
 208:Drivers/STM32F4xx_HAL_Driver/Src/stm32f4xx_hal_dma_ex.c ****       hdma->Instance->CR  |= DMA_IT_HT;
 209:Drivers/STM32F4xx_HAL_Driver/Src/stm32f4xx_hal_dma_ex.c ****     }
 210:Drivers/STM32F4xx_HAL_Driver/Src/stm32f4xx_hal_dma_ex.c ****     
 211:Drivers/STM32F4xx_HAL_Driver/Src/stm32f4xx_hal_dma_ex.c ****     /* Enable the peripheral */
 212:Drivers/STM32F4xx_HAL_Driver/Src/stm32f4xx_hal_dma_ex.c ****     __HAL_DMA_ENABLE(hdma); 
 213:Drivers/STM32F4xx_HAL_Driver/Src/stm32f4xx_hal_dma_ex.c ****   }
 214:Drivers/STM32F4xx_HAL_Driver/Src/stm32f4xx_hal_dma_ex.c ****   else
 215:Drivers/STM32F4xx_HAL_Driver/Src/stm32f4xx_hal_dma_ex.c ****   {     
 216:Drivers/STM32F4xx_HAL_Driver/Src/stm32f4xx_hal_dma_ex.c ****     /* Process unlocked */
 217:Drivers/STM32F4xx_HAL_Driver/Src/stm32f4xx_hal_dma_ex.c ****     __HAL_UNLOCK(hdma);	  
 218:Drivers/STM32F4xx_HAL_Driver/Src/stm32f4xx_hal_dma_ex.c ****     
 219:Drivers/STM32F4xx_HAL_Driver/Src/stm32f4xx_hal_dma_ex.c ****     /* Return error status */
 220:Drivers/STM32F4xx_HAL_Driver/Src/stm32f4xx_hal_dma_ex.c ****     status = HAL_BUSY;
 221:Drivers/STM32F4xx_HAL_Driver/Src/stm32f4xx_hal_dma_ex.c ****   }  
 222:Drivers/STM32F4xx_HAL_Driver/Src/stm32f4xx_hal_dma_ex.c ****   return status; 
 223:Drivers/STM32F4xx_HAL_Driver/Src/stm32f4xx_hal_dma_ex.c **** }
 224:Drivers/STM32F4xx_HAL_Driver/Src/stm32f4xx_hal_dma_ex.c **** 
 225:Drivers/STM32F4xx_HAL_Driver/Src/stm32f4xx_hal_dma_ex.c **** /**
 226:Drivers/STM32F4xx_HAL_Driver/Src/stm32f4xx_hal_dma_ex.c ****   * @brief  Change the memory0 or memory1 address on the fly.
 227:Drivers/STM32F4xx_HAL_Driver/Src/stm32f4xx_hal_dma_ex.c ****   * @param  hdma       pointer to a DMA_HandleTypeDef structure that contains
 228:Drivers/STM32F4xx_HAL_Driver/Src/stm32f4xx_hal_dma_ex.c ****   *                     the configuration information for the specified DMA Stream.  
 229:Drivers/STM32F4xx_HAL_Driver/Src/stm32f4xx_hal_dma_ex.c ****   * @param  Address    The new address
 230:Drivers/STM32F4xx_HAL_Driver/Src/stm32f4xx_hal_dma_ex.c ****   * @param  memory     the memory to be changed, This parameter can be one of 
 231:Drivers/STM32F4xx_HAL_Driver/Src/stm32f4xx_hal_dma_ex.c ****   *                     the following values:
 232:Drivers/STM32F4xx_HAL_Driver/Src/stm32f4xx_hal_dma_ex.c ****   *                      MEMORY0 /
 233:Drivers/STM32F4xx_HAL_Driver/Src/stm32f4xx_hal_dma_ex.c ****   *                      MEMORY1
 234:Drivers/STM32F4xx_HAL_Driver/Src/stm32f4xx_hal_dma_ex.c ****   * @note   The MEMORY0 address can be changed only when the current transfer use
 235:Drivers/STM32F4xx_HAL_Driver/Src/stm32f4xx_hal_dma_ex.c ****   *         MEMORY1 and the MEMORY1 address can be changed only when the current 
 236:Drivers/STM32F4xx_HAL_Driver/Src/stm32f4xx_hal_dma_ex.c ****   *         transfer use MEMORY0.
 237:Drivers/STM32F4xx_HAL_Driver/Src/stm32f4xx_hal_dma_ex.c ****   * @retval HAL status
 238:Drivers/STM32F4xx_HAL_Driver/Src/stm32f4xx_hal_dma_ex.c ****   */
 239:Drivers/STM32F4xx_HAL_Driver/Src/stm32f4xx_hal_dma_ex.c **** HAL_StatusTypeDef HAL_DMAEx_ChangeMemory(DMA_HandleTypeDef *hdma, uint32_t Address, HAL_DMA_MemoryT
 240:Drivers/STM32F4xx_HAL_Driver/Src/stm32f4xx_hal_dma_ex.c **** {
 241:Drivers/STM32F4xx_HAL_Driver/Src/stm32f4xx_hal_dma_ex.c ****   if(memory == MEMORY0)
 242:Drivers/STM32F4xx_HAL_Driver/Src/stm32f4xx_hal_dma_ex.c ****   {
 243:Drivers/STM32F4xx_HAL_Driver/Src/stm32f4xx_hal_dma_ex.c ****     /* change the memory0 address */
 244:Drivers/STM32F4xx_HAL_Driver/Src/stm32f4xx_hal_dma_ex.c ****     hdma->Instance->M0AR = Address;
 245:Drivers/STM32F4xx_HAL_Driver/Src/stm32f4xx_hal_dma_ex.c ****   }
 246:Drivers/STM32F4xx_HAL_Driver/Src/stm32f4xx_hal_dma_ex.c ****   else
 247:Drivers/STM32F4xx_HAL_Driver/Src/stm32f4xx_hal_dma_ex.c ****   {
 248:Drivers/STM32F4xx_HAL_Driver/Src/stm32f4xx_hal_dma_ex.c ****     /* change the memory1 address */
 249:Drivers/STM32F4xx_HAL_Driver/Src/stm32f4xx_hal_dma_ex.c ****     hdma->Instance->M1AR = Address;
 250:Drivers/STM32F4xx_HAL_Driver/Src/stm32f4xx_hal_dma_ex.c ****   }
 251:Drivers/STM32F4xx_HAL_Driver/Src/stm32f4xx_hal_dma_ex.c **** 
 252:Drivers/STM32F4xx_HAL_Driver/Src/stm32f4xx_hal_dma_ex.c ****   return HAL_OK;
 253:Drivers/STM32F4xx_HAL_Driver/Src/stm32f4xx_hal_dma_ex.c **** }
 254:Drivers/STM32F4xx_HAL_Driver/Src/stm32f4xx_hal_dma_ex.c **** 
 255:Drivers/STM32F4xx_HAL_Driver/Src/stm32f4xx_hal_dma_ex.c **** /**
 256:Drivers/STM32F4xx_HAL_Driver/Src/stm32f4xx_hal_dma_ex.c ****   * @}
 257:Drivers/STM32F4xx_HAL_Driver/Src/stm32f4xx_hal_dma_ex.c ****   */
 258:Drivers/STM32F4xx_HAL_Driver/Src/stm32f4xx_hal_dma_ex.c **** 
ARM GAS  C:\Users\hanaj\AppData\Local\Temp\ccO9sAWH.s 			page 6


 259:Drivers/STM32F4xx_HAL_Driver/Src/stm32f4xx_hal_dma_ex.c **** /**
 260:Drivers/STM32F4xx_HAL_Driver/Src/stm32f4xx_hal_dma_ex.c ****   * @}
 261:Drivers/STM32F4xx_HAL_Driver/Src/stm32f4xx_hal_dma_ex.c ****   */
 262:Drivers/STM32F4xx_HAL_Driver/Src/stm32f4xx_hal_dma_ex.c **** 
 263:Drivers/STM32F4xx_HAL_Driver/Src/stm32f4xx_hal_dma_ex.c **** /** @addtogroup DMAEx_Private_Functions
 264:Drivers/STM32F4xx_HAL_Driver/Src/stm32f4xx_hal_dma_ex.c ****   * @{
 265:Drivers/STM32F4xx_HAL_Driver/Src/stm32f4xx_hal_dma_ex.c ****   */
 266:Drivers/STM32F4xx_HAL_Driver/Src/stm32f4xx_hal_dma_ex.c **** 
 267:Drivers/STM32F4xx_HAL_Driver/Src/stm32f4xx_hal_dma_ex.c **** /**
 268:Drivers/STM32F4xx_HAL_Driver/Src/stm32f4xx_hal_dma_ex.c ****   * @brief  Set the DMA Transfer parameter.
 269:Drivers/STM32F4xx_HAL_Driver/Src/stm32f4xx_hal_dma_ex.c ****   * @param  hdma       pointer to a DMA_HandleTypeDef structure that contains
 270:Drivers/STM32F4xx_HAL_Driver/Src/stm32f4xx_hal_dma_ex.c ****   *                     the configuration information for the specified DMA Stream.  
 271:Drivers/STM32F4xx_HAL_Driver/Src/stm32f4xx_hal_dma_ex.c ****   * @param  SrcAddress The source memory Buffer address
 272:Drivers/STM32F4xx_HAL_Driver/Src/stm32f4xx_hal_dma_ex.c ****   * @param  DstAddress The destination memory Buffer address
 273:Drivers/STM32F4xx_HAL_Driver/Src/stm32f4xx_hal_dma_ex.c ****   * @param  DataLength The length of data to be transferred from source to destination
 274:Drivers/STM32F4xx_HAL_Driver/Src/stm32f4xx_hal_dma_ex.c ****   * @retval HAL status
 275:Drivers/STM32F4xx_HAL_Driver/Src/stm32f4xx_hal_dma_ex.c ****   */
 276:Drivers/STM32F4xx_HAL_Driver/Src/stm32f4xx_hal_dma_ex.c **** static void DMA_MultiBufferSetConfig(DMA_HandleTypeDef *hdma, uint32_t SrcAddress, uint32_t DstAddr
 277:Drivers/STM32F4xx_HAL_Driver/Src/stm32f4xx_hal_dma_ex.c **** {  
  29              		.loc 1 277 1 view -0
  30              		.cfi_startproc
  31              		@ args = 0, pretend = 0, frame = 0
  32              		@ frame_needed = 0, uses_anonymous_args = 0
  33              		@ link register save eliminated.
  34              		.loc 1 277 1 is_stmt 0 view .LVU1
  35 0000 10B4     		push	{r4}
  36              	.LCFI0:
  37              		.cfi_def_cfa_offset 4
  38              		.cfi_offset 4, -4
 278:Drivers/STM32F4xx_HAL_Driver/Src/stm32f4xx_hal_dma_ex.c ****   /* Configure DMA Stream data length */
 279:Drivers/STM32F4xx_HAL_Driver/Src/stm32f4xx_hal_dma_ex.c ****   hdma->Instance->NDTR = DataLength;
  39              		.loc 1 279 3 is_stmt 1 view .LVU2
  40              		.loc 1 279 24 is_stmt 0 view .LVU3
  41 0002 0468     		ldr	r4, [r0]
  42 0004 6360     		str	r3, [r4, #4]
 280:Drivers/STM32F4xx_HAL_Driver/Src/stm32f4xx_hal_dma_ex.c ****   
 281:Drivers/STM32F4xx_HAL_Driver/Src/stm32f4xx_hal_dma_ex.c ****   /* Peripheral to Memory */
 282:Drivers/STM32F4xx_HAL_Driver/Src/stm32f4xx_hal_dma_ex.c ****   if((hdma->Init.Direction) == DMA_MEMORY_TO_PERIPH)
  43              		.loc 1 282 3 is_stmt 1 view .LVU4
  44              		.loc 1 282 17 is_stmt 0 view .LVU5
  45 0006 8368     		ldr	r3, [r0, #8]
  46              	.LVL1:
  47              		.loc 1 282 5 view .LVU6
  48 0008 402B     		cmp	r3, #64
  49 000a 06D0     		beq	.L5
 283:Drivers/STM32F4xx_HAL_Driver/Src/stm32f4xx_hal_dma_ex.c ****   {   
 284:Drivers/STM32F4xx_HAL_Driver/Src/stm32f4xx_hal_dma_ex.c ****     /* Configure DMA Stream destination address */
 285:Drivers/STM32F4xx_HAL_Driver/Src/stm32f4xx_hal_dma_ex.c ****     hdma->Instance->PAR = DstAddress;
 286:Drivers/STM32F4xx_HAL_Driver/Src/stm32f4xx_hal_dma_ex.c ****     
 287:Drivers/STM32F4xx_HAL_Driver/Src/stm32f4xx_hal_dma_ex.c ****     /* Configure DMA Stream source address */
 288:Drivers/STM32F4xx_HAL_Driver/Src/stm32f4xx_hal_dma_ex.c ****     hdma->Instance->M0AR = SrcAddress;
 289:Drivers/STM32F4xx_HAL_Driver/Src/stm32f4xx_hal_dma_ex.c ****   }
 290:Drivers/STM32F4xx_HAL_Driver/Src/stm32f4xx_hal_dma_ex.c ****   /* Memory to Peripheral */
 291:Drivers/STM32F4xx_HAL_Driver/Src/stm32f4xx_hal_dma_ex.c ****   else
 292:Drivers/STM32F4xx_HAL_Driver/Src/stm32f4xx_hal_dma_ex.c ****   {
 293:Drivers/STM32F4xx_HAL_Driver/Src/stm32f4xx_hal_dma_ex.c ****     /* Configure DMA Stream source address */
 294:Drivers/STM32F4xx_HAL_Driver/Src/stm32f4xx_hal_dma_ex.c ****     hdma->Instance->PAR = SrcAddress;
ARM GAS  C:\Users\hanaj\AppData\Local\Temp\ccO9sAWH.s 			page 7


  50              		.loc 1 294 5 is_stmt 1 view .LVU7
  51              		.loc 1 294 9 is_stmt 0 view .LVU8
  52 000c 0368     		ldr	r3, [r0]
  53              		.loc 1 294 25 view .LVU9
  54 000e 9960     		str	r1, [r3, #8]
  55              	.LVL2:
 295:Drivers/STM32F4xx_HAL_Driver/Src/stm32f4xx_hal_dma_ex.c ****     
 296:Drivers/STM32F4xx_HAL_Driver/Src/stm32f4xx_hal_dma_ex.c ****     /* Configure DMA Stream destination address */
 297:Drivers/STM32F4xx_HAL_Driver/Src/stm32f4xx_hal_dma_ex.c ****     hdma->Instance->M0AR = DstAddress;
  56              		.loc 1 297 5 is_stmt 1 view .LVU10
  57              		.loc 1 297 9 is_stmt 0 view .LVU11
  58 0010 0368     		ldr	r3, [r0]
  59              		.loc 1 297 26 view .LVU12
  60 0012 DA60     		str	r2, [r3, #12]
  61              	.L1:
 298:Drivers/STM32F4xx_HAL_Driver/Src/stm32f4xx_hal_dma_ex.c ****   }
 299:Drivers/STM32F4xx_HAL_Driver/Src/stm32f4xx_hal_dma_ex.c **** }
  62              		.loc 1 299 1 view .LVU13
  63 0014 5DF8044B 		ldr	r4, [sp], #4
  64              	.LCFI1:
  65              		.cfi_remember_state
  66              		.cfi_restore 4
  67              		.cfi_def_cfa_offset 0
  68 0018 7047     		bx	lr
  69              	.LVL3:
  70              	.L5:
  71              	.LCFI2:
  72              		.cfi_restore_state
 285:Drivers/STM32F4xx_HAL_Driver/Src/stm32f4xx_hal_dma_ex.c ****     
  73              		.loc 1 285 5 is_stmt 1 view .LVU14
 285:Drivers/STM32F4xx_HAL_Driver/Src/stm32f4xx_hal_dma_ex.c ****     
  74              		.loc 1 285 9 is_stmt 0 view .LVU15
  75 001a 0368     		ldr	r3, [r0]
 285:Drivers/STM32F4xx_HAL_Driver/Src/stm32f4xx_hal_dma_ex.c ****     
  76              		.loc 1 285 25 view .LVU16
  77 001c 9A60     		str	r2, [r3, #8]
  78              	.LVL4:
 288:Drivers/STM32F4xx_HAL_Driver/Src/stm32f4xx_hal_dma_ex.c ****   }
  79              		.loc 1 288 5 is_stmt 1 view .LVU17
 288:Drivers/STM32F4xx_HAL_Driver/Src/stm32f4xx_hal_dma_ex.c ****   }
  80              		.loc 1 288 9 is_stmt 0 view .LVU18
  81 001e 0368     		ldr	r3, [r0]
 288:Drivers/STM32F4xx_HAL_Driver/Src/stm32f4xx_hal_dma_ex.c ****   }
  82              		.loc 1 288 26 view .LVU19
  83 0020 D960     		str	r1, [r3, #12]
  84 0022 F7E7     		b	.L1
  85              		.cfi_endproc
  86              	.LFE242:
  88              		.section	.rodata.HAL_DMAEx_MultiBufferStart.str1.4,"aMS",%progbits,1
  89              		.align	2
  90              	.LC0:
  91 0000 44726976 		.ascii	"Drivers/STM32F4xx_HAL_Driver/Src/stm32f4xx_hal_dma_"
  91      6572732F 
  91      53544D33 
  91      32463478 
  91      785F4841 
  92 0033 65782E63 		.ascii	"ex.c\000"
ARM GAS  C:\Users\hanaj\AppData\Local\Temp\ccO9sAWH.s 			page 8


  92      00
  93              		.section	.text.HAL_DMAEx_MultiBufferStart,"ax",%progbits
  94              		.align	1
  95              		.global	HAL_DMAEx_MultiBufferStart
  96              		.syntax unified
  97              		.thumb
  98              		.thumb_func
 100              	HAL_DMAEx_MultiBufferStart:
 101              	.LVL5:
 102              	.LFB239:
 101:Drivers/STM32F4xx_HAL_Driver/Src/stm32f4xx_hal_dma_ex.c ****   HAL_StatusTypeDef status = HAL_OK;
 103              		.loc 1 101 1 is_stmt 1 view -0
 104              		.cfi_startproc
 105              		@ args = 4, pretend = 0, frame = 0
 106              		@ frame_needed = 0, uses_anonymous_args = 0
 101:Drivers/STM32F4xx_HAL_Driver/Src/stm32f4xx_hal_dma_ex.c ****   HAL_StatusTypeDef status = HAL_OK;
 107              		.loc 1 101 1 is_stmt 0 view .LVU21
 108 0000 2DE9F041 		push	{r4, r5, r6, r7, r8, lr}
 109              	.LCFI3:
 110              		.cfi_def_cfa_offset 24
 111              		.cfi_offset 4, -24
 112              		.cfi_offset 5, -20
 113              		.cfi_offset 6, -16
 114              		.cfi_offset 7, -12
 115              		.cfi_offset 8, -8
 116              		.cfi_offset 14, -4
 117 0004 0446     		mov	r4, r0
 118 0006 0D46     		mov	r5, r1
 119 0008 1646     		mov	r6, r2
 120 000a 9846     		mov	r8, r3
 121 000c 069F     		ldr	r7, [sp, #24]
 102:Drivers/STM32F4xx_HAL_Driver/Src/stm32f4xx_hal_dma_ex.c ****   
 122              		.loc 1 102 3 is_stmt 1 view .LVU22
 123              	.LVL6:
 105:Drivers/STM32F4xx_HAL_Driver/Src/stm32f4xx_hal_dma_ex.c ****   
 124              		.loc 1 105 3 view .LVU23
 125 000e 7A1E     		subs	r2, r7, #1
 126              	.LVL7:
 105:Drivers/STM32F4xx_HAL_Driver/Src/stm32f4xx_hal_dma_ex.c ****   
 127              		.loc 1 105 3 is_stmt 0 view .LVU24
 128 0010 4FF6FE73 		movw	r3, #65534
 129              	.LVL8:
 105:Drivers/STM32F4xx_HAL_Driver/Src/stm32f4xx_hal_dma_ex.c ****   
 130              		.loc 1 105 3 view .LVU25
 131 0014 9A42     		cmp	r2, r3
 132 0016 11D8     		bhi	.L13
 133              	.LVL9:
 134              	.L7:
 108:Drivers/STM32F4xx_HAL_Driver/Src/stm32f4xx_hal_dma_ex.c ****   {
 135              		.loc 1 108 3 is_stmt 1 view .LVU26
 108:Drivers/STM32F4xx_HAL_Driver/Src/stm32f4xx_hal_dma_ex.c ****   {
 136              		.loc 1 108 17 is_stmt 0 view .LVU27
 137 0018 A368     		ldr	r3, [r4, #8]
 108:Drivers/STM32F4xx_HAL_Driver/Src/stm32f4xx_hal_dma_ex.c ****   {
 138              		.loc 1 108 6 view .LVU28
 139 001a 802B     		cmp	r3, #128
 140 001c 13D0     		beq	.L14
ARM GAS  C:\Users\hanaj\AppData\Local\Temp\ccO9sAWH.s 			page 9


 116:Drivers/STM32F4xx_HAL_Driver/Src/stm32f4xx_hal_dma_ex.c ****     
 141              		.loc 1 116 5 is_stmt 1 view .LVU29
 116:Drivers/STM32F4xx_HAL_Driver/Src/stm32f4xx_hal_dma_ex.c ****     
 142              		.loc 1 116 5 view .LVU30
 143 001e 94F83430 		ldrb	r3, [r4, #52]	@ zero_extendqisi2
 144 0022 012B     		cmp	r3, #1
 145 0024 2CD0     		beq	.L10
 116:Drivers/STM32F4xx_HAL_Driver/Src/stm32f4xx_hal_dma_ex.c ****     
 146              		.loc 1 116 5 discriminator 2 view .LVU31
 147 0026 0123     		movs	r3, #1
 148 0028 84F83430 		strb	r3, [r4, #52]
 116:Drivers/STM32F4xx_HAL_Driver/Src/stm32f4xx_hal_dma_ex.c ****     
 149              		.loc 1 116 5 discriminator 2 view .LVU32
 118:Drivers/STM32F4xx_HAL_Driver/Src/stm32f4xx_hal_dma_ex.c ****     {
 150              		.loc 1 118 5 view .LVU33
 118:Drivers/STM32F4xx_HAL_Driver/Src/stm32f4xx_hal_dma_ex.c ****     {
 151              		.loc 1 118 35 is_stmt 0 view .LVU34
 152 002c 94F83530 		ldrb	r3, [r4, #53]	@ zero_extendqisi2
 153 0030 DBB2     		uxtb	r3, r3
 118:Drivers/STM32F4xx_HAL_Driver/Src/stm32f4xx_hal_dma_ex.c ****     {
 154              		.loc 1 118 7 view .LVU35
 155 0032 012B     		cmp	r3, #1
 156 0034 0CD0     		beq	.L15
 138:Drivers/STM32F4xx_HAL_Driver/Src/stm32f4xx_hal_dma_ex.c ****     }
 157              		.loc 1 138 14 view .LVU36
 158 0036 0220     		movs	r0, #2
 159              	.LVL10:
 160              	.L9:
 142:Drivers/STM32F4xx_HAL_Driver/Src/stm32f4xx_hal_dma_ex.c **** 
 161              		.loc 1 142 1 view .LVU37
 162 0038 BDE8F081 		pop	{r4, r5, r6, r7, r8, pc}
 163              	.LVL11:
 164              	.L13:
 105:Drivers/STM32F4xx_HAL_Driver/Src/stm32f4xx_hal_dma_ex.c ****   
 165              		.loc 1 105 3 discriminator 1 view .LVU38
 166 003c 6921     		movs	r1, #105
 167              	.LVL12:
 105:Drivers/STM32F4xx_HAL_Driver/Src/stm32f4xx_hal_dma_ex.c ****   
 168              		.loc 1 105 3 discriminator 1 view .LVU39
 169 003e 1148     		ldr	r0, .L16
 170              	.LVL13:
 105:Drivers/STM32F4xx_HAL_Driver/Src/stm32f4xx_hal_dma_ex.c ****   
 171              		.loc 1 105 3 discriminator 1 view .LVU40
 172 0040 FFF7FEFF 		bl	assert_failed
 173              	.LVL14:
 174 0044 E8E7     		b	.L7
 175              	.L14:
 110:Drivers/STM32F4xx_HAL_Driver/Src/stm32f4xx_hal_dma_ex.c ****     status = HAL_ERROR;
 176              		.loc 1 110 5 is_stmt 1 view .LVU41
 110:Drivers/STM32F4xx_HAL_Driver/Src/stm32f4xx_hal_dma_ex.c ****     status = HAL_ERROR;
 177              		.loc 1 110 21 is_stmt 0 view .LVU42
 178 0046 4FF48073 		mov	r3, #256
 179 004a 6365     		str	r3, [r4, #84]
 111:Drivers/STM32F4xx_HAL_Driver/Src/stm32f4xx_hal_dma_ex.c ****   }
 180              		.loc 1 111 5 is_stmt 1 view .LVU43
 181              	.LVL15:
 111:Drivers/STM32F4xx_HAL_Driver/Src/stm32f4xx_hal_dma_ex.c ****   }
ARM GAS  C:\Users\hanaj\AppData\Local\Temp\ccO9sAWH.s 			page 10


 182              		.loc 1 111 12 is_stmt 0 view .LVU44
 183 004c 0120     		movs	r0, #1
 184 004e F3E7     		b	.L9
 185              	.LVL16:
 186              	.L15:
 121:Drivers/STM32F4xx_HAL_Driver/Src/stm32f4xx_hal_dma_ex.c ****       
 187              		.loc 1 121 7 is_stmt 1 view .LVU45
 121:Drivers/STM32F4xx_HAL_Driver/Src/stm32f4xx_hal_dma_ex.c ****       
 188              		.loc 1 121 19 is_stmt 0 view .LVU46
 189 0050 0223     		movs	r3, #2
 190 0052 84F83530 		strb	r3, [r4, #53]
 124:Drivers/STM32F4xx_HAL_Driver/Src/stm32f4xx_hal_dma_ex.c ****       
 191              		.loc 1 124 7 is_stmt 1 view .LVU47
 124:Drivers/STM32F4xx_HAL_Driver/Src/stm32f4xx_hal_dma_ex.c ****       
 192              		.loc 1 124 11 is_stmt 0 view .LVU48
 193 0056 2268     		ldr	r2, [r4]
 124:Drivers/STM32F4xx_HAL_Driver/Src/stm32f4xx_hal_dma_ex.c ****       
 194              		.loc 1 124 21 view .LVU49
 195 0058 1368     		ldr	r3, [r2]
 124:Drivers/STM32F4xx_HAL_Driver/Src/stm32f4xx_hal_dma_ex.c ****       
 196              		.loc 1 124 26 view .LVU50
 197 005a 43F48023 		orr	r3, r3, #262144
 198 005e 1360     		str	r3, [r2]
 127:Drivers/STM32F4xx_HAL_Driver/Src/stm32f4xx_hal_dma_ex.c ****       
 199              		.loc 1 127 7 is_stmt 1 view .LVU51
 127:Drivers/STM32F4xx_HAL_Driver/Src/stm32f4xx_hal_dma_ex.c ****       
 200              		.loc 1 127 11 is_stmt 0 view .LVU52
 201 0060 2368     		ldr	r3, [r4]
 127:Drivers/STM32F4xx_HAL_Driver/Src/stm32f4xx_hal_dma_ex.c ****       
 202              		.loc 1 127 28 view .LVU53
 203 0062 C3F81080 		str	r8, [r3, #16]
 130:Drivers/STM32F4xx_HAL_Driver/Src/stm32f4xx_hal_dma_ex.c ****       
 204              		.loc 1 130 7 is_stmt 1 view .LVU54
 205 0066 3B46     		mov	r3, r7
 206 0068 3246     		mov	r2, r6
 207 006a 2946     		mov	r1, r5
 208 006c 2046     		mov	r0, r4
 209 006e FFF7FEFF 		bl	DMA_MultiBufferSetConfig
 210              	.LVL17:
 133:Drivers/STM32F4xx_HAL_Driver/Src/stm32f4xx_hal_dma_ex.c ****     }
 211              		.loc 1 133 7 view .LVU55
 212 0072 2268     		ldr	r2, [r4]
 213 0074 1368     		ldr	r3, [r2]
 214 0076 43F00103 		orr	r3, r3, #1
 215 007a 1360     		str	r3, [r2]
 102:Drivers/STM32F4xx_HAL_Driver/Src/stm32f4xx_hal_dma_ex.c ****   
 216              		.loc 1 102 21 is_stmt 0 view .LVU56
 217 007c 0020     		movs	r0, #0
 218 007e DBE7     		b	.L9
 219              	.L10:
 116:Drivers/STM32F4xx_HAL_Driver/Src/stm32f4xx_hal_dma_ex.c ****     
 220              		.loc 1 116 5 discriminator 1 view .LVU57
 221 0080 0220     		movs	r0, #2
 222 0082 D9E7     		b	.L9
 223              	.L17:
 224              		.align	2
 225              	.L16:
ARM GAS  C:\Users\hanaj\AppData\Local\Temp\ccO9sAWH.s 			page 11


 226 0084 00000000 		.word	.LC0
 227              		.cfi_endproc
 228              	.LFE239:
 230              		.section	.text.HAL_DMAEx_MultiBufferStart_IT,"ax",%progbits
 231              		.align	1
 232              		.global	HAL_DMAEx_MultiBufferStart_IT
 233              		.syntax unified
 234              		.thumb
 235              		.thumb_func
 237              	HAL_DMAEx_MultiBufferStart_IT:
 238              	.LVL18:
 239              	.LFB240:
 155:Drivers/STM32F4xx_HAL_Driver/Src/stm32f4xx_hal_dma_ex.c ****   HAL_StatusTypeDef status = HAL_OK;
 240              		.loc 1 155 1 is_stmt 1 view -0
 241              		.cfi_startproc
 242              		@ args = 4, pretend = 0, frame = 0
 243              		@ frame_needed = 0, uses_anonymous_args = 0
 155:Drivers/STM32F4xx_HAL_Driver/Src/stm32f4xx_hal_dma_ex.c ****   HAL_StatusTypeDef status = HAL_OK;
 244              		.loc 1 155 1 is_stmt 0 view .LVU59
 245 0000 2DE9F041 		push	{r4, r5, r6, r7, r8, lr}
 246              	.LCFI4:
 247              		.cfi_def_cfa_offset 24
 248              		.cfi_offset 4, -24
 249              		.cfi_offset 5, -20
 250              		.cfi_offset 6, -16
 251              		.cfi_offset 7, -12
 252              		.cfi_offset 8, -8
 253              		.cfi_offset 14, -4
 254 0004 0446     		mov	r4, r0
 255 0006 0D46     		mov	r5, r1
 256 0008 1646     		mov	r6, r2
 257 000a 9846     		mov	r8, r3
 258 000c 069F     		ldr	r7, [sp, #24]
 156:Drivers/STM32F4xx_HAL_Driver/Src/stm32f4xx_hal_dma_ex.c ****   
 259              		.loc 1 156 3 is_stmt 1 view .LVU60
 260              	.LVL19:
 159:Drivers/STM32F4xx_HAL_Driver/Src/stm32f4xx_hal_dma_ex.c ****   
 261              		.loc 1 159 3 view .LVU61
 262 000e 791E     		subs	r1, r7, #1
 263              	.LVL20:
 159:Drivers/STM32F4xx_HAL_Driver/Src/stm32f4xx_hal_dma_ex.c ****   
 264              		.loc 1 159 3 is_stmt 0 view .LVU62
 265 0010 4FF6FE72 		movw	r2, #65534
 266              	.LVL21:
 159:Drivers/STM32F4xx_HAL_Driver/Src/stm32f4xx_hal_dma_ex.c ****   
 267              		.loc 1 159 3 view .LVU63
 268 0014 9142     		cmp	r1, r2
 269 0016 1AD8     		bhi	.L309
 270              	.LVL22:
 271              	.L19:
 162:Drivers/STM32F4xx_HAL_Driver/Src/stm32f4xx_hal_dma_ex.c ****   {
 272              		.loc 1 162 3 is_stmt 1 view .LVU64
 162:Drivers/STM32F4xx_HAL_Driver/Src/stm32f4xx_hal_dma_ex.c ****   {
 273              		.loc 1 162 17 is_stmt 0 view .LVU65
 274 0018 A268     		ldr	r2, [r4, #8]
 162:Drivers/STM32F4xx_HAL_Driver/Src/stm32f4xx_hal_dma_ex.c ****   {
 275              		.loc 1 162 6 view .LVU66
ARM GAS  C:\Users\hanaj\AppData\Local\Temp\ccO9sAWH.s 			page 12


 276 001a 802A     		cmp	r2, #128
 277 001c 1CD0     		beq	.L310
 169:Drivers/STM32F4xx_HAL_Driver/Src/stm32f4xx_hal_dma_ex.c ****   {
 278              		.loc 1 169 3 is_stmt 1 view .LVU67
 169:Drivers/STM32F4xx_HAL_Driver/Src/stm32f4xx_hal_dma_ex.c ****   {
 279              		.loc 1 169 20 is_stmt 0 view .LVU68
 280 001e E36B     		ldr	r3, [r4, #60]
 169:Drivers/STM32F4xx_HAL_Driver/Src/stm32f4xx_hal_dma_ex.c ****   {
 281              		.loc 1 169 6 view .LVU69
 282 0020 FBB1     		cbz	r3, .L22
 169:Drivers/STM32F4xx_HAL_Driver/Src/stm32f4xx_hal_dma_ex.c ****   {
 283              		.loc 1 169 56 discriminator 1 view .LVU70
 284 0022 636C     		ldr	r3, [r4, #68]
 169:Drivers/STM32F4xx_HAL_Driver/Src/stm32f4xx_hal_dma_ex.c ****   {
 285              		.loc 1 169 40 discriminator 1 view .LVU71
 286 0024 EBB1     		cbz	r3, .L22
 169:Drivers/STM32F4xx_HAL_Driver/Src/stm32f4xx_hal_dma_ex.c ****   {
 287              		.loc 1 169 94 discriminator 2 view .LVU72
 288 0026 E36C     		ldr	r3, [r4, #76]
 169:Drivers/STM32F4xx_HAL_Driver/Src/stm32f4xx_hal_dma_ex.c ****   {
 289              		.loc 1 169 78 discriminator 2 view .LVU73
 290 0028 DBB1     		cbz	r3, .L22
 176:Drivers/STM32F4xx_HAL_Driver/Src/stm32f4xx_hal_dma_ex.c ****   
 291              		.loc 1 176 3 is_stmt 1 view .LVU74
 176:Drivers/STM32F4xx_HAL_Driver/Src/stm32f4xx_hal_dma_ex.c ****   
 292              		.loc 1 176 3 view .LVU75
 293 002a 94F83430 		ldrb	r3, [r4, #52]	@ zero_extendqisi2
 294 002e 012B     		cmp	r3, #1
 295 0030 00F07387 		beq	.L67
 176:Drivers/STM32F4xx_HAL_Driver/Src/stm32f4xx_hal_dma_ex.c ****   
 296              		.loc 1 176 3 discriminator 2 view .LVU76
 297 0034 0123     		movs	r3, #1
 298 0036 84F83430 		strb	r3, [r4, #52]
 176:Drivers/STM32F4xx_HAL_Driver/Src/stm32f4xx_hal_dma_ex.c ****   
 299              		.loc 1 176 3 discriminator 2 view .LVU77
 178:Drivers/STM32F4xx_HAL_Driver/Src/stm32f4xx_hal_dma_ex.c ****   {
 300              		.loc 1 178 3 view .LVU78
 178:Drivers/STM32F4xx_HAL_Driver/Src/stm32f4xx_hal_dma_ex.c ****   {
 301              		.loc 1 178 33 is_stmt 0 view .LVU79
 302 003a 94F83530 		ldrb	r3, [r4, #53]	@ zero_extendqisi2
 303 003e DBB2     		uxtb	r3, r3
 178:Drivers/STM32F4xx_HAL_Driver/Src/stm32f4xx_hal_dma_ex.c ****   {
 304              		.loc 1 178 5 view .LVU80
 305 0040 012B     		cmp	r3, #1
 306 0042 13D0     		beq	.L311
 217:Drivers/STM32F4xx_HAL_Driver/Src/stm32f4xx_hal_dma_ex.c ****     
 307              		.loc 1 217 5 is_stmt 1 view .LVU81
 217:Drivers/STM32F4xx_HAL_Driver/Src/stm32f4xx_hal_dma_ex.c ****     
 308              		.loc 1 217 5 view .LVU82
 309 0044 0023     		movs	r3, #0
 310 0046 84F83430 		strb	r3, [r4, #52]
 217:Drivers/STM32F4xx_HAL_Driver/Src/stm32f4xx_hal_dma_ex.c ****     
 311              		.loc 1 217 5 view .LVU83
 220:Drivers/STM32F4xx_HAL_Driver/Src/stm32f4xx_hal_dma_ex.c ****   }  
 312              		.loc 1 220 5 view .LVU84
 313              	.LVL23:
 220:Drivers/STM32F4xx_HAL_Driver/Src/stm32f4xx_hal_dma_ex.c ****   }  
ARM GAS  C:\Users\hanaj\AppData\Local\Temp\ccO9sAWH.s 			page 13


 314              		.loc 1 220 12 is_stmt 0 view .LVU85
 315 004a 0220     		movs	r0, #2
 316 004c 0CE0     		b	.L21
 317              	.LVL24:
 318              	.L309:
 159:Drivers/STM32F4xx_HAL_Driver/Src/stm32f4xx_hal_dma_ex.c ****   
 319              		.loc 1 159 3 discriminator 1 view .LVU86
 320 004e 9F21     		movs	r1, #159
 321 0050 B248     		ldr	r0, .L333
 322              	.LVL25:
 159:Drivers/STM32F4xx_HAL_Driver/Src/stm32f4xx_hal_dma_ex.c ****   
 323              		.loc 1 159 3 discriminator 1 view .LVU87
 324 0052 FFF7FEFF 		bl	assert_failed
 325              	.LVL26:
 159:Drivers/STM32F4xx_HAL_Driver/Src/stm32f4xx_hal_dma_ex.c ****   
 326              		.loc 1 159 3 discriminator 1 view .LVU88
 327 0056 DFE7     		b	.L19
 328              	.L310:
 164:Drivers/STM32F4xx_HAL_Driver/Src/stm32f4xx_hal_dma_ex.c ****     return HAL_ERROR;
 329              		.loc 1 164 5 is_stmt 1 view .LVU89
 164:Drivers/STM32F4xx_HAL_Driver/Src/stm32f4xx_hal_dma_ex.c ****     return HAL_ERROR;
 330              		.loc 1 164 21 is_stmt 0 view .LVU90
 331 0058 4FF48073 		mov	r3, #256
 332 005c 6365     		str	r3, [r4, #84]
 165:Drivers/STM32F4xx_HAL_Driver/Src/stm32f4xx_hal_dma_ex.c ****   }
 333              		.loc 1 165 5 is_stmt 1 view .LVU91
 165:Drivers/STM32F4xx_HAL_Driver/Src/stm32f4xx_hal_dma_ex.c ****   }
 334              		.loc 1 165 12 is_stmt 0 view .LVU92
 335 005e 0120     		movs	r0, #1
 336 0060 02E0     		b	.L21
 337              	.L22:
 171:Drivers/STM32F4xx_HAL_Driver/Src/stm32f4xx_hal_dma_ex.c ****     return HAL_ERROR;
 338              		.loc 1 171 5 is_stmt 1 view .LVU93
 171:Drivers/STM32F4xx_HAL_Driver/Src/stm32f4xx_hal_dma_ex.c ****     return HAL_ERROR;
 339              		.loc 1 171 21 is_stmt 0 view .LVU94
 340 0062 4023     		movs	r3, #64
 341 0064 6365     		str	r3, [r4, #84]
 172:Drivers/STM32F4xx_HAL_Driver/Src/stm32f4xx_hal_dma_ex.c ****   }
 342              		.loc 1 172 5 is_stmt 1 view .LVU95
 172:Drivers/STM32F4xx_HAL_Driver/Src/stm32f4xx_hal_dma_ex.c ****   }
 343              		.loc 1 172 12 is_stmt 0 view .LVU96
 344 0066 0120     		movs	r0, #1
 345              	.LVL27:
 346              	.L21:
 223:Drivers/STM32F4xx_HAL_Driver/Src/stm32f4xx_hal_dma_ex.c **** 
 347              		.loc 1 223 1 view .LVU97
 348 0068 BDE8F081 		pop	{r4, r5, r6, r7, r8, pc}
 349              	.LVL28:
 350              	.L311:
 181:Drivers/STM32F4xx_HAL_Driver/Src/stm32f4xx_hal_dma_ex.c ****     
 351              		.loc 1 181 5 is_stmt 1 view .LVU98
 181:Drivers/STM32F4xx_HAL_Driver/Src/stm32f4xx_hal_dma_ex.c ****     
 352              		.loc 1 181 17 is_stmt 0 view .LVU99
 353 006c 0223     		movs	r3, #2
 354 006e 84F83530 		strb	r3, [r4, #53]
 184:Drivers/STM32F4xx_HAL_Driver/Src/stm32f4xx_hal_dma_ex.c ****     
 355              		.loc 1 184 5 is_stmt 1 view .LVU100
ARM GAS  C:\Users\hanaj\AppData\Local\Temp\ccO9sAWH.s 			page 14


 184:Drivers/STM32F4xx_HAL_Driver/Src/stm32f4xx_hal_dma_ex.c ****     
 356              		.loc 1 184 21 is_stmt 0 view .LVU101
 357 0072 0023     		movs	r3, #0
 358 0074 6365     		str	r3, [r4, #84]
 187:Drivers/STM32F4xx_HAL_Driver/Src/stm32f4xx_hal_dma_ex.c ****     
 359              		.loc 1 187 5 is_stmt 1 view .LVU102
 187:Drivers/STM32F4xx_HAL_Driver/Src/stm32f4xx_hal_dma_ex.c ****     
 360              		.loc 1 187 9 is_stmt 0 view .LVU103
 361 0076 2268     		ldr	r2, [r4]
 187:Drivers/STM32F4xx_HAL_Driver/Src/stm32f4xx_hal_dma_ex.c ****     
 362              		.loc 1 187 19 view .LVU104
 363 0078 1368     		ldr	r3, [r2]
 187:Drivers/STM32F4xx_HAL_Driver/Src/stm32f4xx_hal_dma_ex.c ****     
 364              		.loc 1 187 24 view .LVU105
 365 007a 43F48023 		orr	r3, r3, #262144
 366 007e 1360     		str	r3, [r2]
 190:Drivers/STM32F4xx_HAL_Driver/Src/stm32f4xx_hal_dma_ex.c ****     
 367              		.loc 1 190 5 is_stmt 1 view .LVU106
 190:Drivers/STM32F4xx_HAL_Driver/Src/stm32f4xx_hal_dma_ex.c ****     
 368              		.loc 1 190 9 is_stmt 0 view .LVU107
 369 0080 2368     		ldr	r3, [r4]
 190:Drivers/STM32F4xx_HAL_Driver/Src/stm32f4xx_hal_dma_ex.c ****     
 370              		.loc 1 190 26 view .LVU108
 371 0082 C3F81080 		str	r8, [r3, #16]
 193:Drivers/STM32F4xx_HAL_Driver/Src/stm32f4xx_hal_dma_ex.c ****     
 372              		.loc 1 193 5 is_stmt 1 view .LVU109
 373 0086 3B46     		mov	r3, r7
 374 0088 3246     		mov	r2, r6
 375 008a 2946     		mov	r1, r5
 376 008c 2046     		mov	r0, r4
 377 008e FFF7FEFF 		bl	DMA_MultiBufferSetConfig
 378              	.LVL29:
 196:Drivers/STM32F4xx_HAL_Driver/Src/stm32f4xx_hal_dma_ex.c ****     __HAL_DMA_CLEAR_FLAG (hdma, __HAL_DMA_GET_HT_FLAG_INDEX(hdma));
 379              		.loc 1 196 5 view .LVU110
 380 0092 2368     		ldr	r3, [r4]
 381 0094 A24A     		ldr	r2, .L333+4
 382 0096 9342     		cmp	r3, r2
 383 0098 40F29880 		bls	.L25
 196:Drivers/STM32F4xx_HAL_Driver/Src/stm32f4xx_hal_dma_ex.c ****     __HAL_DMA_CLEAR_FLAG (hdma, __HAL_DMA_GET_HT_FLAG_INDEX(hdma));
 384              		.loc 1 196 5 is_stmt 0 discriminator 1 view .LVU111
 385 009c A2F58962 		sub	r2, r2, #1096
 386 00a0 9342     		cmp	r3, r2
 387 00a2 31D0     		beq	.L68
 196:Drivers/STM32F4xx_HAL_Driver/Src/stm32f4xx_hal_dma_ex.c ****     __HAL_DMA_CLEAR_FLAG (hdma, __HAL_DMA_GET_HT_FLAG_INDEX(hdma));
 388              		.loc 1 196 5 discriminator 3 view .LVU112
 389 00a4 02F58062 		add	r2, r2, #1024
 390 00a8 9342     		cmp	r3, r2
 391 00aa 74D0     		beq	.L69
 196:Drivers/STM32F4xx_HAL_Driver/Src/stm32f4xx_hal_dma_ex.c ****     __HAL_DMA_CLEAR_FLAG (hdma, __HAL_DMA_GET_HT_FLAG_INDEX(hdma));
 392              		.loc 1 196 5 discriminator 5 view .LVU113
 393 00ac A2F56872 		sub	r2, r2, #928
 394 00b0 9342     		cmp	r3, r2
 395 00b2 72D0     		beq	.L70
 196:Drivers/STM32F4xx_HAL_Driver/Src/stm32f4xx_hal_dma_ex.c ****     __HAL_DMA_CLEAR_FLAG (hdma, __HAL_DMA_GET_HT_FLAG_INDEX(hdma));
 396              		.loc 1 196 5 discriminator 7 view .LVU114
 397 00b4 02F58062 		add	r2, r2, #1024
 398 00b8 9342     		cmp	r3, r2
ARM GAS  C:\Users\hanaj\AppData\Local\Temp\ccO9sAWH.s 			page 15


 399 00ba 70D0     		beq	.L71
 196:Drivers/STM32F4xx_HAL_Driver/Src/stm32f4xx_hal_dma_ex.c ****     __HAL_DMA_CLEAR_FLAG (hdma, __HAL_DMA_GET_HT_FLAG_INDEX(hdma));
 400              		.loc 1 196 5 discriminator 9 view .LVU115
 401 00bc A2F58962 		sub	r2, r2, #1096
 402 00c0 9342     		cmp	r3, r2
 403 00c2 6ED0     		beq	.L72
 196:Drivers/STM32F4xx_HAL_Driver/Src/stm32f4xx_hal_dma_ex.c ****     __HAL_DMA_CLEAR_FLAG (hdma, __HAL_DMA_GET_HT_FLAG_INDEX(hdma));
 404              		.loc 1 196 5 discriminator 11 view .LVU116
 405 00c4 02F58062 		add	r2, r2, #1024
 406 00c8 9342     		cmp	r3, r2
 407 00ca 6DD0     		beq	.L73
 196:Drivers/STM32F4xx_HAL_Driver/Src/stm32f4xx_hal_dma_ex.c ****     __HAL_DMA_CLEAR_FLAG (hdma, __HAL_DMA_GET_HT_FLAG_INDEX(hdma));
 408              		.loc 1 196 5 discriminator 13 view .LVU117
 409 00cc A2F56872 		sub	r2, r2, #928
 410 00d0 9342     		cmp	r3, r2
 411 00d2 6CD0     		beq	.L74
 196:Drivers/STM32F4xx_HAL_Driver/Src/stm32f4xx_hal_dma_ex.c ****     __HAL_DMA_CLEAR_FLAG (hdma, __HAL_DMA_GET_HT_FLAG_INDEX(hdma));
 412              		.loc 1 196 5 discriminator 15 view .LVU118
 413 00d4 02F58062 		add	r2, r2, #1024
 414 00d8 9342     		cmp	r3, r2
 415 00da 6BD0     		beq	.L75
 196:Drivers/STM32F4xx_HAL_Driver/Src/stm32f4xx_hal_dma_ex.c ****     __HAL_DMA_CLEAR_FLAG (hdma, __HAL_DMA_GET_HT_FLAG_INDEX(hdma));
 416              		.loc 1 196 5 discriminator 17 view .LVU119
 417 00dc A2F58962 		sub	r2, r2, #1096
 418 00e0 9342     		cmp	r3, r2
 419 00e2 6AD0     		beq	.L76
 196:Drivers/STM32F4xx_HAL_Driver/Src/stm32f4xx_hal_dma_ex.c ****     __HAL_DMA_CLEAR_FLAG (hdma, __HAL_DMA_GET_HT_FLAG_INDEX(hdma));
 420              		.loc 1 196 5 discriminator 19 view .LVU120
 421 00e4 02F58062 		add	r2, r2, #1024
 422 00e8 9342     		cmp	r3, r2
 423 00ea 69D0     		beq	.L77
 196:Drivers/STM32F4xx_HAL_Driver/Src/stm32f4xx_hal_dma_ex.c ****     __HAL_DMA_CLEAR_FLAG (hdma, __HAL_DMA_GET_HT_FLAG_INDEX(hdma));
 424              		.loc 1 196 5 discriminator 21 view .LVU121
 425 00ec A2F56872 		sub	r2, r2, #928
 426 00f0 9342     		cmp	r3, r2
 427 00f2 68D0     		beq	.L78
 196:Drivers/STM32F4xx_HAL_Driver/Src/stm32f4xx_hal_dma_ex.c ****     __HAL_DMA_CLEAR_FLAG (hdma, __HAL_DMA_GET_HT_FLAG_INDEX(hdma));
 428              		.loc 1 196 5 discriminator 23 view .LVU122
 429 00f4 02F58062 		add	r2, r2, #1024
 430 00f8 9342     		cmp	r3, r2
 431 00fa 02D0     		beq	.L312
 196:Drivers/STM32F4xx_HAL_Driver/Src/stm32f4xx_hal_dma_ex.c ****     __HAL_DMA_CLEAR_FLAG (hdma, __HAL_DMA_GET_HT_FLAG_INDEX(hdma));
 432              		.loc 1 196 5 discriminator 26 view .LVU123
 433 00fc 4FF00062 		mov	r2, #134217728
 434 0100 03E0     		b	.L26
 435              	.L312:
 196:Drivers/STM32F4xx_HAL_Driver/Src/stm32f4xx_hal_dma_ex.c ****     __HAL_DMA_CLEAR_FLAG (hdma, __HAL_DMA_GET_HT_FLAG_INDEX(hdma));
 436              		.loc 1 196 5 discriminator 25 view .LVU124
 437 0102 4FF40012 		mov	r2, #2097152
 438 0106 00E0     		b	.L26
 439              	.L68:
 196:Drivers/STM32F4xx_HAL_Driver/Src/stm32f4xx_hal_dma_ex.c ****     __HAL_DMA_CLEAR_FLAG (hdma, __HAL_DMA_GET_HT_FLAG_INDEX(hdma));
 440              		.loc 1 196 5 discriminator 4 view .LVU125
 441 0108 2022     		movs	r2, #32
 442              	.L26:
 196:Drivers/STM32F4xx_HAL_Driver/Src/stm32f4xx_hal_dma_ex.c ****     __HAL_DMA_CLEAR_FLAG (hdma, __HAL_DMA_GET_HT_FLAG_INDEX(hdma));
 443              		.loc 1 196 5 discriminator 50 view .LVU126
ARM GAS  C:\Users\hanaj\AppData\Local\Temp\ccO9sAWH.s 			page 16


 444 010a 864B     		ldr	r3, .L333+8
 445 010c DA60     		str	r2, [r3, #12]
 446              	.LVL30:
 447              	.L27:
 197:Drivers/STM32F4xx_HAL_Driver/Src/stm32f4xx_hal_dma_ex.c ****     __HAL_DMA_CLEAR_FLAG (hdma, __HAL_DMA_GET_TE_FLAG_INDEX(hdma));
 448              		.loc 1 197 5 is_stmt 1 view .LVU127
 449 010e 2368     		ldr	r3, [r4]
 450 0110 834A     		ldr	r2, .L333+4
 451 0112 9342     		cmp	r3, r2
 452 0114 40F2CD81 		bls	.L33
 197:Drivers/STM32F4xx_HAL_Driver/Src/stm32f4xx_hal_dma_ex.c ****     __HAL_DMA_CLEAR_FLAG (hdma, __HAL_DMA_GET_TE_FLAG_INDEX(hdma));
 453              		.loc 1 197 5 is_stmt 0 discriminator 1 view .LVU128
 454 0118 A2F58962 		sub	r2, r2, #1096
 455 011c 9342     		cmp	r3, r2
 456 011e 00F06681 		beq	.L116
 197:Drivers/STM32F4xx_HAL_Driver/Src/stm32f4xx_hal_dma_ex.c ****     __HAL_DMA_CLEAR_FLAG (hdma, __HAL_DMA_GET_TE_FLAG_INDEX(hdma));
 457              		.loc 1 197 5 discriminator 3 view .LVU129
 458 0122 02F58062 		add	r2, r2, #1024
 459 0126 9342     		cmp	r3, r2
 460 0128 00F0A881 		beq	.L117
 197:Drivers/STM32F4xx_HAL_Driver/Src/stm32f4xx_hal_dma_ex.c ****     __HAL_DMA_CLEAR_FLAG (hdma, __HAL_DMA_GET_TE_FLAG_INDEX(hdma));
 461              		.loc 1 197 5 discriminator 5 view .LVU130
 462 012c A2F56872 		sub	r2, r2, #928
 463 0130 9342     		cmp	r3, r2
 464 0132 00F0A581 		beq	.L118
 197:Drivers/STM32F4xx_HAL_Driver/Src/stm32f4xx_hal_dma_ex.c ****     __HAL_DMA_CLEAR_FLAG (hdma, __HAL_DMA_GET_TE_FLAG_INDEX(hdma));
 465              		.loc 1 197 5 discriminator 7 view .LVU131
 466 0136 02F58062 		add	r2, r2, #1024
 467 013a 9342     		cmp	r3, r2
 468 013c 00F0A281 		beq	.L119
 197:Drivers/STM32F4xx_HAL_Driver/Src/stm32f4xx_hal_dma_ex.c ****     __HAL_DMA_CLEAR_FLAG (hdma, __HAL_DMA_GET_TE_FLAG_INDEX(hdma));
 469              		.loc 1 197 5 discriminator 9 view .LVU132
 470 0140 A2F58962 		sub	r2, r2, #1096
 471 0144 9342     		cmp	r3, r2
 472 0146 00F09F81 		beq	.L120
 197:Drivers/STM32F4xx_HAL_Driver/Src/stm32f4xx_hal_dma_ex.c ****     __HAL_DMA_CLEAR_FLAG (hdma, __HAL_DMA_GET_TE_FLAG_INDEX(hdma));
 473              		.loc 1 197 5 discriminator 11 view .LVU133
 474 014a 02F58062 		add	r2, r2, #1024
 475 014e 9342     		cmp	r3, r2
 476 0150 00F09D81 		beq	.L121
 197:Drivers/STM32F4xx_HAL_Driver/Src/stm32f4xx_hal_dma_ex.c ****     __HAL_DMA_CLEAR_FLAG (hdma, __HAL_DMA_GET_TE_FLAG_INDEX(hdma));
 477              		.loc 1 197 5 discriminator 13 view .LVU134
 478 0154 A2F56872 		sub	r2, r2, #928
 479 0158 9342     		cmp	r3, r2
 480 015a 00F09B81 		beq	.L122
 197:Drivers/STM32F4xx_HAL_Driver/Src/stm32f4xx_hal_dma_ex.c ****     __HAL_DMA_CLEAR_FLAG (hdma, __HAL_DMA_GET_TE_FLAG_INDEX(hdma));
 481              		.loc 1 197 5 discriminator 15 view .LVU135
 482 015e 02F58062 		add	r2, r2, #1024
 483 0162 9342     		cmp	r3, r2
 484 0164 00F09981 		beq	.L123
 197:Drivers/STM32F4xx_HAL_Driver/Src/stm32f4xx_hal_dma_ex.c ****     __HAL_DMA_CLEAR_FLAG (hdma, __HAL_DMA_GET_TE_FLAG_INDEX(hdma));
 485              		.loc 1 197 5 discriminator 17 view .LVU136
 486 0168 A2F58962 		sub	r2, r2, #1096
 487 016c 9342     		cmp	r3, r2
 488 016e 00F09781 		beq	.L124
 197:Drivers/STM32F4xx_HAL_Driver/Src/stm32f4xx_hal_dma_ex.c ****     __HAL_DMA_CLEAR_FLAG (hdma, __HAL_DMA_GET_TE_FLAG_INDEX(hdma));
 489              		.loc 1 197 5 discriminator 19 view .LVU137
ARM GAS  C:\Users\hanaj\AppData\Local\Temp\ccO9sAWH.s 			page 17


 490 0172 02F58062 		add	r2, r2, #1024
 491 0176 9342     		cmp	r3, r2
 492 0178 00F09581 		beq	.L125
 197:Drivers/STM32F4xx_HAL_Driver/Src/stm32f4xx_hal_dma_ex.c ****     __HAL_DMA_CLEAR_FLAG (hdma, __HAL_DMA_GET_TE_FLAG_INDEX(hdma));
 493              		.loc 1 197 5 discriminator 21 view .LVU138
 494 017c A2F56872 		sub	r2, r2, #928
 495 0180 9342     		cmp	r3, r2
 496 0182 00F09381 		beq	.L126
 197:Drivers/STM32F4xx_HAL_Driver/Src/stm32f4xx_hal_dma_ex.c ****     __HAL_DMA_CLEAR_FLAG (hdma, __HAL_DMA_GET_TE_FLAG_INDEX(hdma));
 497              		.loc 1 197 5 discriminator 23 view .LVU139
 498 0186 02F58062 		add	r2, r2, #1024
 499 018a 9342     		cmp	r3, r2
 500 018c 00F02C81 		beq	.L313
 197:Drivers/STM32F4xx_HAL_Driver/Src/stm32f4xx_hal_dma_ex.c ****     __HAL_DMA_CLEAR_FLAG (hdma, __HAL_DMA_GET_TE_FLAG_INDEX(hdma));
 501              		.loc 1 197 5 discriminator 26 view .LVU140
 502 0190 4FF08062 		mov	r2, #67108864
 503 0194 2CE1     		b	.L34
 504              	.LVL31:
 505              	.L69:
 196:Drivers/STM32F4xx_HAL_Driver/Src/stm32f4xx_hal_dma_ex.c ****     __HAL_DMA_CLEAR_FLAG (hdma, __HAL_DMA_GET_HT_FLAG_INDEX(hdma));
 506              		.loc 1 196 5 discriminator 6 view .LVU141
 507 0196 2022     		movs	r2, #32
 508 0198 B7E7     		b	.L26
 509              	.L70:
 196:Drivers/STM32F4xx_HAL_Driver/Src/stm32f4xx_hal_dma_ex.c ****     __HAL_DMA_CLEAR_FLAG (hdma, __HAL_DMA_GET_HT_FLAG_INDEX(hdma));
 510              		.loc 1 196 5 discriminator 8 view .LVU142
 511 019a 2022     		movs	r2, #32
 512 019c B5E7     		b	.L26
 513              	.L71:
 196:Drivers/STM32F4xx_HAL_Driver/Src/stm32f4xx_hal_dma_ex.c ****     __HAL_DMA_CLEAR_FLAG (hdma, __HAL_DMA_GET_HT_FLAG_INDEX(hdma));
 514              		.loc 1 196 5 discriminator 10 view .LVU143
 515 019e 2022     		movs	r2, #32
 516 01a0 B3E7     		b	.L26
 517              	.L72:
 196:Drivers/STM32F4xx_HAL_Driver/Src/stm32f4xx_hal_dma_ex.c ****     __HAL_DMA_CLEAR_FLAG (hdma, __HAL_DMA_GET_HT_FLAG_INDEX(hdma));
 518              		.loc 1 196 5 discriminator 12 view .LVU144
 519 01a2 4FF40062 		mov	r2, #2048
 520 01a6 B0E7     		b	.L26
 521              	.L73:
 196:Drivers/STM32F4xx_HAL_Driver/Src/stm32f4xx_hal_dma_ex.c ****     __HAL_DMA_CLEAR_FLAG (hdma, __HAL_DMA_GET_HT_FLAG_INDEX(hdma));
 522              		.loc 1 196 5 discriminator 14 view .LVU145
 523 01a8 4FF40062 		mov	r2, #2048
 524 01ac ADE7     		b	.L26
 525              	.L74:
 196:Drivers/STM32F4xx_HAL_Driver/Src/stm32f4xx_hal_dma_ex.c ****     __HAL_DMA_CLEAR_FLAG (hdma, __HAL_DMA_GET_HT_FLAG_INDEX(hdma));
 526              		.loc 1 196 5 discriminator 16 view .LVU146
 527 01ae 4FF40062 		mov	r2, #2048
 528 01b2 AAE7     		b	.L26
 529              	.L75:
 196:Drivers/STM32F4xx_HAL_Driver/Src/stm32f4xx_hal_dma_ex.c ****     __HAL_DMA_CLEAR_FLAG (hdma, __HAL_DMA_GET_HT_FLAG_INDEX(hdma));
 530              		.loc 1 196 5 discriminator 18 view .LVU147
 531 01b4 4FF40062 		mov	r2, #2048
 532 01b8 A7E7     		b	.L26
 533              	.L76:
 196:Drivers/STM32F4xx_HAL_Driver/Src/stm32f4xx_hal_dma_ex.c ****     __HAL_DMA_CLEAR_FLAG (hdma, __HAL_DMA_GET_HT_FLAG_INDEX(hdma));
 534              		.loc 1 196 5 discriminator 20 view .LVU148
 535 01ba 4FF40012 		mov	r2, #2097152
ARM GAS  C:\Users\hanaj\AppData\Local\Temp\ccO9sAWH.s 			page 18


 536 01be A4E7     		b	.L26
 537              	.L77:
 196:Drivers/STM32F4xx_HAL_Driver/Src/stm32f4xx_hal_dma_ex.c ****     __HAL_DMA_CLEAR_FLAG (hdma, __HAL_DMA_GET_HT_FLAG_INDEX(hdma));
 538              		.loc 1 196 5 discriminator 22 view .LVU149
 539 01c0 4FF40012 		mov	r2, #2097152
 540 01c4 A1E7     		b	.L26
 541              	.L78:
 196:Drivers/STM32F4xx_HAL_Driver/Src/stm32f4xx_hal_dma_ex.c ****     __HAL_DMA_CLEAR_FLAG (hdma, __HAL_DMA_GET_HT_FLAG_INDEX(hdma));
 542              		.loc 1 196 5 discriminator 24 view .LVU150
 543 01c6 4FF40012 		mov	r2, #2097152
 544 01ca 9EE7     		b	.L26
 545              	.L25:
 196:Drivers/STM32F4xx_HAL_Driver/Src/stm32f4xx_hal_dma_ex.c ****     __HAL_DMA_CLEAR_FLAG (hdma, __HAL_DMA_GET_HT_FLAG_INDEX(hdma));
 546              		.loc 1 196 5 discriminator 2 view .LVU151
 547 01cc 564A     		ldr	r2, .L333+12
 548 01ce 9342     		cmp	r3, r2
 549 01d0 53D9     		bls	.L28
 196:Drivers/STM32F4xx_HAL_Driver/Src/stm32f4xx_hal_dma_ex.c ****     __HAL_DMA_CLEAR_FLAG (hdma, __HAL_DMA_GET_HT_FLAG_INDEX(hdma));
 550              		.loc 1 196 5 discriminator 51 view .LVU152
 551 01d2 A83A     		subs	r2, r2, #168
 552 01d4 9342     		cmp	r3, r2
 553 01d6 31D0     		beq	.L80
 196:Drivers/STM32F4xx_HAL_Driver/Src/stm32f4xx_hal_dma_ex.c ****     __HAL_DMA_CLEAR_FLAG (hdma, __HAL_DMA_GET_HT_FLAG_INDEX(hdma));
 554              		.loc 1 196 5 discriminator 53 view .LVU153
 555 01d8 02F58062 		add	r2, r2, #1024
 556 01dc 9342     		cmp	r3, r2
 557 01de 31D0     		beq	.L81
 196:Drivers/STM32F4xx_HAL_Driver/Src/stm32f4xx_hal_dma_ex.c ****     __HAL_DMA_CLEAR_FLAG (hdma, __HAL_DMA_GET_HT_FLAG_INDEX(hdma));
 558              		.loc 1 196 5 discriminator 55 view .LVU154
 559 01e0 A2F56872 		sub	r2, r2, #928
 560 01e4 9342     		cmp	r3, r2
 561 01e6 2FD0     		beq	.L82
 196:Drivers/STM32F4xx_HAL_Driver/Src/stm32f4xx_hal_dma_ex.c ****     __HAL_DMA_CLEAR_FLAG (hdma, __HAL_DMA_GET_HT_FLAG_INDEX(hdma));
 562              		.loc 1 196 5 discriminator 57 view .LVU155
 563 01e8 02F58062 		add	r2, r2, #1024
 564 01ec 9342     		cmp	r3, r2
 565 01ee 2DD0     		beq	.L83
 196:Drivers/STM32F4xx_HAL_Driver/Src/stm32f4xx_hal_dma_ex.c ****     __HAL_DMA_CLEAR_FLAG (hdma, __HAL_DMA_GET_HT_FLAG_INDEX(hdma));
 566              		.loc 1 196 5 discriminator 59 view .LVU156
 567 01f0 A2F58962 		sub	r2, r2, #1096
 568 01f4 9342     		cmp	r3, r2
 569 01f6 2BD0     		beq	.L84
 196:Drivers/STM32F4xx_HAL_Driver/Src/stm32f4xx_hal_dma_ex.c ****     __HAL_DMA_CLEAR_FLAG (hdma, __HAL_DMA_GET_HT_FLAG_INDEX(hdma));
 570              		.loc 1 196 5 discriminator 61 view .LVU157
 571 01f8 02F58062 		add	r2, r2, #1024
 572 01fc 9342     		cmp	r3, r2
 573 01fe 2AD0     		beq	.L85
 196:Drivers/STM32F4xx_HAL_Driver/Src/stm32f4xx_hal_dma_ex.c ****     __HAL_DMA_CLEAR_FLAG (hdma, __HAL_DMA_GET_HT_FLAG_INDEX(hdma));
 574              		.loc 1 196 5 discriminator 63 view .LVU158
 575 0200 A2F56872 		sub	r2, r2, #928
 576 0204 9342     		cmp	r3, r2
 577 0206 29D0     		beq	.L86
 196:Drivers/STM32F4xx_HAL_Driver/Src/stm32f4xx_hal_dma_ex.c ****     __HAL_DMA_CLEAR_FLAG (hdma, __HAL_DMA_GET_HT_FLAG_INDEX(hdma));
 578              		.loc 1 196 5 discriminator 65 view .LVU159
 579 0208 02F58062 		add	r2, r2, #1024
 580 020c 9342     		cmp	r3, r2
 581 020e 28D0     		beq	.L87
ARM GAS  C:\Users\hanaj\AppData\Local\Temp\ccO9sAWH.s 			page 19


 196:Drivers/STM32F4xx_HAL_Driver/Src/stm32f4xx_hal_dma_ex.c ****     __HAL_DMA_CLEAR_FLAG (hdma, __HAL_DMA_GET_HT_FLAG_INDEX(hdma));
 582              		.loc 1 196 5 discriminator 67 view .LVU160
 583 0210 A2F58962 		sub	r2, r2, #1096
 584 0214 9342     		cmp	r3, r2
 585 0216 27D0     		beq	.L88
 196:Drivers/STM32F4xx_HAL_Driver/Src/stm32f4xx_hal_dma_ex.c ****     __HAL_DMA_CLEAR_FLAG (hdma, __HAL_DMA_GET_HT_FLAG_INDEX(hdma));
 586              		.loc 1 196 5 discriminator 69 view .LVU161
 587 0218 02F58062 		add	r2, r2, #1024
 588 021c 9342     		cmp	r3, r2
 589 021e 26D0     		beq	.L89
 196:Drivers/STM32F4xx_HAL_Driver/Src/stm32f4xx_hal_dma_ex.c ****     __HAL_DMA_CLEAR_FLAG (hdma, __HAL_DMA_GET_HT_FLAG_INDEX(hdma));
 590              		.loc 1 196 5 discriminator 71 view .LVU162
 591 0220 A2F56872 		sub	r2, r2, #928
 592 0224 9342     		cmp	r3, r2
 593 0226 25D0     		beq	.L90
 196:Drivers/STM32F4xx_HAL_Driver/Src/stm32f4xx_hal_dma_ex.c ****     __HAL_DMA_CLEAR_FLAG (hdma, __HAL_DMA_GET_HT_FLAG_INDEX(hdma));
 594              		.loc 1 196 5 discriminator 73 view .LVU163
 595 0228 02F58062 		add	r2, r2, #1024
 596 022c 9342     		cmp	r3, r2
 597 022e 02D0     		beq	.L314
 196:Drivers/STM32F4xx_HAL_Driver/Src/stm32f4xx_hal_dma_ex.c ****     __HAL_DMA_CLEAR_FLAG (hdma, __HAL_DMA_GET_HT_FLAG_INDEX(hdma));
 598              		.loc 1 196 5 discriminator 76 view .LVU164
 599 0230 4FF00063 		mov	r3, #134217728
 600 0234 03E0     		b	.L29
 601              	.L314:
 196:Drivers/STM32F4xx_HAL_Driver/Src/stm32f4xx_hal_dma_ex.c ****     __HAL_DMA_CLEAR_FLAG (hdma, __HAL_DMA_GET_HT_FLAG_INDEX(hdma));
 602              		.loc 1 196 5 discriminator 75 view .LVU165
 603 0236 4FF40013 		mov	r3, #2097152
 604 023a 00E0     		b	.L29
 605              	.L80:
 196:Drivers/STM32F4xx_HAL_Driver/Src/stm32f4xx_hal_dma_ex.c ****     __HAL_DMA_CLEAR_FLAG (hdma, __HAL_DMA_GET_HT_FLAG_INDEX(hdma));
 606              		.loc 1 196 5 discriminator 54 view .LVU166
 607 023c 2023     		movs	r3, #32
 608              	.L29:
 196:Drivers/STM32F4xx_HAL_Driver/Src/stm32f4xx_hal_dma_ex.c ****     __HAL_DMA_CLEAR_FLAG (hdma, __HAL_DMA_GET_HT_FLAG_INDEX(hdma));
 609              		.loc 1 196 5 discriminator 100 view .LVU167
 610 023e 394A     		ldr	r2, .L333+8
 611 0240 9360     		str	r3, [r2, #8]
 612              	.LVL32:
 196:Drivers/STM32F4xx_HAL_Driver/Src/stm32f4xx_hal_dma_ex.c ****     __HAL_DMA_CLEAR_FLAG (hdma, __HAL_DMA_GET_HT_FLAG_INDEX(hdma));
 613              		.loc 1 196 5 discriminator 100 view .LVU168
 614 0242 64E7     		b	.L27
 615              	.LVL33:
 616              	.L81:
 196:Drivers/STM32F4xx_HAL_Driver/Src/stm32f4xx_hal_dma_ex.c ****     __HAL_DMA_CLEAR_FLAG (hdma, __HAL_DMA_GET_HT_FLAG_INDEX(hdma));
 617              		.loc 1 196 5 discriminator 56 view .LVU169
 618 0244 2023     		movs	r3, #32
 619 0246 FAE7     		b	.L29
 620              	.L82:
 196:Drivers/STM32F4xx_HAL_Driver/Src/stm32f4xx_hal_dma_ex.c ****     __HAL_DMA_CLEAR_FLAG (hdma, __HAL_DMA_GET_HT_FLAG_INDEX(hdma));
 621              		.loc 1 196 5 discriminator 58 view .LVU170
 622 0248 2023     		movs	r3, #32
 623 024a F8E7     		b	.L29
 624              	.L83:
 196:Drivers/STM32F4xx_HAL_Driver/Src/stm32f4xx_hal_dma_ex.c ****     __HAL_DMA_CLEAR_FLAG (hdma, __HAL_DMA_GET_HT_FLAG_INDEX(hdma));
 625              		.loc 1 196 5 discriminator 60 view .LVU171
 626 024c 2023     		movs	r3, #32
ARM GAS  C:\Users\hanaj\AppData\Local\Temp\ccO9sAWH.s 			page 20


 627 024e F6E7     		b	.L29
 628              	.L84:
 196:Drivers/STM32F4xx_HAL_Driver/Src/stm32f4xx_hal_dma_ex.c ****     __HAL_DMA_CLEAR_FLAG (hdma, __HAL_DMA_GET_HT_FLAG_INDEX(hdma));
 629              		.loc 1 196 5 discriminator 62 view .LVU172
 630 0250 4FF40063 		mov	r3, #2048
 631 0254 F3E7     		b	.L29
 632              	.L85:
 196:Drivers/STM32F4xx_HAL_Driver/Src/stm32f4xx_hal_dma_ex.c ****     __HAL_DMA_CLEAR_FLAG (hdma, __HAL_DMA_GET_HT_FLAG_INDEX(hdma));
 633              		.loc 1 196 5 discriminator 64 view .LVU173
 634 0256 4FF40063 		mov	r3, #2048
 635 025a F0E7     		b	.L29
 636              	.L86:
 196:Drivers/STM32F4xx_HAL_Driver/Src/stm32f4xx_hal_dma_ex.c ****     __HAL_DMA_CLEAR_FLAG (hdma, __HAL_DMA_GET_HT_FLAG_INDEX(hdma));
 637              		.loc 1 196 5 discriminator 66 view .LVU174
 638 025c 4FF40063 		mov	r3, #2048
 639 0260 EDE7     		b	.L29
 640              	.L87:
 196:Drivers/STM32F4xx_HAL_Driver/Src/stm32f4xx_hal_dma_ex.c ****     __HAL_DMA_CLEAR_FLAG (hdma, __HAL_DMA_GET_HT_FLAG_INDEX(hdma));
 641              		.loc 1 196 5 discriminator 68 view .LVU175
 642 0262 4FF40063 		mov	r3, #2048
 643 0266 EAE7     		b	.L29
 644              	.L88:
 196:Drivers/STM32F4xx_HAL_Driver/Src/stm32f4xx_hal_dma_ex.c ****     __HAL_DMA_CLEAR_FLAG (hdma, __HAL_DMA_GET_HT_FLAG_INDEX(hdma));
 645              		.loc 1 196 5 discriminator 70 view .LVU176
 646 0268 4FF40013 		mov	r3, #2097152
 647 026c E7E7     		b	.L29
 648              	.L89:
 196:Drivers/STM32F4xx_HAL_Driver/Src/stm32f4xx_hal_dma_ex.c ****     __HAL_DMA_CLEAR_FLAG (hdma, __HAL_DMA_GET_HT_FLAG_INDEX(hdma));
 649              		.loc 1 196 5 discriminator 72 view .LVU177
 650 026e 4FF40013 		mov	r3, #2097152
 651 0272 E4E7     		b	.L29
 652              	.L90:
 196:Drivers/STM32F4xx_HAL_Driver/Src/stm32f4xx_hal_dma_ex.c ****     __HAL_DMA_CLEAR_FLAG (hdma, __HAL_DMA_GET_HT_FLAG_INDEX(hdma));
 653              		.loc 1 196 5 discriminator 74 view .LVU178
 654 0274 4FF40013 		mov	r3, #2097152
 655 0278 E1E7     		b	.L29
 656              	.L28:
 196:Drivers/STM32F4xx_HAL_Driver/Src/stm32f4xx_hal_dma_ex.c ****     __HAL_DMA_CLEAR_FLAG (hdma, __HAL_DMA_GET_HT_FLAG_INDEX(hdma));
 657              		.loc 1 196 5 discriminator 52 view .LVU179
 658 027a 2C4A     		ldr	r2, .L333+16
 659 027c 9342     		cmp	r3, r2
 660 027e 5FD9     		bls	.L30
 196:Drivers/STM32F4xx_HAL_Driver/Src/stm32f4xx_hal_dma_ex.c ****     __HAL_DMA_CLEAR_FLAG (hdma, __HAL_DMA_GET_HT_FLAG_INDEX(hdma));
 661              		.loc 1 196 5 discriminator 102 view .LVU180
 662 0280 483A     		subs	r2, r2, #72
 663 0282 9342     		cmp	r3, r2
 664 0284 31D0     		beq	.L92
 196:Drivers/STM32F4xx_HAL_Driver/Src/stm32f4xx_hal_dma_ex.c ****     __HAL_DMA_CLEAR_FLAG (hdma, __HAL_DMA_GET_HT_FLAG_INDEX(hdma));
 665              		.loc 1 196 5 discriminator 104 view .LVU181
 666 0286 02F58062 		add	r2, r2, #1024
 667 028a 9342     		cmp	r3, r2
 668 028c 31D0     		beq	.L93
 196:Drivers/STM32F4xx_HAL_Driver/Src/stm32f4xx_hal_dma_ex.c ****     __HAL_DMA_CLEAR_FLAG (hdma, __HAL_DMA_GET_HT_FLAG_INDEX(hdma));
 669              		.loc 1 196 5 discriminator 106 view .LVU182
 670 028e A2F56872 		sub	r2, r2, #928
 671 0292 9342     		cmp	r3, r2
 672 0294 2FD0     		beq	.L94
ARM GAS  C:\Users\hanaj\AppData\Local\Temp\ccO9sAWH.s 			page 21


 196:Drivers/STM32F4xx_HAL_Driver/Src/stm32f4xx_hal_dma_ex.c ****     __HAL_DMA_CLEAR_FLAG (hdma, __HAL_DMA_GET_HT_FLAG_INDEX(hdma));
 673              		.loc 1 196 5 discriminator 108 view .LVU183
 674 0296 02F58062 		add	r2, r2, #1024
 675 029a 9342     		cmp	r3, r2
 676 029c 2DD0     		beq	.L95
 196:Drivers/STM32F4xx_HAL_Driver/Src/stm32f4xx_hal_dma_ex.c ****     __HAL_DMA_CLEAR_FLAG (hdma, __HAL_DMA_GET_HT_FLAG_INDEX(hdma));
 677              		.loc 1 196 5 discriminator 110 view .LVU184
 678 029e A2F58962 		sub	r2, r2, #1096
 679 02a2 9342     		cmp	r3, r2
 680 02a4 2BD0     		beq	.L96
 196:Drivers/STM32F4xx_HAL_Driver/Src/stm32f4xx_hal_dma_ex.c ****     __HAL_DMA_CLEAR_FLAG (hdma, __HAL_DMA_GET_HT_FLAG_INDEX(hdma));
 681              		.loc 1 196 5 discriminator 112 view .LVU185
 682 02a6 02F58062 		add	r2, r2, #1024
 683 02aa 9342     		cmp	r3, r2
 684 02ac 2AD0     		beq	.L97
 196:Drivers/STM32F4xx_HAL_Driver/Src/stm32f4xx_hal_dma_ex.c ****     __HAL_DMA_CLEAR_FLAG (hdma, __HAL_DMA_GET_HT_FLAG_INDEX(hdma));
 685              		.loc 1 196 5 discriminator 114 view .LVU186
 686 02ae A2F56872 		sub	r2, r2, #928
 687 02b2 9342     		cmp	r3, r2
 688 02b4 29D0     		beq	.L98
 196:Drivers/STM32F4xx_HAL_Driver/Src/stm32f4xx_hal_dma_ex.c ****     __HAL_DMA_CLEAR_FLAG (hdma, __HAL_DMA_GET_HT_FLAG_INDEX(hdma));
 689              		.loc 1 196 5 discriminator 116 view .LVU187
 690 02b6 02F58062 		add	r2, r2, #1024
 691 02ba 9342     		cmp	r3, r2
 692 02bc 28D0     		beq	.L99
 196:Drivers/STM32F4xx_HAL_Driver/Src/stm32f4xx_hal_dma_ex.c ****     __HAL_DMA_CLEAR_FLAG (hdma, __HAL_DMA_GET_HT_FLAG_INDEX(hdma));
 693              		.loc 1 196 5 discriminator 118 view .LVU188
 694 02be A2F58962 		sub	r2, r2, #1096
 695 02c2 9342     		cmp	r3, r2
 696 02c4 27D0     		beq	.L100
 196:Drivers/STM32F4xx_HAL_Driver/Src/stm32f4xx_hal_dma_ex.c ****     __HAL_DMA_CLEAR_FLAG (hdma, __HAL_DMA_GET_HT_FLAG_INDEX(hdma));
 697              		.loc 1 196 5 discriminator 120 view .LVU189
 698 02c6 02F58062 		add	r2, r2, #1024
 699 02ca 9342     		cmp	r3, r2
 700 02cc 32D0     		beq	.L101
 196:Drivers/STM32F4xx_HAL_Driver/Src/stm32f4xx_hal_dma_ex.c ****     __HAL_DMA_CLEAR_FLAG (hdma, __HAL_DMA_GET_HT_FLAG_INDEX(hdma));
 701              		.loc 1 196 5 discriminator 122 view .LVU190
 702 02ce A2F56872 		sub	r2, r2, #928
 703 02d2 9342     		cmp	r3, r2
 704 02d4 31D0     		beq	.L102
 196:Drivers/STM32F4xx_HAL_Driver/Src/stm32f4xx_hal_dma_ex.c ****     __HAL_DMA_CLEAR_FLAG (hdma, __HAL_DMA_GET_HT_FLAG_INDEX(hdma));
 705              		.loc 1 196 5 discriminator 124 view .LVU191
 706 02d6 02F58062 		add	r2, r2, #1024
 707 02da 9342     		cmp	r3, r2
 708 02dc 02D0     		beq	.L315
 196:Drivers/STM32F4xx_HAL_Driver/Src/stm32f4xx_hal_dma_ex.c ****     __HAL_DMA_CLEAR_FLAG (hdma, __HAL_DMA_GET_HT_FLAG_INDEX(hdma));
 709              		.loc 1 196 5 discriminator 127 view .LVU192
 710 02de 4FF00063 		mov	r3, #134217728
 711 02e2 03E0     		b	.L31
 712              	.L315:
 196:Drivers/STM32F4xx_HAL_Driver/Src/stm32f4xx_hal_dma_ex.c ****     __HAL_DMA_CLEAR_FLAG (hdma, __HAL_DMA_GET_HT_FLAG_INDEX(hdma));
 713              		.loc 1 196 5 discriminator 126 view .LVU193
 714 02e4 4FF40013 		mov	r3, #2097152
 715 02e8 00E0     		b	.L31
 716              	.L92:
 196:Drivers/STM32F4xx_HAL_Driver/Src/stm32f4xx_hal_dma_ex.c ****     __HAL_DMA_CLEAR_FLAG (hdma, __HAL_DMA_GET_HT_FLAG_INDEX(hdma));
 717              		.loc 1 196 5 discriminator 105 view .LVU194
ARM GAS  C:\Users\hanaj\AppData\Local\Temp\ccO9sAWH.s 			page 22


 718 02ea 2023     		movs	r3, #32
 719              	.L31:
 196:Drivers/STM32F4xx_HAL_Driver/Src/stm32f4xx_hal_dma_ex.c ****     __HAL_DMA_CLEAR_FLAG (hdma, __HAL_DMA_GET_HT_FLAG_INDEX(hdma));
 720              		.loc 1 196 5 discriminator 151 view .LVU195
 721 02ec 104A     		ldr	r2, .L333+20
 722 02ee D360     		str	r3, [r2, #12]
 723              	.LVL34:
 196:Drivers/STM32F4xx_HAL_Driver/Src/stm32f4xx_hal_dma_ex.c ****     __HAL_DMA_CLEAR_FLAG (hdma, __HAL_DMA_GET_HT_FLAG_INDEX(hdma));
 724              		.loc 1 196 5 discriminator 151 view .LVU196
 725 02f0 0DE7     		b	.L27
 726              	.LVL35:
 727              	.L93:
 196:Drivers/STM32F4xx_HAL_Driver/Src/stm32f4xx_hal_dma_ex.c ****     __HAL_DMA_CLEAR_FLAG (hdma, __HAL_DMA_GET_HT_FLAG_INDEX(hdma));
 728              		.loc 1 196 5 discriminator 107 view .LVU197
 729 02f2 2023     		movs	r3, #32
 730 02f4 FAE7     		b	.L31
 731              	.L94:
 196:Drivers/STM32F4xx_HAL_Driver/Src/stm32f4xx_hal_dma_ex.c ****     __HAL_DMA_CLEAR_FLAG (hdma, __HAL_DMA_GET_HT_FLAG_INDEX(hdma));
 732              		.loc 1 196 5 discriminator 109 view .LVU198
 733 02f6 2023     		movs	r3, #32
 734 02f8 F8E7     		b	.L31
 735              	.L95:
 196:Drivers/STM32F4xx_HAL_Driver/Src/stm32f4xx_hal_dma_ex.c ****     __HAL_DMA_CLEAR_FLAG (hdma, __HAL_DMA_GET_HT_FLAG_INDEX(hdma));
 736              		.loc 1 196 5 discriminator 111 view .LVU199
 737 02fa 2023     		movs	r3, #32
 738 02fc F6E7     		b	.L31
 739              	.L96:
 196:Drivers/STM32F4xx_HAL_Driver/Src/stm32f4xx_hal_dma_ex.c ****     __HAL_DMA_CLEAR_FLAG (hdma, __HAL_DMA_GET_HT_FLAG_INDEX(hdma));
 740              		.loc 1 196 5 discriminator 113 view .LVU200
 741 02fe 4FF40063 		mov	r3, #2048
 742 0302 F3E7     		b	.L31
 743              	.L97:
 196:Drivers/STM32F4xx_HAL_Driver/Src/stm32f4xx_hal_dma_ex.c ****     __HAL_DMA_CLEAR_FLAG (hdma, __HAL_DMA_GET_HT_FLAG_INDEX(hdma));
 744              		.loc 1 196 5 discriminator 115 view .LVU201
 745 0304 4FF40063 		mov	r3, #2048
 746 0308 F0E7     		b	.L31
 747              	.L98:
 196:Drivers/STM32F4xx_HAL_Driver/Src/stm32f4xx_hal_dma_ex.c ****     __HAL_DMA_CLEAR_FLAG (hdma, __HAL_DMA_GET_HT_FLAG_INDEX(hdma));
 748              		.loc 1 196 5 discriminator 117 view .LVU202
 749 030a 4FF40063 		mov	r3, #2048
 750 030e EDE7     		b	.L31
 751              	.L99:
 196:Drivers/STM32F4xx_HAL_Driver/Src/stm32f4xx_hal_dma_ex.c ****     __HAL_DMA_CLEAR_FLAG (hdma, __HAL_DMA_GET_HT_FLAG_INDEX(hdma));
 752              		.loc 1 196 5 discriminator 119 view .LVU203
 753 0310 4FF40063 		mov	r3, #2048
 754 0314 EAE7     		b	.L31
 755              	.L100:
 196:Drivers/STM32F4xx_HAL_Driver/Src/stm32f4xx_hal_dma_ex.c ****     __HAL_DMA_CLEAR_FLAG (hdma, __HAL_DMA_GET_HT_FLAG_INDEX(hdma));
 756              		.loc 1 196 5 discriminator 121 view .LVU204
 757 0316 4FF40013 		mov	r3, #2097152
 758 031a E7E7     		b	.L31
 759              	.L334:
 760              		.align	2
 761              	.L333:
 762 031c 00000000 		.word	.LC0
 763 0320 58640240 		.word	1073898584
 764 0324 00640240 		.word	1073898496
ARM GAS  C:\Users\hanaj\AppData\Local\Temp\ccO9sAWH.s 			page 23


 765 0328 B8600240 		.word	1073897656
 766 032c 58600240 		.word	1073897560
 767 0330 00600240 		.word	1073897472
 768              	.L101:
 196:Drivers/STM32F4xx_HAL_Driver/Src/stm32f4xx_hal_dma_ex.c ****     __HAL_DMA_CLEAR_FLAG (hdma, __HAL_DMA_GET_HT_FLAG_INDEX(hdma));
 769              		.loc 1 196 5 discriminator 123 view .LVU205
 770 0334 4FF40013 		mov	r3, #2097152
 771 0338 D8E7     		b	.L31
 772              	.L102:
 196:Drivers/STM32F4xx_HAL_Driver/Src/stm32f4xx_hal_dma_ex.c ****     __HAL_DMA_CLEAR_FLAG (hdma, __HAL_DMA_GET_HT_FLAG_INDEX(hdma));
 773              		.loc 1 196 5 discriminator 125 view .LVU206
 774 033a 4FF40013 		mov	r3, #2097152
 775 033e D5E7     		b	.L31
 776              	.L30:
 196:Drivers/STM32F4xx_HAL_Driver/Src/stm32f4xx_hal_dma_ex.c ****     __HAL_DMA_CLEAR_FLAG (hdma, __HAL_DMA_GET_HT_FLAG_INDEX(hdma));
 777              		.loc 1 196 5 discriminator 103 view .LVU207
 778 0340 B14A     		ldr	r2, .L335
 779 0342 9342     		cmp	r3, r2
 780 0344 31D0     		beq	.L104
 196:Drivers/STM32F4xx_HAL_Driver/Src/stm32f4xx_hal_dma_ex.c ****     __HAL_DMA_CLEAR_FLAG (hdma, __HAL_DMA_GET_HT_FLAG_INDEX(hdma));
 781              		.loc 1 196 5 discriminator 153 view .LVU208
 782 0346 02F58062 		add	r2, r2, #1024
 783 034a 9342     		cmp	r3, r2
 784 034c 31D0     		beq	.L105
 196:Drivers/STM32F4xx_HAL_Driver/Src/stm32f4xx_hal_dma_ex.c ****     __HAL_DMA_CLEAR_FLAG (hdma, __HAL_DMA_GET_HT_FLAG_INDEX(hdma));
 785              		.loc 1 196 5 discriminator 155 view .LVU209
 786 034e A2F56872 		sub	r2, r2, #928
 787 0352 9342     		cmp	r3, r2
 788 0354 2FD0     		beq	.L106
 196:Drivers/STM32F4xx_HAL_Driver/Src/stm32f4xx_hal_dma_ex.c ****     __HAL_DMA_CLEAR_FLAG (hdma, __HAL_DMA_GET_HT_FLAG_INDEX(hdma));
 789              		.loc 1 196 5 discriminator 157 view .LVU210
 790 0356 02F58062 		add	r2, r2, #1024
 791 035a 9342     		cmp	r3, r2
 792 035c 2DD0     		beq	.L107
 196:Drivers/STM32F4xx_HAL_Driver/Src/stm32f4xx_hal_dma_ex.c ****     __HAL_DMA_CLEAR_FLAG (hdma, __HAL_DMA_GET_HT_FLAG_INDEX(hdma));
 793              		.loc 1 196 5 discriminator 159 view .LVU211
 794 035e A2F58962 		sub	r2, r2, #1096
 795 0362 9342     		cmp	r3, r2
 796 0364 2BD0     		beq	.L108
 196:Drivers/STM32F4xx_HAL_Driver/Src/stm32f4xx_hal_dma_ex.c ****     __HAL_DMA_CLEAR_FLAG (hdma, __HAL_DMA_GET_HT_FLAG_INDEX(hdma));
 797              		.loc 1 196 5 discriminator 161 view .LVU212
 798 0366 02F58062 		add	r2, r2, #1024
 799 036a 9342     		cmp	r3, r2
 800 036c 2AD0     		beq	.L109
 196:Drivers/STM32F4xx_HAL_Driver/Src/stm32f4xx_hal_dma_ex.c ****     __HAL_DMA_CLEAR_FLAG (hdma, __HAL_DMA_GET_HT_FLAG_INDEX(hdma));
 801              		.loc 1 196 5 discriminator 163 view .LVU213
 802 036e A2F56872 		sub	r2, r2, #928
 803 0372 9342     		cmp	r3, r2
 804 0374 29D0     		beq	.L110
 196:Drivers/STM32F4xx_HAL_Driver/Src/stm32f4xx_hal_dma_ex.c ****     __HAL_DMA_CLEAR_FLAG (hdma, __HAL_DMA_GET_HT_FLAG_INDEX(hdma));
 805              		.loc 1 196 5 discriminator 165 view .LVU214
 806 0376 02F58062 		add	r2, r2, #1024
 807 037a 9342     		cmp	r3, r2
 808 037c 28D0     		beq	.L111
 196:Drivers/STM32F4xx_HAL_Driver/Src/stm32f4xx_hal_dma_ex.c ****     __HAL_DMA_CLEAR_FLAG (hdma, __HAL_DMA_GET_HT_FLAG_INDEX(hdma));
 809              		.loc 1 196 5 discriminator 167 view .LVU215
 810 037e A2F58962 		sub	r2, r2, #1096
ARM GAS  C:\Users\hanaj\AppData\Local\Temp\ccO9sAWH.s 			page 24


 811 0382 9342     		cmp	r3, r2
 812 0384 27D0     		beq	.L112
 196:Drivers/STM32F4xx_HAL_Driver/Src/stm32f4xx_hal_dma_ex.c ****     __HAL_DMA_CLEAR_FLAG (hdma, __HAL_DMA_GET_HT_FLAG_INDEX(hdma));
 813              		.loc 1 196 5 discriminator 169 view .LVU216
 814 0386 02F58062 		add	r2, r2, #1024
 815 038a 9342     		cmp	r3, r2
 816 038c 26D0     		beq	.L113
 196:Drivers/STM32F4xx_HAL_Driver/Src/stm32f4xx_hal_dma_ex.c ****     __HAL_DMA_CLEAR_FLAG (hdma, __HAL_DMA_GET_HT_FLAG_INDEX(hdma));
 817              		.loc 1 196 5 discriminator 171 view .LVU217
 818 038e A2F56872 		sub	r2, r2, #928
 819 0392 9342     		cmp	r3, r2
 820 0394 25D0     		beq	.L114
 196:Drivers/STM32F4xx_HAL_Driver/Src/stm32f4xx_hal_dma_ex.c ****     __HAL_DMA_CLEAR_FLAG (hdma, __HAL_DMA_GET_HT_FLAG_INDEX(hdma));
 821              		.loc 1 196 5 discriminator 173 view .LVU218
 822 0396 02F58062 		add	r2, r2, #1024
 823 039a 9342     		cmp	r3, r2
 824 039c 02D0     		beq	.L316
 196:Drivers/STM32F4xx_HAL_Driver/Src/stm32f4xx_hal_dma_ex.c ****     __HAL_DMA_CLEAR_FLAG (hdma, __HAL_DMA_GET_HT_FLAG_INDEX(hdma));
 825              		.loc 1 196 5 discriminator 176 view .LVU219
 826 039e 4FF00063 		mov	r3, #134217728
 827 03a2 03E0     		b	.L32
 828              	.L316:
 196:Drivers/STM32F4xx_HAL_Driver/Src/stm32f4xx_hal_dma_ex.c ****     __HAL_DMA_CLEAR_FLAG (hdma, __HAL_DMA_GET_HT_FLAG_INDEX(hdma));
 829              		.loc 1 196 5 discriminator 175 view .LVU220
 830 03a4 4FF40013 		mov	r3, #2097152
 831 03a8 00E0     		b	.L32
 832              	.L104:
 196:Drivers/STM32F4xx_HAL_Driver/Src/stm32f4xx_hal_dma_ex.c ****     __HAL_DMA_CLEAR_FLAG (hdma, __HAL_DMA_GET_HT_FLAG_INDEX(hdma));
 833              		.loc 1 196 5 discriminator 154 view .LVU221
 834 03aa 2023     		movs	r3, #32
 835              	.L32:
 196:Drivers/STM32F4xx_HAL_Driver/Src/stm32f4xx_hal_dma_ex.c ****     __HAL_DMA_CLEAR_FLAG (hdma, __HAL_DMA_GET_HT_FLAG_INDEX(hdma));
 836              		.loc 1 196 5 discriminator 200 view .LVU222
 837 03ac 974A     		ldr	r2, .L335+4
 838 03ae 9360     		str	r3, [r2, #8]
 839              	.LVL36:
 196:Drivers/STM32F4xx_HAL_Driver/Src/stm32f4xx_hal_dma_ex.c ****     __HAL_DMA_CLEAR_FLAG (hdma, __HAL_DMA_GET_HT_FLAG_INDEX(hdma));
 840              		.loc 1 196 5 discriminator 200 view .LVU223
 841 03b0 ADE6     		b	.L27
 842              	.LVL37:
 843              	.L105:
 196:Drivers/STM32F4xx_HAL_Driver/Src/stm32f4xx_hal_dma_ex.c ****     __HAL_DMA_CLEAR_FLAG (hdma, __HAL_DMA_GET_HT_FLAG_INDEX(hdma));
 844              		.loc 1 196 5 discriminator 156 view .LVU224
 845 03b2 2023     		movs	r3, #32
 846 03b4 FAE7     		b	.L32
 847              	.L106:
 196:Drivers/STM32F4xx_HAL_Driver/Src/stm32f4xx_hal_dma_ex.c ****     __HAL_DMA_CLEAR_FLAG (hdma, __HAL_DMA_GET_HT_FLAG_INDEX(hdma));
 848              		.loc 1 196 5 discriminator 158 view .LVU225
 849 03b6 2023     		movs	r3, #32
 850 03b8 F8E7     		b	.L32
 851              	.L107:
 196:Drivers/STM32F4xx_HAL_Driver/Src/stm32f4xx_hal_dma_ex.c ****     __HAL_DMA_CLEAR_FLAG (hdma, __HAL_DMA_GET_HT_FLAG_INDEX(hdma));
 852              		.loc 1 196 5 discriminator 160 view .LVU226
 853 03ba 2023     		movs	r3, #32
 854 03bc F6E7     		b	.L32
 855              	.L108:
 196:Drivers/STM32F4xx_HAL_Driver/Src/stm32f4xx_hal_dma_ex.c ****     __HAL_DMA_CLEAR_FLAG (hdma, __HAL_DMA_GET_HT_FLAG_INDEX(hdma));
ARM GAS  C:\Users\hanaj\AppData\Local\Temp\ccO9sAWH.s 			page 25


 856              		.loc 1 196 5 discriminator 162 view .LVU227
 857 03be 4FF40063 		mov	r3, #2048
 858 03c2 F3E7     		b	.L32
 859              	.L109:
 196:Drivers/STM32F4xx_HAL_Driver/Src/stm32f4xx_hal_dma_ex.c ****     __HAL_DMA_CLEAR_FLAG (hdma, __HAL_DMA_GET_HT_FLAG_INDEX(hdma));
 860              		.loc 1 196 5 discriminator 164 view .LVU228
 861 03c4 4FF40063 		mov	r3, #2048
 862 03c8 F0E7     		b	.L32
 863              	.L110:
 196:Drivers/STM32F4xx_HAL_Driver/Src/stm32f4xx_hal_dma_ex.c ****     __HAL_DMA_CLEAR_FLAG (hdma, __HAL_DMA_GET_HT_FLAG_INDEX(hdma));
 864              		.loc 1 196 5 discriminator 166 view .LVU229
 865 03ca 4FF40063 		mov	r3, #2048
 866 03ce EDE7     		b	.L32
 867              	.L111:
 196:Drivers/STM32F4xx_HAL_Driver/Src/stm32f4xx_hal_dma_ex.c ****     __HAL_DMA_CLEAR_FLAG (hdma, __HAL_DMA_GET_HT_FLAG_INDEX(hdma));
 868              		.loc 1 196 5 discriminator 168 view .LVU230
 869 03d0 4FF40063 		mov	r3, #2048
 870 03d4 EAE7     		b	.L32
 871              	.L112:
 196:Drivers/STM32F4xx_HAL_Driver/Src/stm32f4xx_hal_dma_ex.c ****     __HAL_DMA_CLEAR_FLAG (hdma, __HAL_DMA_GET_HT_FLAG_INDEX(hdma));
 872              		.loc 1 196 5 discriminator 170 view .LVU231
 873 03d6 4FF40013 		mov	r3, #2097152
 874 03da E7E7     		b	.L32
 875              	.L113:
 196:Drivers/STM32F4xx_HAL_Driver/Src/stm32f4xx_hal_dma_ex.c ****     __HAL_DMA_CLEAR_FLAG (hdma, __HAL_DMA_GET_HT_FLAG_INDEX(hdma));
 876              		.loc 1 196 5 discriminator 172 view .LVU232
 877 03dc 4FF40013 		mov	r3, #2097152
 878 03e0 E4E7     		b	.L32
 879              	.L114:
 196:Drivers/STM32F4xx_HAL_Driver/Src/stm32f4xx_hal_dma_ex.c ****     __HAL_DMA_CLEAR_FLAG (hdma, __HAL_DMA_GET_HT_FLAG_INDEX(hdma));
 880              		.loc 1 196 5 discriminator 174 view .LVU233
 881 03e2 4FF40013 		mov	r3, #2097152
 882 03e6 E1E7     		b	.L32
 883              	.LVL38:
 884              	.L313:
 197:Drivers/STM32F4xx_HAL_Driver/Src/stm32f4xx_hal_dma_ex.c ****     __HAL_DMA_CLEAR_FLAG (hdma, __HAL_DMA_GET_TE_FLAG_INDEX(hdma));
 885              		.loc 1 197 5 discriminator 25 view .LVU234
 886 03e8 4FF48012 		mov	r2, #1048576
 887 03ec 00E0     		b	.L34
 888              	.L116:
 197:Drivers/STM32F4xx_HAL_Driver/Src/stm32f4xx_hal_dma_ex.c ****     __HAL_DMA_CLEAR_FLAG (hdma, __HAL_DMA_GET_TE_FLAG_INDEX(hdma));
 889              		.loc 1 197 5 discriminator 4 view .LVU235
 890 03ee 1022     		movs	r2, #16
 891              	.L34:
 197:Drivers/STM32F4xx_HAL_Driver/Src/stm32f4xx_hal_dma_ex.c ****     __HAL_DMA_CLEAR_FLAG (hdma, __HAL_DMA_GET_TE_FLAG_INDEX(hdma));
 892              		.loc 1 197 5 discriminator 50 view .LVU236
 893 03f0 874B     		ldr	r3, .L335+8
 894 03f2 DA60     		str	r2, [r3, #12]
 895              	.L35:
 198:Drivers/STM32F4xx_HAL_Driver/Src/stm32f4xx_hal_dma_ex.c ****     __HAL_DMA_CLEAR_FLAG (hdma, __HAL_DMA_GET_DME_FLAG_INDEX(hdma));
 896              		.loc 1 198 5 is_stmt 1 view .LVU237
 897 03f4 2368     		ldr	r3, [r4]
 898 03f6 874A     		ldr	r2, .L335+12
 899 03f8 9342     		cmp	r3, r2
 900 03fa 40F2CD81 		bls	.L41
 198:Drivers/STM32F4xx_HAL_Driver/Src/stm32f4xx_hal_dma_ex.c ****     __HAL_DMA_CLEAR_FLAG (hdma, __HAL_DMA_GET_DME_FLAG_INDEX(hdma));
 901              		.loc 1 198 5 is_stmt 0 discriminator 1 view .LVU238
ARM GAS  C:\Users\hanaj\AppData\Local\Temp\ccO9sAWH.s 			page 26


 902 03fe A2F58962 		sub	r2, r2, #1096
 903 0402 9342     		cmp	r3, r2
 904 0404 00F06681 		beq	.L164
 198:Drivers/STM32F4xx_HAL_Driver/Src/stm32f4xx_hal_dma_ex.c ****     __HAL_DMA_CLEAR_FLAG (hdma, __HAL_DMA_GET_DME_FLAG_INDEX(hdma));
 905              		.loc 1 198 5 discriminator 3 view .LVU239
 906 0408 02F58062 		add	r2, r2, #1024
 907 040c 9342     		cmp	r3, r2
 908 040e 00F0A881 		beq	.L165
 198:Drivers/STM32F4xx_HAL_Driver/Src/stm32f4xx_hal_dma_ex.c ****     __HAL_DMA_CLEAR_FLAG (hdma, __HAL_DMA_GET_DME_FLAG_INDEX(hdma));
 909              		.loc 1 198 5 discriminator 5 view .LVU240
 910 0412 A2F56872 		sub	r2, r2, #928
 911 0416 9342     		cmp	r3, r2
 912 0418 00F0A581 		beq	.L166
 198:Drivers/STM32F4xx_HAL_Driver/Src/stm32f4xx_hal_dma_ex.c ****     __HAL_DMA_CLEAR_FLAG (hdma, __HAL_DMA_GET_DME_FLAG_INDEX(hdma));
 913              		.loc 1 198 5 discriminator 7 view .LVU241
 914 041c 02F58062 		add	r2, r2, #1024
 915 0420 9342     		cmp	r3, r2
 916 0422 00F0A281 		beq	.L167
 198:Drivers/STM32F4xx_HAL_Driver/Src/stm32f4xx_hal_dma_ex.c ****     __HAL_DMA_CLEAR_FLAG (hdma, __HAL_DMA_GET_DME_FLAG_INDEX(hdma));
 917              		.loc 1 198 5 discriminator 9 view .LVU242
 918 0426 A2F58962 		sub	r2, r2, #1096
 919 042a 9342     		cmp	r3, r2
 920 042c 00F09F81 		beq	.L168
 198:Drivers/STM32F4xx_HAL_Driver/Src/stm32f4xx_hal_dma_ex.c ****     __HAL_DMA_CLEAR_FLAG (hdma, __HAL_DMA_GET_DME_FLAG_INDEX(hdma));
 921              		.loc 1 198 5 discriminator 11 view .LVU243
 922 0430 02F58062 		add	r2, r2, #1024
 923 0434 9342     		cmp	r3, r2
 924 0436 00F09D81 		beq	.L169
 198:Drivers/STM32F4xx_HAL_Driver/Src/stm32f4xx_hal_dma_ex.c ****     __HAL_DMA_CLEAR_FLAG (hdma, __HAL_DMA_GET_DME_FLAG_INDEX(hdma));
 925              		.loc 1 198 5 discriminator 13 view .LVU244
 926 043a A2F56872 		sub	r2, r2, #928
 927 043e 9342     		cmp	r3, r2
 928 0440 00F09B81 		beq	.L170
 198:Drivers/STM32F4xx_HAL_Driver/Src/stm32f4xx_hal_dma_ex.c ****     __HAL_DMA_CLEAR_FLAG (hdma, __HAL_DMA_GET_DME_FLAG_INDEX(hdma));
 929              		.loc 1 198 5 discriminator 15 view .LVU245
 930 0444 02F58062 		add	r2, r2, #1024
 931 0448 9342     		cmp	r3, r2
 932 044a 00F09981 		beq	.L171
 198:Drivers/STM32F4xx_HAL_Driver/Src/stm32f4xx_hal_dma_ex.c ****     __HAL_DMA_CLEAR_FLAG (hdma, __HAL_DMA_GET_DME_FLAG_INDEX(hdma));
 933              		.loc 1 198 5 discriminator 17 view .LVU246
 934 044e A2F58962 		sub	r2, r2, #1096
 935 0452 9342     		cmp	r3, r2
 936 0454 00F09781 		beq	.L172
 198:Drivers/STM32F4xx_HAL_Driver/Src/stm32f4xx_hal_dma_ex.c ****     __HAL_DMA_CLEAR_FLAG (hdma, __HAL_DMA_GET_DME_FLAG_INDEX(hdma));
 937              		.loc 1 198 5 discriminator 19 view .LVU247
 938 0458 02F58062 		add	r2, r2, #1024
 939 045c 9342     		cmp	r3, r2
 940 045e 00F09581 		beq	.L173
 198:Drivers/STM32F4xx_HAL_Driver/Src/stm32f4xx_hal_dma_ex.c ****     __HAL_DMA_CLEAR_FLAG (hdma, __HAL_DMA_GET_DME_FLAG_INDEX(hdma));
 941              		.loc 1 198 5 discriminator 21 view .LVU248
 942 0462 A2F56872 		sub	r2, r2, #928
 943 0466 9342     		cmp	r3, r2
 944 0468 00F09381 		beq	.L174
 198:Drivers/STM32F4xx_HAL_Driver/Src/stm32f4xx_hal_dma_ex.c ****     __HAL_DMA_CLEAR_FLAG (hdma, __HAL_DMA_GET_DME_FLAG_INDEX(hdma));
 945              		.loc 1 198 5 discriminator 23 view .LVU249
 946 046c 02F58062 		add	r2, r2, #1024
 947 0470 9342     		cmp	r3, r2
ARM GAS  C:\Users\hanaj\AppData\Local\Temp\ccO9sAWH.s 			page 27


 948 0472 00F02C81 		beq	.L317
 198:Drivers/STM32F4xx_HAL_Driver/Src/stm32f4xx_hal_dma_ex.c ****     __HAL_DMA_CLEAR_FLAG (hdma, __HAL_DMA_GET_DME_FLAG_INDEX(hdma));
 949              		.loc 1 198 5 discriminator 26 view .LVU250
 950 0476 4FF00072 		mov	r2, #33554432
 951 047a 2CE1     		b	.L42
 952              	.L117:
 197:Drivers/STM32F4xx_HAL_Driver/Src/stm32f4xx_hal_dma_ex.c ****     __HAL_DMA_CLEAR_FLAG (hdma, __HAL_DMA_GET_TE_FLAG_INDEX(hdma));
 953              		.loc 1 197 5 discriminator 6 view .LVU251
 954 047c 1022     		movs	r2, #16
 955 047e B7E7     		b	.L34
 956              	.L118:
 197:Drivers/STM32F4xx_HAL_Driver/Src/stm32f4xx_hal_dma_ex.c ****     __HAL_DMA_CLEAR_FLAG (hdma, __HAL_DMA_GET_TE_FLAG_INDEX(hdma));
 957              		.loc 1 197 5 discriminator 8 view .LVU252
 958 0480 1022     		movs	r2, #16
 959 0482 B5E7     		b	.L34
 960              	.L119:
 197:Drivers/STM32F4xx_HAL_Driver/Src/stm32f4xx_hal_dma_ex.c ****     __HAL_DMA_CLEAR_FLAG (hdma, __HAL_DMA_GET_TE_FLAG_INDEX(hdma));
 961              		.loc 1 197 5 discriminator 10 view .LVU253
 962 0484 1022     		movs	r2, #16
 963 0486 B3E7     		b	.L34
 964              	.L120:
 197:Drivers/STM32F4xx_HAL_Driver/Src/stm32f4xx_hal_dma_ex.c ****     __HAL_DMA_CLEAR_FLAG (hdma, __HAL_DMA_GET_TE_FLAG_INDEX(hdma));
 965              		.loc 1 197 5 discriminator 12 view .LVU254
 966 0488 4FF48062 		mov	r2, #1024
 967 048c B0E7     		b	.L34
 968              	.L121:
 197:Drivers/STM32F4xx_HAL_Driver/Src/stm32f4xx_hal_dma_ex.c ****     __HAL_DMA_CLEAR_FLAG (hdma, __HAL_DMA_GET_TE_FLAG_INDEX(hdma));
 969              		.loc 1 197 5 discriminator 14 view .LVU255
 970 048e 4FF48062 		mov	r2, #1024
 971 0492 ADE7     		b	.L34
 972              	.L122:
 197:Drivers/STM32F4xx_HAL_Driver/Src/stm32f4xx_hal_dma_ex.c ****     __HAL_DMA_CLEAR_FLAG (hdma, __HAL_DMA_GET_TE_FLAG_INDEX(hdma));
 973              		.loc 1 197 5 discriminator 16 view .LVU256
 974 0494 4FF48062 		mov	r2, #1024
 975 0498 AAE7     		b	.L34
 976              	.L123:
 197:Drivers/STM32F4xx_HAL_Driver/Src/stm32f4xx_hal_dma_ex.c ****     __HAL_DMA_CLEAR_FLAG (hdma, __HAL_DMA_GET_TE_FLAG_INDEX(hdma));
 977              		.loc 1 197 5 discriminator 18 view .LVU257
 978 049a 4FF48062 		mov	r2, #1024
 979 049e A7E7     		b	.L34
 980              	.L124:
 197:Drivers/STM32F4xx_HAL_Driver/Src/stm32f4xx_hal_dma_ex.c ****     __HAL_DMA_CLEAR_FLAG (hdma, __HAL_DMA_GET_TE_FLAG_INDEX(hdma));
 981              		.loc 1 197 5 discriminator 20 view .LVU258
 982 04a0 4FF48012 		mov	r2, #1048576
 983 04a4 A4E7     		b	.L34
 984              	.L125:
 197:Drivers/STM32F4xx_HAL_Driver/Src/stm32f4xx_hal_dma_ex.c ****     __HAL_DMA_CLEAR_FLAG (hdma, __HAL_DMA_GET_TE_FLAG_INDEX(hdma));
 985              		.loc 1 197 5 discriminator 22 view .LVU259
 986 04a6 4FF48012 		mov	r2, #1048576
 987 04aa A1E7     		b	.L34
 988              	.L126:
 197:Drivers/STM32F4xx_HAL_Driver/Src/stm32f4xx_hal_dma_ex.c ****     __HAL_DMA_CLEAR_FLAG (hdma, __HAL_DMA_GET_TE_FLAG_INDEX(hdma));
 989              		.loc 1 197 5 discriminator 24 view .LVU260
 990 04ac 4FF48012 		mov	r2, #1048576
 991 04b0 9EE7     		b	.L34
 992              	.L33:
 197:Drivers/STM32F4xx_HAL_Driver/Src/stm32f4xx_hal_dma_ex.c ****     __HAL_DMA_CLEAR_FLAG (hdma, __HAL_DMA_GET_TE_FLAG_INDEX(hdma));
ARM GAS  C:\Users\hanaj\AppData\Local\Temp\ccO9sAWH.s 			page 28


 993              		.loc 1 197 5 discriminator 2 view .LVU261
 994 04b2 594A     		ldr	r2, .L335+16
 995 04b4 9342     		cmp	r3, r2
 996 04b6 53D9     		bls	.L36
 197:Drivers/STM32F4xx_HAL_Driver/Src/stm32f4xx_hal_dma_ex.c ****     __HAL_DMA_CLEAR_FLAG (hdma, __HAL_DMA_GET_TE_FLAG_INDEX(hdma));
 997              		.loc 1 197 5 discriminator 51 view .LVU262
 998 04b8 A83A     		subs	r2, r2, #168
 999 04ba 9342     		cmp	r3, r2
 1000 04bc 31D0     		beq	.L128
 197:Drivers/STM32F4xx_HAL_Driver/Src/stm32f4xx_hal_dma_ex.c ****     __HAL_DMA_CLEAR_FLAG (hdma, __HAL_DMA_GET_TE_FLAG_INDEX(hdma));
 1001              		.loc 1 197 5 discriminator 53 view .LVU263
 1002 04be 02F58062 		add	r2, r2, #1024
 1003 04c2 9342     		cmp	r3, r2
 1004 04c4 31D0     		beq	.L129
 197:Drivers/STM32F4xx_HAL_Driver/Src/stm32f4xx_hal_dma_ex.c ****     __HAL_DMA_CLEAR_FLAG (hdma, __HAL_DMA_GET_TE_FLAG_INDEX(hdma));
 1005              		.loc 1 197 5 discriminator 55 view .LVU264
 1006 04c6 A2F56872 		sub	r2, r2, #928
 1007 04ca 9342     		cmp	r3, r2
 1008 04cc 2FD0     		beq	.L130
 197:Drivers/STM32F4xx_HAL_Driver/Src/stm32f4xx_hal_dma_ex.c ****     __HAL_DMA_CLEAR_FLAG (hdma, __HAL_DMA_GET_TE_FLAG_INDEX(hdma));
 1009              		.loc 1 197 5 discriminator 57 view .LVU265
 1010 04ce 02F58062 		add	r2, r2, #1024
 1011 04d2 9342     		cmp	r3, r2
 1012 04d4 2DD0     		beq	.L131
 197:Drivers/STM32F4xx_HAL_Driver/Src/stm32f4xx_hal_dma_ex.c ****     __HAL_DMA_CLEAR_FLAG (hdma, __HAL_DMA_GET_TE_FLAG_INDEX(hdma));
 1013              		.loc 1 197 5 discriminator 59 view .LVU266
 1014 04d6 A2F58962 		sub	r2, r2, #1096
 1015 04da 9342     		cmp	r3, r2
 1016 04dc 2BD0     		beq	.L132
 197:Drivers/STM32F4xx_HAL_Driver/Src/stm32f4xx_hal_dma_ex.c ****     __HAL_DMA_CLEAR_FLAG (hdma, __HAL_DMA_GET_TE_FLAG_INDEX(hdma));
 1017              		.loc 1 197 5 discriminator 61 view .LVU267
 1018 04de 02F58062 		add	r2, r2, #1024
 1019 04e2 9342     		cmp	r3, r2
 1020 04e4 2AD0     		beq	.L133
 197:Drivers/STM32F4xx_HAL_Driver/Src/stm32f4xx_hal_dma_ex.c ****     __HAL_DMA_CLEAR_FLAG (hdma, __HAL_DMA_GET_TE_FLAG_INDEX(hdma));
 1021              		.loc 1 197 5 discriminator 63 view .LVU268
 1022 04e6 A2F56872 		sub	r2, r2, #928
 1023 04ea 9342     		cmp	r3, r2
 1024 04ec 29D0     		beq	.L134
 197:Drivers/STM32F4xx_HAL_Driver/Src/stm32f4xx_hal_dma_ex.c ****     __HAL_DMA_CLEAR_FLAG (hdma, __HAL_DMA_GET_TE_FLAG_INDEX(hdma));
 1025              		.loc 1 197 5 discriminator 65 view .LVU269
 1026 04ee 02F58062 		add	r2, r2, #1024
 1027 04f2 9342     		cmp	r3, r2
 1028 04f4 28D0     		beq	.L135
 197:Drivers/STM32F4xx_HAL_Driver/Src/stm32f4xx_hal_dma_ex.c ****     __HAL_DMA_CLEAR_FLAG (hdma, __HAL_DMA_GET_TE_FLAG_INDEX(hdma));
 1029              		.loc 1 197 5 discriminator 67 view .LVU270
 1030 04f6 A2F58962 		sub	r2, r2, #1096
 1031 04fa 9342     		cmp	r3, r2
 1032 04fc 27D0     		beq	.L136
 197:Drivers/STM32F4xx_HAL_Driver/Src/stm32f4xx_hal_dma_ex.c ****     __HAL_DMA_CLEAR_FLAG (hdma, __HAL_DMA_GET_TE_FLAG_INDEX(hdma));
 1033              		.loc 1 197 5 discriminator 69 view .LVU271
 1034 04fe 02F58062 		add	r2, r2, #1024
 1035 0502 9342     		cmp	r3, r2
 1036 0504 26D0     		beq	.L137
 197:Drivers/STM32F4xx_HAL_Driver/Src/stm32f4xx_hal_dma_ex.c ****     __HAL_DMA_CLEAR_FLAG (hdma, __HAL_DMA_GET_TE_FLAG_INDEX(hdma));
 1037              		.loc 1 197 5 discriminator 71 view .LVU272
 1038 0506 A2F56872 		sub	r2, r2, #928
ARM GAS  C:\Users\hanaj\AppData\Local\Temp\ccO9sAWH.s 			page 29


 1039 050a 9342     		cmp	r3, r2
 1040 050c 25D0     		beq	.L138
 197:Drivers/STM32F4xx_HAL_Driver/Src/stm32f4xx_hal_dma_ex.c ****     __HAL_DMA_CLEAR_FLAG (hdma, __HAL_DMA_GET_TE_FLAG_INDEX(hdma));
 1041              		.loc 1 197 5 discriminator 73 view .LVU273
 1042 050e 02F58062 		add	r2, r2, #1024
 1043 0512 9342     		cmp	r3, r2
 1044 0514 02D0     		beq	.L318
 197:Drivers/STM32F4xx_HAL_Driver/Src/stm32f4xx_hal_dma_ex.c ****     __HAL_DMA_CLEAR_FLAG (hdma, __HAL_DMA_GET_TE_FLAG_INDEX(hdma));
 1045              		.loc 1 197 5 discriminator 76 view .LVU274
 1046 0516 4FF08063 		mov	r3, #67108864
 1047 051a 03E0     		b	.L37
 1048              	.L318:
 197:Drivers/STM32F4xx_HAL_Driver/Src/stm32f4xx_hal_dma_ex.c ****     __HAL_DMA_CLEAR_FLAG (hdma, __HAL_DMA_GET_TE_FLAG_INDEX(hdma));
 1049              		.loc 1 197 5 discriminator 75 view .LVU275
 1050 051c 4FF48013 		mov	r3, #1048576
 1051 0520 00E0     		b	.L37
 1052              	.L128:
 197:Drivers/STM32F4xx_HAL_Driver/Src/stm32f4xx_hal_dma_ex.c ****     __HAL_DMA_CLEAR_FLAG (hdma, __HAL_DMA_GET_TE_FLAG_INDEX(hdma));
 1053              		.loc 1 197 5 discriminator 54 view .LVU276
 1054 0522 1023     		movs	r3, #16
 1055              	.L37:
 197:Drivers/STM32F4xx_HAL_Driver/Src/stm32f4xx_hal_dma_ex.c ****     __HAL_DMA_CLEAR_FLAG (hdma, __HAL_DMA_GET_TE_FLAG_INDEX(hdma));
 1056              		.loc 1 197 5 discriminator 100 view .LVU277
 1057 0524 3A4A     		ldr	r2, .L335+8
 1058 0526 9360     		str	r3, [r2, #8]
 1059 0528 64E7     		b	.L35
 1060              	.L129:
 197:Drivers/STM32F4xx_HAL_Driver/Src/stm32f4xx_hal_dma_ex.c ****     __HAL_DMA_CLEAR_FLAG (hdma, __HAL_DMA_GET_TE_FLAG_INDEX(hdma));
 1061              		.loc 1 197 5 discriminator 56 view .LVU278
 1062 052a 1023     		movs	r3, #16
 1063 052c FAE7     		b	.L37
 1064              	.L130:
 197:Drivers/STM32F4xx_HAL_Driver/Src/stm32f4xx_hal_dma_ex.c ****     __HAL_DMA_CLEAR_FLAG (hdma, __HAL_DMA_GET_TE_FLAG_INDEX(hdma));
 1065              		.loc 1 197 5 discriminator 58 view .LVU279
 1066 052e 1023     		movs	r3, #16
 1067 0530 F8E7     		b	.L37
 1068              	.L131:
 197:Drivers/STM32F4xx_HAL_Driver/Src/stm32f4xx_hal_dma_ex.c ****     __HAL_DMA_CLEAR_FLAG (hdma, __HAL_DMA_GET_TE_FLAG_INDEX(hdma));
 1069              		.loc 1 197 5 discriminator 60 view .LVU280
 1070 0532 1023     		movs	r3, #16
 1071 0534 F6E7     		b	.L37
 1072              	.L132:
 197:Drivers/STM32F4xx_HAL_Driver/Src/stm32f4xx_hal_dma_ex.c ****     __HAL_DMA_CLEAR_FLAG (hdma, __HAL_DMA_GET_TE_FLAG_INDEX(hdma));
 1073              		.loc 1 197 5 discriminator 62 view .LVU281
 1074 0536 4FF48063 		mov	r3, #1024
 1075 053a F3E7     		b	.L37
 1076              	.L133:
 197:Drivers/STM32F4xx_HAL_Driver/Src/stm32f4xx_hal_dma_ex.c ****     __HAL_DMA_CLEAR_FLAG (hdma, __HAL_DMA_GET_TE_FLAG_INDEX(hdma));
 1077              		.loc 1 197 5 discriminator 64 view .LVU282
 1078 053c 4FF48063 		mov	r3, #1024
 1079 0540 F0E7     		b	.L37
 1080              	.L134:
 197:Drivers/STM32F4xx_HAL_Driver/Src/stm32f4xx_hal_dma_ex.c ****     __HAL_DMA_CLEAR_FLAG (hdma, __HAL_DMA_GET_TE_FLAG_INDEX(hdma));
 1081              		.loc 1 197 5 discriminator 66 view .LVU283
 1082 0542 4FF48063 		mov	r3, #1024
 1083 0546 EDE7     		b	.L37
 1084              	.L135:
ARM GAS  C:\Users\hanaj\AppData\Local\Temp\ccO9sAWH.s 			page 30


 197:Drivers/STM32F4xx_HAL_Driver/Src/stm32f4xx_hal_dma_ex.c ****     __HAL_DMA_CLEAR_FLAG (hdma, __HAL_DMA_GET_TE_FLAG_INDEX(hdma));
 1085              		.loc 1 197 5 discriminator 68 view .LVU284
 1086 0548 4FF48063 		mov	r3, #1024
 1087 054c EAE7     		b	.L37
 1088              	.L136:
 197:Drivers/STM32F4xx_HAL_Driver/Src/stm32f4xx_hal_dma_ex.c ****     __HAL_DMA_CLEAR_FLAG (hdma, __HAL_DMA_GET_TE_FLAG_INDEX(hdma));
 1089              		.loc 1 197 5 discriminator 70 view .LVU285
 1090 054e 4FF48013 		mov	r3, #1048576
 1091 0552 E7E7     		b	.L37
 1092              	.L137:
 197:Drivers/STM32F4xx_HAL_Driver/Src/stm32f4xx_hal_dma_ex.c ****     __HAL_DMA_CLEAR_FLAG (hdma, __HAL_DMA_GET_TE_FLAG_INDEX(hdma));
 1093              		.loc 1 197 5 discriminator 72 view .LVU286
 1094 0554 4FF48013 		mov	r3, #1048576
 1095 0558 E4E7     		b	.L37
 1096              	.L138:
 197:Drivers/STM32F4xx_HAL_Driver/Src/stm32f4xx_hal_dma_ex.c ****     __HAL_DMA_CLEAR_FLAG (hdma, __HAL_DMA_GET_TE_FLAG_INDEX(hdma));
 1097              		.loc 1 197 5 discriminator 74 view .LVU287
 1098 055a 4FF48013 		mov	r3, #1048576
 1099 055e E1E7     		b	.L37
 1100              	.L36:
 197:Drivers/STM32F4xx_HAL_Driver/Src/stm32f4xx_hal_dma_ex.c ****     __HAL_DMA_CLEAR_FLAG (hdma, __HAL_DMA_GET_TE_FLAG_INDEX(hdma));
 1101              		.loc 1 197 5 discriminator 52 view .LVU288
 1102 0560 2E4A     		ldr	r2, .L335+20
 1103 0562 9342     		cmp	r3, r2
 1104 0564 5FD9     		bls	.L38
 197:Drivers/STM32F4xx_HAL_Driver/Src/stm32f4xx_hal_dma_ex.c ****     __HAL_DMA_CLEAR_FLAG (hdma, __HAL_DMA_GET_TE_FLAG_INDEX(hdma));
 1105              		.loc 1 197 5 discriminator 102 view .LVU289
 1106 0566 483A     		subs	r2, r2, #72
 1107 0568 9342     		cmp	r3, r2
 1108 056a 31D0     		beq	.L140
 197:Drivers/STM32F4xx_HAL_Driver/Src/stm32f4xx_hal_dma_ex.c ****     __HAL_DMA_CLEAR_FLAG (hdma, __HAL_DMA_GET_TE_FLAG_INDEX(hdma));
 1109              		.loc 1 197 5 discriminator 104 view .LVU290
 1110 056c 02F58062 		add	r2, r2, #1024
 1111 0570 9342     		cmp	r3, r2
 1112 0572 31D0     		beq	.L141
 197:Drivers/STM32F4xx_HAL_Driver/Src/stm32f4xx_hal_dma_ex.c ****     __HAL_DMA_CLEAR_FLAG (hdma, __HAL_DMA_GET_TE_FLAG_INDEX(hdma));
 1113              		.loc 1 197 5 discriminator 106 view .LVU291
 1114 0574 A2F56872 		sub	r2, r2, #928
 1115 0578 9342     		cmp	r3, r2
 1116 057a 2FD0     		beq	.L142
 197:Drivers/STM32F4xx_HAL_Driver/Src/stm32f4xx_hal_dma_ex.c ****     __HAL_DMA_CLEAR_FLAG (hdma, __HAL_DMA_GET_TE_FLAG_INDEX(hdma));
 1117              		.loc 1 197 5 discriminator 108 view .LVU292
 1118 057c 02F58062 		add	r2, r2, #1024
 1119 0580 9342     		cmp	r3, r2
 1120 0582 2DD0     		beq	.L143
 197:Drivers/STM32F4xx_HAL_Driver/Src/stm32f4xx_hal_dma_ex.c ****     __HAL_DMA_CLEAR_FLAG (hdma, __HAL_DMA_GET_TE_FLAG_INDEX(hdma));
 1121              		.loc 1 197 5 discriminator 110 view .LVU293
 1122 0584 A2F58962 		sub	r2, r2, #1096
 1123 0588 9342     		cmp	r3, r2
 1124 058a 2BD0     		beq	.L144
 197:Drivers/STM32F4xx_HAL_Driver/Src/stm32f4xx_hal_dma_ex.c ****     __HAL_DMA_CLEAR_FLAG (hdma, __HAL_DMA_GET_TE_FLAG_INDEX(hdma));
 1125              		.loc 1 197 5 discriminator 112 view .LVU294
 1126 058c 02F58062 		add	r2, r2, #1024
 1127 0590 9342     		cmp	r3, r2
 1128 0592 2AD0     		beq	.L145
 197:Drivers/STM32F4xx_HAL_Driver/Src/stm32f4xx_hal_dma_ex.c ****     __HAL_DMA_CLEAR_FLAG (hdma, __HAL_DMA_GET_TE_FLAG_INDEX(hdma));
 1129              		.loc 1 197 5 discriminator 114 view .LVU295
ARM GAS  C:\Users\hanaj\AppData\Local\Temp\ccO9sAWH.s 			page 31


 1130 0594 A2F56872 		sub	r2, r2, #928
 1131 0598 9342     		cmp	r3, r2
 1132 059a 29D0     		beq	.L146
 197:Drivers/STM32F4xx_HAL_Driver/Src/stm32f4xx_hal_dma_ex.c ****     __HAL_DMA_CLEAR_FLAG (hdma, __HAL_DMA_GET_TE_FLAG_INDEX(hdma));
 1133              		.loc 1 197 5 discriminator 116 view .LVU296
 1134 059c 02F58062 		add	r2, r2, #1024
 1135 05a0 9342     		cmp	r3, r2
 1136 05a2 28D0     		beq	.L147
 197:Drivers/STM32F4xx_HAL_Driver/Src/stm32f4xx_hal_dma_ex.c ****     __HAL_DMA_CLEAR_FLAG (hdma, __HAL_DMA_GET_TE_FLAG_INDEX(hdma));
 1137              		.loc 1 197 5 discriminator 118 view .LVU297
 1138 05a4 A2F58962 		sub	r2, r2, #1096
 1139 05a8 9342     		cmp	r3, r2
 1140 05aa 27D0     		beq	.L148
 197:Drivers/STM32F4xx_HAL_Driver/Src/stm32f4xx_hal_dma_ex.c ****     __HAL_DMA_CLEAR_FLAG (hdma, __HAL_DMA_GET_TE_FLAG_INDEX(hdma));
 1141              		.loc 1 197 5 discriminator 120 view .LVU298
 1142 05ac 02F58062 		add	r2, r2, #1024
 1143 05b0 9342     		cmp	r3, r2
 1144 05b2 26D0     		beq	.L149
 197:Drivers/STM32F4xx_HAL_Driver/Src/stm32f4xx_hal_dma_ex.c ****     __HAL_DMA_CLEAR_FLAG (hdma, __HAL_DMA_GET_TE_FLAG_INDEX(hdma));
 1145              		.loc 1 197 5 discriminator 122 view .LVU299
 1146 05b4 A2F56872 		sub	r2, r2, #928
 1147 05b8 9342     		cmp	r3, r2
 1148 05ba 31D0     		beq	.L150
 197:Drivers/STM32F4xx_HAL_Driver/Src/stm32f4xx_hal_dma_ex.c ****     __HAL_DMA_CLEAR_FLAG (hdma, __HAL_DMA_GET_TE_FLAG_INDEX(hdma));
 1149              		.loc 1 197 5 discriminator 124 view .LVU300
 1150 05bc 02F58062 		add	r2, r2, #1024
 1151 05c0 9342     		cmp	r3, r2
 1152 05c2 02D0     		beq	.L319
 197:Drivers/STM32F4xx_HAL_Driver/Src/stm32f4xx_hal_dma_ex.c ****     __HAL_DMA_CLEAR_FLAG (hdma, __HAL_DMA_GET_TE_FLAG_INDEX(hdma));
 1153              		.loc 1 197 5 discriminator 127 view .LVU301
 1154 05c4 4FF08063 		mov	r3, #67108864
 1155 05c8 03E0     		b	.L39
 1156              	.L319:
 197:Drivers/STM32F4xx_HAL_Driver/Src/stm32f4xx_hal_dma_ex.c ****     __HAL_DMA_CLEAR_FLAG (hdma, __HAL_DMA_GET_TE_FLAG_INDEX(hdma));
 1157              		.loc 1 197 5 discriminator 126 view .LVU302
 1158 05ca 4FF48013 		mov	r3, #1048576
 1159 05ce 00E0     		b	.L39
 1160              	.L140:
 197:Drivers/STM32F4xx_HAL_Driver/Src/stm32f4xx_hal_dma_ex.c ****     __HAL_DMA_CLEAR_FLAG (hdma, __HAL_DMA_GET_TE_FLAG_INDEX(hdma));
 1161              		.loc 1 197 5 discriminator 105 view .LVU303
 1162 05d0 1023     		movs	r3, #16
 1163              	.L39:
 197:Drivers/STM32F4xx_HAL_Driver/Src/stm32f4xx_hal_dma_ex.c ****     __HAL_DMA_CLEAR_FLAG (hdma, __HAL_DMA_GET_TE_FLAG_INDEX(hdma));
 1164              		.loc 1 197 5 discriminator 151 view .LVU304
 1165 05d2 0E4A     		ldr	r2, .L335+4
 1166 05d4 D360     		str	r3, [r2, #12]
 1167 05d6 0DE7     		b	.L35
 1168              	.L141:
 197:Drivers/STM32F4xx_HAL_Driver/Src/stm32f4xx_hal_dma_ex.c ****     __HAL_DMA_CLEAR_FLAG (hdma, __HAL_DMA_GET_TE_FLAG_INDEX(hdma));
 1169              		.loc 1 197 5 discriminator 107 view .LVU305
 1170 05d8 1023     		movs	r3, #16
 1171 05da FAE7     		b	.L39
 1172              	.L142:
 197:Drivers/STM32F4xx_HAL_Driver/Src/stm32f4xx_hal_dma_ex.c ****     __HAL_DMA_CLEAR_FLAG (hdma, __HAL_DMA_GET_TE_FLAG_INDEX(hdma));
 1173              		.loc 1 197 5 discriminator 109 view .LVU306
 1174 05dc 1023     		movs	r3, #16
 1175 05de F8E7     		b	.L39
ARM GAS  C:\Users\hanaj\AppData\Local\Temp\ccO9sAWH.s 			page 32


 1176              	.L143:
 197:Drivers/STM32F4xx_HAL_Driver/Src/stm32f4xx_hal_dma_ex.c ****     __HAL_DMA_CLEAR_FLAG (hdma, __HAL_DMA_GET_TE_FLAG_INDEX(hdma));
 1177              		.loc 1 197 5 discriminator 111 view .LVU307
 1178 05e0 1023     		movs	r3, #16
 1179 05e2 F6E7     		b	.L39
 1180              	.L144:
 197:Drivers/STM32F4xx_HAL_Driver/Src/stm32f4xx_hal_dma_ex.c ****     __HAL_DMA_CLEAR_FLAG (hdma, __HAL_DMA_GET_TE_FLAG_INDEX(hdma));
 1181              		.loc 1 197 5 discriminator 113 view .LVU308
 1182 05e4 4FF48063 		mov	r3, #1024
 1183 05e8 F3E7     		b	.L39
 1184              	.L145:
 197:Drivers/STM32F4xx_HAL_Driver/Src/stm32f4xx_hal_dma_ex.c ****     __HAL_DMA_CLEAR_FLAG (hdma, __HAL_DMA_GET_TE_FLAG_INDEX(hdma));
 1185              		.loc 1 197 5 discriminator 115 view .LVU309
 1186 05ea 4FF48063 		mov	r3, #1024
 1187 05ee F0E7     		b	.L39
 1188              	.L146:
 197:Drivers/STM32F4xx_HAL_Driver/Src/stm32f4xx_hal_dma_ex.c ****     __HAL_DMA_CLEAR_FLAG (hdma, __HAL_DMA_GET_TE_FLAG_INDEX(hdma));
 1189              		.loc 1 197 5 discriminator 117 view .LVU310
 1190 05f0 4FF48063 		mov	r3, #1024
 1191 05f4 EDE7     		b	.L39
 1192              	.L147:
 197:Drivers/STM32F4xx_HAL_Driver/Src/stm32f4xx_hal_dma_ex.c ****     __HAL_DMA_CLEAR_FLAG (hdma, __HAL_DMA_GET_TE_FLAG_INDEX(hdma));
 1193              		.loc 1 197 5 discriminator 119 view .LVU311
 1194 05f6 4FF48063 		mov	r3, #1024
 1195 05fa EAE7     		b	.L39
 1196              	.L148:
 197:Drivers/STM32F4xx_HAL_Driver/Src/stm32f4xx_hal_dma_ex.c ****     __HAL_DMA_CLEAR_FLAG (hdma, __HAL_DMA_GET_TE_FLAG_INDEX(hdma));
 1197              		.loc 1 197 5 discriminator 121 view .LVU312
 1198 05fc 4FF48013 		mov	r3, #1048576
 1199 0600 E7E7     		b	.L39
 1200              	.L149:
 197:Drivers/STM32F4xx_HAL_Driver/Src/stm32f4xx_hal_dma_ex.c ****     __HAL_DMA_CLEAR_FLAG (hdma, __HAL_DMA_GET_TE_FLAG_INDEX(hdma));
 1201              		.loc 1 197 5 discriminator 123 view .LVU313
 1202 0602 4FF48013 		mov	r3, #1048576
 1203 0606 E4E7     		b	.L39
 1204              	.L336:
 1205              		.align	2
 1206              	.L335:
 1207 0608 10600240 		.word	1073897488
 1208 060c 00600240 		.word	1073897472
 1209 0610 00640240 		.word	1073898496
 1210 0614 58640240 		.word	1073898584
 1211 0618 B8600240 		.word	1073897656
 1212 061c 58600240 		.word	1073897560
 1213              	.L150:
 197:Drivers/STM32F4xx_HAL_Driver/Src/stm32f4xx_hal_dma_ex.c ****     __HAL_DMA_CLEAR_FLAG (hdma, __HAL_DMA_GET_TE_FLAG_INDEX(hdma));
 1214              		.loc 1 197 5 discriminator 125 view .LVU314
 1215 0620 4FF48013 		mov	r3, #1048576
 1216 0624 D5E7     		b	.L39
 1217              	.L38:
 197:Drivers/STM32F4xx_HAL_Driver/Src/stm32f4xx_hal_dma_ex.c ****     __HAL_DMA_CLEAR_FLAG (hdma, __HAL_DMA_GET_TE_FLAG_INDEX(hdma));
 1218              		.loc 1 197 5 discriminator 103 view .LVU315
 1219 0626 B24A     		ldr	r2, .L337
 1220 0628 9342     		cmp	r3, r2
 1221 062a 31D0     		beq	.L152
 197:Drivers/STM32F4xx_HAL_Driver/Src/stm32f4xx_hal_dma_ex.c ****     __HAL_DMA_CLEAR_FLAG (hdma, __HAL_DMA_GET_TE_FLAG_INDEX(hdma));
 1222              		.loc 1 197 5 discriminator 153 view .LVU316
ARM GAS  C:\Users\hanaj\AppData\Local\Temp\ccO9sAWH.s 			page 33


 1223 062c 02F58062 		add	r2, r2, #1024
 1224 0630 9342     		cmp	r3, r2
 1225 0632 31D0     		beq	.L153
 197:Drivers/STM32F4xx_HAL_Driver/Src/stm32f4xx_hal_dma_ex.c ****     __HAL_DMA_CLEAR_FLAG (hdma, __HAL_DMA_GET_TE_FLAG_INDEX(hdma));
 1226              		.loc 1 197 5 discriminator 155 view .LVU317
 1227 0634 A2F56872 		sub	r2, r2, #928
 1228 0638 9342     		cmp	r3, r2
 1229 063a 2FD0     		beq	.L154
 197:Drivers/STM32F4xx_HAL_Driver/Src/stm32f4xx_hal_dma_ex.c ****     __HAL_DMA_CLEAR_FLAG (hdma, __HAL_DMA_GET_TE_FLAG_INDEX(hdma));
 1230              		.loc 1 197 5 discriminator 157 view .LVU318
 1231 063c 02F58062 		add	r2, r2, #1024
 1232 0640 9342     		cmp	r3, r2
 1233 0642 2DD0     		beq	.L155
 197:Drivers/STM32F4xx_HAL_Driver/Src/stm32f4xx_hal_dma_ex.c ****     __HAL_DMA_CLEAR_FLAG (hdma, __HAL_DMA_GET_TE_FLAG_INDEX(hdma));
 1234              		.loc 1 197 5 discriminator 159 view .LVU319
 1235 0644 A2F58962 		sub	r2, r2, #1096
 1236 0648 9342     		cmp	r3, r2
 1237 064a 2BD0     		beq	.L156
 197:Drivers/STM32F4xx_HAL_Driver/Src/stm32f4xx_hal_dma_ex.c ****     __HAL_DMA_CLEAR_FLAG (hdma, __HAL_DMA_GET_TE_FLAG_INDEX(hdma));
 1238              		.loc 1 197 5 discriminator 161 view .LVU320
 1239 064c 02F58062 		add	r2, r2, #1024
 1240 0650 9342     		cmp	r3, r2
 1241 0652 2AD0     		beq	.L157
 197:Drivers/STM32F4xx_HAL_Driver/Src/stm32f4xx_hal_dma_ex.c ****     __HAL_DMA_CLEAR_FLAG (hdma, __HAL_DMA_GET_TE_FLAG_INDEX(hdma));
 1242              		.loc 1 197 5 discriminator 163 view .LVU321
 1243 0654 A2F56872 		sub	r2, r2, #928
 1244 0658 9342     		cmp	r3, r2
 1245 065a 29D0     		beq	.L158
 197:Drivers/STM32F4xx_HAL_Driver/Src/stm32f4xx_hal_dma_ex.c ****     __HAL_DMA_CLEAR_FLAG (hdma, __HAL_DMA_GET_TE_FLAG_INDEX(hdma));
 1246              		.loc 1 197 5 discriminator 165 view .LVU322
 1247 065c 02F58062 		add	r2, r2, #1024
 1248 0660 9342     		cmp	r3, r2
 1249 0662 28D0     		beq	.L159
 197:Drivers/STM32F4xx_HAL_Driver/Src/stm32f4xx_hal_dma_ex.c ****     __HAL_DMA_CLEAR_FLAG (hdma, __HAL_DMA_GET_TE_FLAG_INDEX(hdma));
 1250              		.loc 1 197 5 discriminator 167 view .LVU323
 1251 0664 A2F58962 		sub	r2, r2, #1096
 1252 0668 9342     		cmp	r3, r2
 1253 066a 27D0     		beq	.L160
 197:Drivers/STM32F4xx_HAL_Driver/Src/stm32f4xx_hal_dma_ex.c ****     __HAL_DMA_CLEAR_FLAG (hdma, __HAL_DMA_GET_TE_FLAG_INDEX(hdma));
 1254              		.loc 1 197 5 discriminator 169 view .LVU324
 1255 066c 02F58062 		add	r2, r2, #1024
 1256 0670 9342     		cmp	r3, r2
 1257 0672 26D0     		beq	.L161
 197:Drivers/STM32F4xx_HAL_Driver/Src/stm32f4xx_hal_dma_ex.c ****     __HAL_DMA_CLEAR_FLAG (hdma, __HAL_DMA_GET_TE_FLAG_INDEX(hdma));
 1258              		.loc 1 197 5 discriminator 171 view .LVU325
 1259 0674 A2F56872 		sub	r2, r2, #928
 1260 0678 9342     		cmp	r3, r2
 1261 067a 25D0     		beq	.L162
 197:Drivers/STM32F4xx_HAL_Driver/Src/stm32f4xx_hal_dma_ex.c ****     __HAL_DMA_CLEAR_FLAG (hdma, __HAL_DMA_GET_TE_FLAG_INDEX(hdma));
 1262              		.loc 1 197 5 discriminator 173 view .LVU326
 1263 067c 02F58062 		add	r2, r2, #1024
 1264 0680 9342     		cmp	r3, r2
 1265 0682 02D0     		beq	.L320
 197:Drivers/STM32F4xx_HAL_Driver/Src/stm32f4xx_hal_dma_ex.c ****     __HAL_DMA_CLEAR_FLAG (hdma, __HAL_DMA_GET_TE_FLAG_INDEX(hdma));
 1266              		.loc 1 197 5 discriminator 176 view .LVU327
 1267 0684 4FF08063 		mov	r3, #67108864
 1268 0688 03E0     		b	.L40
ARM GAS  C:\Users\hanaj\AppData\Local\Temp\ccO9sAWH.s 			page 34


 1269              	.L320:
 197:Drivers/STM32F4xx_HAL_Driver/Src/stm32f4xx_hal_dma_ex.c ****     __HAL_DMA_CLEAR_FLAG (hdma, __HAL_DMA_GET_TE_FLAG_INDEX(hdma));
 1270              		.loc 1 197 5 discriminator 175 view .LVU328
 1271 068a 4FF48013 		mov	r3, #1048576
 1272 068e 00E0     		b	.L40
 1273              	.L152:
 197:Drivers/STM32F4xx_HAL_Driver/Src/stm32f4xx_hal_dma_ex.c ****     __HAL_DMA_CLEAR_FLAG (hdma, __HAL_DMA_GET_TE_FLAG_INDEX(hdma));
 1274              		.loc 1 197 5 discriminator 154 view .LVU329
 1275 0690 1023     		movs	r3, #16
 1276              	.L40:
 197:Drivers/STM32F4xx_HAL_Driver/Src/stm32f4xx_hal_dma_ex.c ****     __HAL_DMA_CLEAR_FLAG (hdma, __HAL_DMA_GET_TE_FLAG_INDEX(hdma));
 1277              		.loc 1 197 5 discriminator 200 view .LVU330
 1278 0692 984A     		ldr	r2, .L337+4
 1279 0694 9360     		str	r3, [r2, #8]
 1280 0696 ADE6     		b	.L35
 1281              	.L153:
 197:Drivers/STM32F4xx_HAL_Driver/Src/stm32f4xx_hal_dma_ex.c ****     __HAL_DMA_CLEAR_FLAG (hdma, __HAL_DMA_GET_TE_FLAG_INDEX(hdma));
 1282              		.loc 1 197 5 discriminator 156 view .LVU331
 1283 0698 1023     		movs	r3, #16
 1284 069a FAE7     		b	.L40
 1285              	.L154:
 197:Drivers/STM32F4xx_HAL_Driver/Src/stm32f4xx_hal_dma_ex.c ****     __HAL_DMA_CLEAR_FLAG (hdma, __HAL_DMA_GET_TE_FLAG_INDEX(hdma));
 1286              		.loc 1 197 5 discriminator 158 view .LVU332
 1287 069c 1023     		movs	r3, #16
 1288 069e F8E7     		b	.L40
 1289              	.L155:
 197:Drivers/STM32F4xx_HAL_Driver/Src/stm32f4xx_hal_dma_ex.c ****     __HAL_DMA_CLEAR_FLAG (hdma, __HAL_DMA_GET_TE_FLAG_INDEX(hdma));
 1290              		.loc 1 197 5 discriminator 160 view .LVU333
 1291 06a0 1023     		movs	r3, #16
 1292 06a2 F6E7     		b	.L40
 1293              	.L156:
 197:Drivers/STM32F4xx_HAL_Driver/Src/stm32f4xx_hal_dma_ex.c ****     __HAL_DMA_CLEAR_FLAG (hdma, __HAL_DMA_GET_TE_FLAG_INDEX(hdma));
 1294              		.loc 1 197 5 discriminator 162 view .LVU334
 1295 06a4 4FF48063 		mov	r3, #1024
 1296 06a8 F3E7     		b	.L40
 1297              	.L157:
 197:Drivers/STM32F4xx_HAL_Driver/Src/stm32f4xx_hal_dma_ex.c ****     __HAL_DMA_CLEAR_FLAG (hdma, __HAL_DMA_GET_TE_FLAG_INDEX(hdma));
 1298              		.loc 1 197 5 discriminator 164 view .LVU335
 1299 06aa 4FF48063 		mov	r3, #1024
 1300 06ae F0E7     		b	.L40
 1301              	.L158:
 197:Drivers/STM32F4xx_HAL_Driver/Src/stm32f4xx_hal_dma_ex.c ****     __HAL_DMA_CLEAR_FLAG (hdma, __HAL_DMA_GET_TE_FLAG_INDEX(hdma));
 1302              		.loc 1 197 5 discriminator 166 view .LVU336
 1303 06b0 4FF48063 		mov	r3, #1024
 1304 06b4 EDE7     		b	.L40
 1305              	.L159:
 197:Drivers/STM32F4xx_HAL_Driver/Src/stm32f4xx_hal_dma_ex.c ****     __HAL_DMA_CLEAR_FLAG (hdma, __HAL_DMA_GET_TE_FLAG_INDEX(hdma));
 1306              		.loc 1 197 5 discriminator 168 view .LVU337
 1307 06b6 4FF48063 		mov	r3, #1024
 1308 06ba EAE7     		b	.L40
 1309              	.L160:
 197:Drivers/STM32F4xx_HAL_Driver/Src/stm32f4xx_hal_dma_ex.c ****     __HAL_DMA_CLEAR_FLAG (hdma, __HAL_DMA_GET_TE_FLAG_INDEX(hdma));
 1310              		.loc 1 197 5 discriminator 170 view .LVU338
 1311 06bc 4FF48013 		mov	r3, #1048576
 1312 06c0 E7E7     		b	.L40
 1313              	.L161:
 197:Drivers/STM32F4xx_HAL_Driver/Src/stm32f4xx_hal_dma_ex.c ****     __HAL_DMA_CLEAR_FLAG (hdma, __HAL_DMA_GET_TE_FLAG_INDEX(hdma));
ARM GAS  C:\Users\hanaj\AppData\Local\Temp\ccO9sAWH.s 			page 35


 1314              		.loc 1 197 5 discriminator 172 view .LVU339
 1315 06c2 4FF48013 		mov	r3, #1048576
 1316 06c6 E4E7     		b	.L40
 1317              	.L162:
 197:Drivers/STM32F4xx_HAL_Driver/Src/stm32f4xx_hal_dma_ex.c ****     __HAL_DMA_CLEAR_FLAG (hdma, __HAL_DMA_GET_TE_FLAG_INDEX(hdma));
 1318              		.loc 1 197 5 discriminator 174 view .LVU340
 1319 06c8 4FF48013 		mov	r3, #1048576
 1320 06cc E1E7     		b	.L40
 1321              	.L317:
 198:Drivers/STM32F4xx_HAL_Driver/Src/stm32f4xx_hal_dma_ex.c ****     __HAL_DMA_CLEAR_FLAG (hdma, __HAL_DMA_GET_DME_FLAG_INDEX(hdma));
 1322              		.loc 1 198 5 discriminator 25 view .LVU341
 1323 06ce 4FF40022 		mov	r2, #524288
 1324 06d2 00E0     		b	.L42
 1325              	.L164:
 198:Drivers/STM32F4xx_HAL_Driver/Src/stm32f4xx_hal_dma_ex.c ****     __HAL_DMA_CLEAR_FLAG (hdma, __HAL_DMA_GET_DME_FLAG_INDEX(hdma));
 1326              		.loc 1 198 5 discriminator 4 view .LVU342
 1327 06d4 0822     		movs	r2, #8
 1328              	.L42:
 198:Drivers/STM32F4xx_HAL_Driver/Src/stm32f4xx_hal_dma_ex.c ****     __HAL_DMA_CLEAR_FLAG (hdma, __HAL_DMA_GET_DME_FLAG_INDEX(hdma));
 1329              		.loc 1 198 5 discriminator 50 view .LVU343
 1330 06d6 884B     		ldr	r3, .L337+8
 1331 06d8 DA60     		str	r2, [r3, #12]
 1332              	.L43:
 199:Drivers/STM32F4xx_HAL_Driver/Src/stm32f4xx_hal_dma_ex.c ****     __HAL_DMA_CLEAR_FLAG (hdma, __HAL_DMA_GET_FE_FLAG_INDEX(hdma));
 1333              		.loc 1 199 5 is_stmt 1 view .LVU344
 1334 06da 2368     		ldr	r3, [r4]
 1335 06dc 874A     		ldr	r2, .L337+12
 1336 06de 9342     		cmp	r3, r2
 1337 06e0 40F2CE81 		bls	.L49
 199:Drivers/STM32F4xx_HAL_Driver/Src/stm32f4xx_hal_dma_ex.c ****     __HAL_DMA_CLEAR_FLAG (hdma, __HAL_DMA_GET_FE_FLAG_INDEX(hdma));
 1338              		.loc 1 199 5 is_stmt 0 discriminator 1 view .LVU345
 1339 06e4 A2F58962 		sub	r2, r2, #1096
 1340 06e8 9342     		cmp	r3, r2
 1341 06ea 00F06781 		beq	.L212
 199:Drivers/STM32F4xx_HAL_Driver/Src/stm32f4xx_hal_dma_ex.c ****     __HAL_DMA_CLEAR_FLAG (hdma, __HAL_DMA_GET_FE_FLAG_INDEX(hdma));
 1342              		.loc 1 199 5 discriminator 3 view .LVU346
 1343 06ee 02F58062 		add	r2, r2, #1024
 1344 06f2 9342     		cmp	r3, r2
 1345 06f4 00F0A981 		beq	.L213
 199:Drivers/STM32F4xx_HAL_Driver/Src/stm32f4xx_hal_dma_ex.c ****     __HAL_DMA_CLEAR_FLAG (hdma, __HAL_DMA_GET_FE_FLAG_INDEX(hdma));
 1346              		.loc 1 199 5 discriminator 5 view .LVU347
 1347 06f8 A2F56872 		sub	r2, r2, #928
 1348 06fc 9342     		cmp	r3, r2
 1349 06fe 00F0A681 		beq	.L214
 199:Drivers/STM32F4xx_HAL_Driver/Src/stm32f4xx_hal_dma_ex.c ****     __HAL_DMA_CLEAR_FLAG (hdma, __HAL_DMA_GET_FE_FLAG_INDEX(hdma));
 1350              		.loc 1 199 5 discriminator 7 view .LVU348
 1351 0702 02F58062 		add	r2, r2, #1024
 1352 0706 9342     		cmp	r3, r2
 1353 0708 00F0A381 		beq	.L215
 199:Drivers/STM32F4xx_HAL_Driver/Src/stm32f4xx_hal_dma_ex.c ****     __HAL_DMA_CLEAR_FLAG (hdma, __HAL_DMA_GET_FE_FLAG_INDEX(hdma));
 1354              		.loc 1 199 5 discriminator 9 view .LVU349
 1355 070c A2F58962 		sub	r2, r2, #1096
 1356 0710 9342     		cmp	r3, r2
 1357 0712 00F0A081 		beq	.L216
 199:Drivers/STM32F4xx_HAL_Driver/Src/stm32f4xx_hal_dma_ex.c ****     __HAL_DMA_CLEAR_FLAG (hdma, __HAL_DMA_GET_FE_FLAG_INDEX(hdma));
 1358              		.loc 1 199 5 discriminator 11 view .LVU350
 1359 0716 02F58062 		add	r2, r2, #1024
ARM GAS  C:\Users\hanaj\AppData\Local\Temp\ccO9sAWH.s 			page 36


 1360 071a 9342     		cmp	r3, r2
 1361 071c 00F09E81 		beq	.L217
 199:Drivers/STM32F4xx_HAL_Driver/Src/stm32f4xx_hal_dma_ex.c ****     __HAL_DMA_CLEAR_FLAG (hdma, __HAL_DMA_GET_FE_FLAG_INDEX(hdma));
 1362              		.loc 1 199 5 discriminator 13 view .LVU351
 1363 0720 A2F56872 		sub	r2, r2, #928
 1364 0724 9342     		cmp	r3, r2
 1365 0726 00F09C81 		beq	.L218
 199:Drivers/STM32F4xx_HAL_Driver/Src/stm32f4xx_hal_dma_ex.c ****     __HAL_DMA_CLEAR_FLAG (hdma, __HAL_DMA_GET_FE_FLAG_INDEX(hdma));
 1366              		.loc 1 199 5 discriminator 15 view .LVU352
 1367 072a 02F58062 		add	r2, r2, #1024
 1368 072e 9342     		cmp	r3, r2
 1369 0730 00F09A81 		beq	.L219
 199:Drivers/STM32F4xx_HAL_Driver/Src/stm32f4xx_hal_dma_ex.c ****     __HAL_DMA_CLEAR_FLAG (hdma, __HAL_DMA_GET_FE_FLAG_INDEX(hdma));
 1370              		.loc 1 199 5 discriminator 17 view .LVU353
 1371 0734 A2F58962 		sub	r2, r2, #1096
 1372 0738 9342     		cmp	r3, r2
 1373 073a 00F09881 		beq	.L220
 199:Drivers/STM32F4xx_HAL_Driver/Src/stm32f4xx_hal_dma_ex.c ****     __HAL_DMA_CLEAR_FLAG (hdma, __HAL_DMA_GET_FE_FLAG_INDEX(hdma));
 1374              		.loc 1 199 5 discriminator 19 view .LVU354
 1375 073e 02F58062 		add	r2, r2, #1024
 1376 0742 9342     		cmp	r3, r2
 1377 0744 00F09681 		beq	.L221
 199:Drivers/STM32F4xx_HAL_Driver/Src/stm32f4xx_hal_dma_ex.c ****     __HAL_DMA_CLEAR_FLAG (hdma, __HAL_DMA_GET_FE_FLAG_INDEX(hdma));
 1378              		.loc 1 199 5 discriminator 21 view .LVU355
 1379 0748 A2F56872 		sub	r2, r2, #928
 1380 074c 9342     		cmp	r3, r2
 1381 074e 00F09481 		beq	.L222
 199:Drivers/STM32F4xx_HAL_Driver/Src/stm32f4xx_hal_dma_ex.c ****     __HAL_DMA_CLEAR_FLAG (hdma, __HAL_DMA_GET_FE_FLAG_INDEX(hdma));
 1382              		.loc 1 199 5 discriminator 23 view .LVU356
 1383 0752 02F58062 		add	r2, r2, #1024
 1384 0756 9342     		cmp	r3, r2
 1385 0758 00F02D81 		beq	.L321
 199:Drivers/STM32F4xx_HAL_Driver/Src/stm32f4xx_hal_dma_ex.c ****     __HAL_DMA_CLEAR_FLAG (hdma, __HAL_DMA_GET_FE_FLAG_INDEX(hdma));
 1386              		.loc 1 199 5 discriminator 26 view .LVU357
 1387 075c 4FF08072 		mov	r2, #16777216
 1388 0760 2DE1     		b	.L50
 1389              	.L165:
 198:Drivers/STM32F4xx_HAL_Driver/Src/stm32f4xx_hal_dma_ex.c ****     __HAL_DMA_CLEAR_FLAG (hdma, __HAL_DMA_GET_DME_FLAG_INDEX(hdma));
 1390              		.loc 1 198 5 discriminator 6 view .LVU358
 1391 0762 0822     		movs	r2, #8
 1392 0764 B7E7     		b	.L42
 1393              	.L166:
 198:Drivers/STM32F4xx_HAL_Driver/Src/stm32f4xx_hal_dma_ex.c ****     __HAL_DMA_CLEAR_FLAG (hdma, __HAL_DMA_GET_DME_FLAG_INDEX(hdma));
 1394              		.loc 1 198 5 discriminator 8 view .LVU359
 1395 0766 0822     		movs	r2, #8
 1396 0768 B5E7     		b	.L42
 1397              	.L167:
 198:Drivers/STM32F4xx_HAL_Driver/Src/stm32f4xx_hal_dma_ex.c ****     __HAL_DMA_CLEAR_FLAG (hdma, __HAL_DMA_GET_DME_FLAG_INDEX(hdma));
 1398              		.loc 1 198 5 discriminator 10 view .LVU360
 1399 076a 0822     		movs	r2, #8
 1400 076c B3E7     		b	.L42
 1401              	.L168:
 198:Drivers/STM32F4xx_HAL_Driver/Src/stm32f4xx_hal_dma_ex.c ****     __HAL_DMA_CLEAR_FLAG (hdma, __HAL_DMA_GET_DME_FLAG_INDEX(hdma));
 1402              		.loc 1 198 5 discriminator 12 view .LVU361
 1403 076e 4FF40072 		mov	r2, #512
 1404 0772 B0E7     		b	.L42
 1405              	.L169:
ARM GAS  C:\Users\hanaj\AppData\Local\Temp\ccO9sAWH.s 			page 37


 198:Drivers/STM32F4xx_HAL_Driver/Src/stm32f4xx_hal_dma_ex.c ****     __HAL_DMA_CLEAR_FLAG (hdma, __HAL_DMA_GET_DME_FLAG_INDEX(hdma));
 1406              		.loc 1 198 5 discriminator 14 view .LVU362
 1407 0774 4FF40072 		mov	r2, #512
 1408 0778 ADE7     		b	.L42
 1409              	.L170:
 198:Drivers/STM32F4xx_HAL_Driver/Src/stm32f4xx_hal_dma_ex.c ****     __HAL_DMA_CLEAR_FLAG (hdma, __HAL_DMA_GET_DME_FLAG_INDEX(hdma));
 1410              		.loc 1 198 5 discriminator 16 view .LVU363
 1411 077a 4FF40072 		mov	r2, #512
 1412 077e AAE7     		b	.L42
 1413              	.L171:
 198:Drivers/STM32F4xx_HAL_Driver/Src/stm32f4xx_hal_dma_ex.c ****     __HAL_DMA_CLEAR_FLAG (hdma, __HAL_DMA_GET_DME_FLAG_INDEX(hdma));
 1414              		.loc 1 198 5 discriminator 18 view .LVU364
 1415 0780 4FF40072 		mov	r2, #512
 1416 0784 A7E7     		b	.L42
 1417              	.L172:
 198:Drivers/STM32F4xx_HAL_Driver/Src/stm32f4xx_hal_dma_ex.c ****     __HAL_DMA_CLEAR_FLAG (hdma, __HAL_DMA_GET_DME_FLAG_INDEX(hdma));
 1418              		.loc 1 198 5 discriminator 20 view .LVU365
 1419 0786 4FF40022 		mov	r2, #524288
 1420 078a A4E7     		b	.L42
 1421              	.L173:
 198:Drivers/STM32F4xx_HAL_Driver/Src/stm32f4xx_hal_dma_ex.c ****     __HAL_DMA_CLEAR_FLAG (hdma, __HAL_DMA_GET_DME_FLAG_INDEX(hdma));
 1422              		.loc 1 198 5 discriminator 22 view .LVU366
 1423 078c 4FF40022 		mov	r2, #524288
 1424 0790 A1E7     		b	.L42
 1425              	.L174:
 198:Drivers/STM32F4xx_HAL_Driver/Src/stm32f4xx_hal_dma_ex.c ****     __HAL_DMA_CLEAR_FLAG (hdma, __HAL_DMA_GET_DME_FLAG_INDEX(hdma));
 1426              		.loc 1 198 5 discriminator 24 view .LVU367
 1427 0792 4FF40022 		mov	r2, #524288
 1428 0796 9EE7     		b	.L42
 1429              	.L41:
 198:Drivers/STM32F4xx_HAL_Driver/Src/stm32f4xx_hal_dma_ex.c ****     __HAL_DMA_CLEAR_FLAG (hdma, __HAL_DMA_GET_DME_FLAG_INDEX(hdma));
 1430              		.loc 1 198 5 discriminator 2 view .LVU368
 1431 0798 594A     		ldr	r2, .L337+16
 1432 079a 9342     		cmp	r3, r2
 1433 079c 53D9     		bls	.L44
 198:Drivers/STM32F4xx_HAL_Driver/Src/stm32f4xx_hal_dma_ex.c ****     __HAL_DMA_CLEAR_FLAG (hdma, __HAL_DMA_GET_DME_FLAG_INDEX(hdma));
 1434              		.loc 1 198 5 discriminator 51 view .LVU369
 1435 079e A83A     		subs	r2, r2, #168
 1436 07a0 9342     		cmp	r3, r2
 1437 07a2 31D0     		beq	.L176
 198:Drivers/STM32F4xx_HAL_Driver/Src/stm32f4xx_hal_dma_ex.c ****     __HAL_DMA_CLEAR_FLAG (hdma, __HAL_DMA_GET_DME_FLAG_INDEX(hdma));
 1438              		.loc 1 198 5 discriminator 53 view .LVU370
 1439 07a4 02F58062 		add	r2, r2, #1024
 1440 07a8 9342     		cmp	r3, r2
 1441 07aa 31D0     		beq	.L177
 198:Drivers/STM32F4xx_HAL_Driver/Src/stm32f4xx_hal_dma_ex.c ****     __HAL_DMA_CLEAR_FLAG (hdma, __HAL_DMA_GET_DME_FLAG_INDEX(hdma));
 1442              		.loc 1 198 5 discriminator 55 view .LVU371
 1443 07ac A2F56872 		sub	r2, r2, #928
 1444 07b0 9342     		cmp	r3, r2
 1445 07b2 2FD0     		beq	.L178
 198:Drivers/STM32F4xx_HAL_Driver/Src/stm32f4xx_hal_dma_ex.c ****     __HAL_DMA_CLEAR_FLAG (hdma, __HAL_DMA_GET_DME_FLAG_INDEX(hdma));
 1446              		.loc 1 198 5 discriminator 57 view .LVU372
 1447 07b4 02F58062 		add	r2, r2, #1024
 1448 07b8 9342     		cmp	r3, r2
 1449 07ba 2DD0     		beq	.L179
 198:Drivers/STM32F4xx_HAL_Driver/Src/stm32f4xx_hal_dma_ex.c ****     __HAL_DMA_CLEAR_FLAG (hdma, __HAL_DMA_GET_DME_FLAG_INDEX(hdma));
 1450              		.loc 1 198 5 discriminator 59 view .LVU373
ARM GAS  C:\Users\hanaj\AppData\Local\Temp\ccO9sAWH.s 			page 38


 1451 07bc A2F58962 		sub	r2, r2, #1096
 1452 07c0 9342     		cmp	r3, r2
 1453 07c2 2BD0     		beq	.L180
 198:Drivers/STM32F4xx_HAL_Driver/Src/stm32f4xx_hal_dma_ex.c ****     __HAL_DMA_CLEAR_FLAG (hdma, __HAL_DMA_GET_DME_FLAG_INDEX(hdma));
 1454              		.loc 1 198 5 discriminator 61 view .LVU374
 1455 07c4 02F58062 		add	r2, r2, #1024
 1456 07c8 9342     		cmp	r3, r2
 1457 07ca 2AD0     		beq	.L181
 198:Drivers/STM32F4xx_HAL_Driver/Src/stm32f4xx_hal_dma_ex.c ****     __HAL_DMA_CLEAR_FLAG (hdma, __HAL_DMA_GET_DME_FLAG_INDEX(hdma));
 1458              		.loc 1 198 5 discriminator 63 view .LVU375
 1459 07cc A2F56872 		sub	r2, r2, #928
 1460 07d0 9342     		cmp	r3, r2
 1461 07d2 29D0     		beq	.L182
 198:Drivers/STM32F4xx_HAL_Driver/Src/stm32f4xx_hal_dma_ex.c ****     __HAL_DMA_CLEAR_FLAG (hdma, __HAL_DMA_GET_DME_FLAG_INDEX(hdma));
 1462              		.loc 1 198 5 discriminator 65 view .LVU376
 1463 07d4 02F58062 		add	r2, r2, #1024
 1464 07d8 9342     		cmp	r3, r2
 1465 07da 28D0     		beq	.L183
 198:Drivers/STM32F4xx_HAL_Driver/Src/stm32f4xx_hal_dma_ex.c ****     __HAL_DMA_CLEAR_FLAG (hdma, __HAL_DMA_GET_DME_FLAG_INDEX(hdma));
 1466              		.loc 1 198 5 discriminator 67 view .LVU377
 1467 07dc A2F58962 		sub	r2, r2, #1096
 1468 07e0 9342     		cmp	r3, r2
 1469 07e2 27D0     		beq	.L184
 198:Drivers/STM32F4xx_HAL_Driver/Src/stm32f4xx_hal_dma_ex.c ****     __HAL_DMA_CLEAR_FLAG (hdma, __HAL_DMA_GET_DME_FLAG_INDEX(hdma));
 1470              		.loc 1 198 5 discriminator 69 view .LVU378
 1471 07e4 02F58062 		add	r2, r2, #1024
 1472 07e8 9342     		cmp	r3, r2
 1473 07ea 26D0     		beq	.L185
 198:Drivers/STM32F4xx_HAL_Driver/Src/stm32f4xx_hal_dma_ex.c ****     __HAL_DMA_CLEAR_FLAG (hdma, __HAL_DMA_GET_DME_FLAG_INDEX(hdma));
 1474              		.loc 1 198 5 discriminator 71 view .LVU379
 1475 07ec A2F56872 		sub	r2, r2, #928
 1476 07f0 9342     		cmp	r3, r2
 1477 07f2 25D0     		beq	.L186
 198:Drivers/STM32F4xx_HAL_Driver/Src/stm32f4xx_hal_dma_ex.c ****     __HAL_DMA_CLEAR_FLAG (hdma, __HAL_DMA_GET_DME_FLAG_INDEX(hdma));
 1478              		.loc 1 198 5 discriminator 73 view .LVU380
 1479 07f4 02F58062 		add	r2, r2, #1024
 1480 07f8 9342     		cmp	r3, r2
 1481 07fa 02D0     		beq	.L322
 198:Drivers/STM32F4xx_HAL_Driver/Src/stm32f4xx_hal_dma_ex.c ****     __HAL_DMA_CLEAR_FLAG (hdma, __HAL_DMA_GET_DME_FLAG_INDEX(hdma));
 1482              		.loc 1 198 5 discriminator 76 view .LVU381
 1483 07fc 4FF00073 		mov	r3, #33554432
 1484 0800 03E0     		b	.L45
 1485              	.L322:
 198:Drivers/STM32F4xx_HAL_Driver/Src/stm32f4xx_hal_dma_ex.c ****     __HAL_DMA_CLEAR_FLAG (hdma, __HAL_DMA_GET_DME_FLAG_INDEX(hdma));
 1486              		.loc 1 198 5 discriminator 75 view .LVU382
 1487 0802 4FF40023 		mov	r3, #524288
 1488 0806 00E0     		b	.L45
 1489              	.L176:
 198:Drivers/STM32F4xx_HAL_Driver/Src/stm32f4xx_hal_dma_ex.c ****     __HAL_DMA_CLEAR_FLAG (hdma, __HAL_DMA_GET_DME_FLAG_INDEX(hdma));
 1490              		.loc 1 198 5 discriminator 54 view .LVU383
 1491 0808 0823     		movs	r3, #8
 1492              	.L45:
 198:Drivers/STM32F4xx_HAL_Driver/Src/stm32f4xx_hal_dma_ex.c ****     __HAL_DMA_CLEAR_FLAG (hdma, __HAL_DMA_GET_DME_FLAG_INDEX(hdma));
 1493              		.loc 1 198 5 discriminator 100 view .LVU384
 1494 080a 3B4A     		ldr	r2, .L337+8
 1495 080c 9360     		str	r3, [r2, #8]
 1496 080e 64E7     		b	.L43
ARM GAS  C:\Users\hanaj\AppData\Local\Temp\ccO9sAWH.s 			page 39


 1497              	.L177:
 198:Drivers/STM32F4xx_HAL_Driver/Src/stm32f4xx_hal_dma_ex.c ****     __HAL_DMA_CLEAR_FLAG (hdma, __HAL_DMA_GET_DME_FLAG_INDEX(hdma));
 1498              		.loc 1 198 5 discriminator 56 view .LVU385
 1499 0810 0823     		movs	r3, #8
 1500 0812 FAE7     		b	.L45
 1501              	.L178:
 198:Drivers/STM32F4xx_HAL_Driver/Src/stm32f4xx_hal_dma_ex.c ****     __HAL_DMA_CLEAR_FLAG (hdma, __HAL_DMA_GET_DME_FLAG_INDEX(hdma));
 1502              		.loc 1 198 5 discriminator 58 view .LVU386
 1503 0814 0823     		movs	r3, #8
 1504 0816 F8E7     		b	.L45
 1505              	.L179:
 198:Drivers/STM32F4xx_HAL_Driver/Src/stm32f4xx_hal_dma_ex.c ****     __HAL_DMA_CLEAR_FLAG (hdma, __HAL_DMA_GET_DME_FLAG_INDEX(hdma));
 1506              		.loc 1 198 5 discriminator 60 view .LVU387
 1507 0818 0823     		movs	r3, #8
 1508 081a F6E7     		b	.L45
 1509              	.L180:
 198:Drivers/STM32F4xx_HAL_Driver/Src/stm32f4xx_hal_dma_ex.c ****     __HAL_DMA_CLEAR_FLAG (hdma, __HAL_DMA_GET_DME_FLAG_INDEX(hdma));
 1510              		.loc 1 198 5 discriminator 62 view .LVU388
 1511 081c 4FF40073 		mov	r3, #512
 1512 0820 F3E7     		b	.L45
 1513              	.L181:
 198:Drivers/STM32F4xx_HAL_Driver/Src/stm32f4xx_hal_dma_ex.c ****     __HAL_DMA_CLEAR_FLAG (hdma, __HAL_DMA_GET_DME_FLAG_INDEX(hdma));
 1514              		.loc 1 198 5 discriminator 64 view .LVU389
 1515 0822 4FF40073 		mov	r3, #512
 1516 0826 F0E7     		b	.L45
 1517              	.L182:
 198:Drivers/STM32F4xx_HAL_Driver/Src/stm32f4xx_hal_dma_ex.c ****     __HAL_DMA_CLEAR_FLAG (hdma, __HAL_DMA_GET_DME_FLAG_INDEX(hdma));
 1518              		.loc 1 198 5 discriminator 66 view .LVU390
 1519 0828 4FF40073 		mov	r3, #512
 1520 082c EDE7     		b	.L45
 1521              	.L183:
 198:Drivers/STM32F4xx_HAL_Driver/Src/stm32f4xx_hal_dma_ex.c ****     __HAL_DMA_CLEAR_FLAG (hdma, __HAL_DMA_GET_DME_FLAG_INDEX(hdma));
 1522              		.loc 1 198 5 discriminator 68 view .LVU391
 1523 082e 4FF40073 		mov	r3, #512
 1524 0832 EAE7     		b	.L45
 1525              	.L184:
 198:Drivers/STM32F4xx_HAL_Driver/Src/stm32f4xx_hal_dma_ex.c ****     __HAL_DMA_CLEAR_FLAG (hdma, __HAL_DMA_GET_DME_FLAG_INDEX(hdma));
 1526              		.loc 1 198 5 discriminator 70 view .LVU392
 1527 0834 4FF40023 		mov	r3, #524288
 1528 0838 E7E7     		b	.L45
 1529              	.L185:
 198:Drivers/STM32F4xx_HAL_Driver/Src/stm32f4xx_hal_dma_ex.c ****     __HAL_DMA_CLEAR_FLAG (hdma, __HAL_DMA_GET_DME_FLAG_INDEX(hdma));
 1530              		.loc 1 198 5 discriminator 72 view .LVU393
 1531 083a 4FF40023 		mov	r3, #524288
 1532 083e E4E7     		b	.L45
 1533              	.L186:
 198:Drivers/STM32F4xx_HAL_Driver/Src/stm32f4xx_hal_dma_ex.c ****     __HAL_DMA_CLEAR_FLAG (hdma, __HAL_DMA_GET_DME_FLAG_INDEX(hdma));
 1534              		.loc 1 198 5 discriminator 74 view .LVU394
 1535 0840 4FF40023 		mov	r3, #524288
 1536 0844 E1E7     		b	.L45
 1537              	.L44:
 198:Drivers/STM32F4xx_HAL_Driver/Src/stm32f4xx_hal_dma_ex.c ****     __HAL_DMA_CLEAR_FLAG (hdma, __HAL_DMA_GET_DME_FLAG_INDEX(hdma));
 1538              		.loc 1 198 5 discriminator 52 view .LVU395
 1539 0846 2F4A     		ldr	r2, .L337+20
 1540 0848 9342     		cmp	r3, r2
 1541 084a 60D9     		bls	.L46
 198:Drivers/STM32F4xx_HAL_Driver/Src/stm32f4xx_hal_dma_ex.c ****     __HAL_DMA_CLEAR_FLAG (hdma, __HAL_DMA_GET_DME_FLAG_INDEX(hdma));
ARM GAS  C:\Users\hanaj\AppData\Local\Temp\ccO9sAWH.s 			page 40


 1542              		.loc 1 198 5 discriminator 102 view .LVU396
 1543 084c 483A     		subs	r2, r2, #72
 1544 084e 9342     		cmp	r3, r2
 1545 0850 31D0     		beq	.L188
 198:Drivers/STM32F4xx_HAL_Driver/Src/stm32f4xx_hal_dma_ex.c ****     __HAL_DMA_CLEAR_FLAG (hdma, __HAL_DMA_GET_DME_FLAG_INDEX(hdma));
 1546              		.loc 1 198 5 discriminator 104 view .LVU397
 1547 0852 02F58062 		add	r2, r2, #1024
 1548 0856 9342     		cmp	r3, r2
 1549 0858 31D0     		beq	.L189
 198:Drivers/STM32F4xx_HAL_Driver/Src/stm32f4xx_hal_dma_ex.c ****     __HAL_DMA_CLEAR_FLAG (hdma, __HAL_DMA_GET_DME_FLAG_INDEX(hdma));
 1550              		.loc 1 198 5 discriminator 106 view .LVU398
 1551 085a A2F56872 		sub	r2, r2, #928
 1552 085e 9342     		cmp	r3, r2
 1553 0860 2FD0     		beq	.L190
 198:Drivers/STM32F4xx_HAL_Driver/Src/stm32f4xx_hal_dma_ex.c ****     __HAL_DMA_CLEAR_FLAG (hdma, __HAL_DMA_GET_DME_FLAG_INDEX(hdma));
 1554              		.loc 1 198 5 discriminator 108 view .LVU399
 1555 0862 02F58062 		add	r2, r2, #1024
 1556 0866 9342     		cmp	r3, r2
 1557 0868 2DD0     		beq	.L191
 198:Drivers/STM32F4xx_HAL_Driver/Src/stm32f4xx_hal_dma_ex.c ****     __HAL_DMA_CLEAR_FLAG (hdma, __HAL_DMA_GET_DME_FLAG_INDEX(hdma));
 1558              		.loc 1 198 5 discriminator 110 view .LVU400
 1559 086a A2F58962 		sub	r2, r2, #1096
 1560 086e 9342     		cmp	r3, r2
 1561 0870 2BD0     		beq	.L192
 198:Drivers/STM32F4xx_HAL_Driver/Src/stm32f4xx_hal_dma_ex.c ****     __HAL_DMA_CLEAR_FLAG (hdma, __HAL_DMA_GET_DME_FLAG_INDEX(hdma));
 1562              		.loc 1 198 5 discriminator 112 view .LVU401
 1563 0872 02F58062 		add	r2, r2, #1024
 1564 0876 9342     		cmp	r3, r2
 1565 0878 2AD0     		beq	.L193
 198:Drivers/STM32F4xx_HAL_Driver/Src/stm32f4xx_hal_dma_ex.c ****     __HAL_DMA_CLEAR_FLAG (hdma, __HAL_DMA_GET_DME_FLAG_INDEX(hdma));
 1566              		.loc 1 198 5 discriminator 114 view .LVU402
 1567 087a A2F56872 		sub	r2, r2, #928
 1568 087e 9342     		cmp	r3, r2
 1569 0880 29D0     		beq	.L194
 198:Drivers/STM32F4xx_HAL_Driver/Src/stm32f4xx_hal_dma_ex.c ****     __HAL_DMA_CLEAR_FLAG (hdma, __HAL_DMA_GET_DME_FLAG_INDEX(hdma));
 1570              		.loc 1 198 5 discriminator 116 view .LVU403
 1571 0882 02F58062 		add	r2, r2, #1024
 1572 0886 9342     		cmp	r3, r2
 1573 0888 28D0     		beq	.L195
 198:Drivers/STM32F4xx_HAL_Driver/Src/stm32f4xx_hal_dma_ex.c ****     __HAL_DMA_CLEAR_FLAG (hdma, __HAL_DMA_GET_DME_FLAG_INDEX(hdma));
 1574              		.loc 1 198 5 discriminator 118 view .LVU404
 1575 088a A2F58962 		sub	r2, r2, #1096
 1576 088e 9342     		cmp	r3, r2
 1577 0890 27D0     		beq	.L196
 198:Drivers/STM32F4xx_HAL_Driver/Src/stm32f4xx_hal_dma_ex.c ****     __HAL_DMA_CLEAR_FLAG (hdma, __HAL_DMA_GET_DME_FLAG_INDEX(hdma));
 1578              		.loc 1 198 5 discriminator 120 view .LVU405
 1579 0892 02F58062 		add	r2, r2, #1024
 1580 0896 9342     		cmp	r3, r2
 1581 0898 26D0     		beq	.L197
 198:Drivers/STM32F4xx_HAL_Driver/Src/stm32f4xx_hal_dma_ex.c ****     __HAL_DMA_CLEAR_FLAG (hdma, __HAL_DMA_GET_DME_FLAG_INDEX(hdma));
 1582              		.loc 1 198 5 discriminator 122 view .LVU406
 1583 089a A2F56872 		sub	r2, r2, #928
 1584 089e 9342     		cmp	r3, r2
 1585 08a0 32D0     		beq	.L198
 198:Drivers/STM32F4xx_HAL_Driver/Src/stm32f4xx_hal_dma_ex.c ****     __HAL_DMA_CLEAR_FLAG (hdma, __HAL_DMA_GET_DME_FLAG_INDEX(hdma));
 1586              		.loc 1 198 5 discriminator 124 view .LVU407
 1587 08a2 02F58062 		add	r2, r2, #1024
ARM GAS  C:\Users\hanaj\AppData\Local\Temp\ccO9sAWH.s 			page 41


 1588 08a6 9342     		cmp	r3, r2
 1589 08a8 02D0     		beq	.L323
 198:Drivers/STM32F4xx_HAL_Driver/Src/stm32f4xx_hal_dma_ex.c ****     __HAL_DMA_CLEAR_FLAG (hdma, __HAL_DMA_GET_DME_FLAG_INDEX(hdma));
 1590              		.loc 1 198 5 discriminator 127 view .LVU408
 1591 08aa 4FF00073 		mov	r3, #33554432
 1592 08ae 03E0     		b	.L47
 1593              	.L323:
 198:Drivers/STM32F4xx_HAL_Driver/Src/stm32f4xx_hal_dma_ex.c ****     __HAL_DMA_CLEAR_FLAG (hdma, __HAL_DMA_GET_DME_FLAG_INDEX(hdma));
 1594              		.loc 1 198 5 discriminator 126 view .LVU409
 1595 08b0 4FF40023 		mov	r3, #524288
 1596 08b4 00E0     		b	.L47
 1597              	.L188:
 198:Drivers/STM32F4xx_HAL_Driver/Src/stm32f4xx_hal_dma_ex.c ****     __HAL_DMA_CLEAR_FLAG (hdma, __HAL_DMA_GET_DME_FLAG_INDEX(hdma));
 1598              		.loc 1 198 5 discriminator 105 view .LVU410
 1599 08b6 0823     		movs	r3, #8
 1600              	.L47:
 198:Drivers/STM32F4xx_HAL_Driver/Src/stm32f4xx_hal_dma_ex.c ****     __HAL_DMA_CLEAR_FLAG (hdma, __HAL_DMA_GET_DME_FLAG_INDEX(hdma));
 1601              		.loc 1 198 5 discriminator 151 view .LVU411
 1602 08b8 0E4A     		ldr	r2, .L337+4
 1603 08ba D360     		str	r3, [r2, #12]
 1604 08bc 0DE7     		b	.L43
 1605              	.L189:
 198:Drivers/STM32F4xx_HAL_Driver/Src/stm32f4xx_hal_dma_ex.c ****     __HAL_DMA_CLEAR_FLAG (hdma, __HAL_DMA_GET_DME_FLAG_INDEX(hdma));
 1606              		.loc 1 198 5 discriminator 107 view .LVU412
 1607 08be 0823     		movs	r3, #8
 1608 08c0 FAE7     		b	.L47
 1609              	.L190:
 198:Drivers/STM32F4xx_HAL_Driver/Src/stm32f4xx_hal_dma_ex.c ****     __HAL_DMA_CLEAR_FLAG (hdma, __HAL_DMA_GET_DME_FLAG_INDEX(hdma));
 1610              		.loc 1 198 5 discriminator 109 view .LVU413
 1611 08c2 0823     		movs	r3, #8
 1612 08c4 F8E7     		b	.L47
 1613              	.L191:
 198:Drivers/STM32F4xx_HAL_Driver/Src/stm32f4xx_hal_dma_ex.c ****     __HAL_DMA_CLEAR_FLAG (hdma, __HAL_DMA_GET_DME_FLAG_INDEX(hdma));
 1614              		.loc 1 198 5 discriminator 111 view .LVU414
 1615 08c6 0823     		movs	r3, #8
 1616 08c8 F6E7     		b	.L47
 1617              	.L192:
 198:Drivers/STM32F4xx_HAL_Driver/Src/stm32f4xx_hal_dma_ex.c ****     __HAL_DMA_CLEAR_FLAG (hdma, __HAL_DMA_GET_DME_FLAG_INDEX(hdma));
 1618              		.loc 1 198 5 discriminator 113 view .LVU415
 1619 08ca 4FF40073 		mov	r3, #512
 1620 08ce F3E7     		b	.L47
 1621              	.L193:
 198:Drivers/STM32F4xx_HAL_Driver/Src/stm32f4xx_hal_dma_ex.c ****     __HAL_DMA_CLEAR_FLAG (hdma, __HAL_DMA_GET_DME_FLAG_INDEX(hdma));
 1622              		.loc 1 198 5 discriminator 115 view .LVU416
 1623 08d0 4FF40073 		mov	r3, #512
 1624 08d4 F0E7     		b	.L47
 1625              	.L194:
 198:Drivers/STM32F4xx_HAL_Driver/Src/stm32f4xx_hal_dma_ex.c ****     __HAL_DMA_CLEAR_FLAG (hdma, __HAL_DMA_GET_DME_FLAG_INDEX(hdma));
 1626              		.loc 1 198 5 discriminator 117 view .LVU417
 1627 08d6 4FF40073 		mov	r3, #512
 1628 08da EDE7     		b	.L47
 1629              	.L195:
 198:Drivers/STM32F4xx_HAL_Driver/Src/stm32f4xx_hal_dma_ex.c ****     __HAL_DMA_CLEAR_FLAG (hdma, __HAL_DMA_GET_DME_FLAG_INDEX(hdma));
 1630              		.loc 1 198 5 discriminator 119 view .LVU418
 1631 08dc 4FF40073 		mov	r3, #512
 1632 08e0 EAE7     		b	.L47
 1633              	.L196:
ARM GAS  C:\Users\hanaj\AppData\Local\Temp\ccO9sAWH.s 			page 42


 198:Drivers/STM32F4xx_HAL_Driver/Src/stm32f4xx_hal_dma_ex.c ****     __HAL_DMA_CLEAR_FLAG (hdma, __HAL_DMA_GET_DME_FLAG_INDEX(hdma));
 1634              		.loc 1 198 5 discriminator 121 view .LVU419
 1635 08e2 4FF40023 		mov	r3, #524288
 1636 08e6 E7E7     		b	.L47
 1637              	.L197:
 198:Drivers/STM32F4xx_HAL_Driver/Src/stm32f4xx_hal_dma_ex.c ****     __HAL_DMA_CLEAR_FLAG (hdma, __HAL_DMA_GET_DME_FLAG_INDEX(hdma));
 1638              		.loc 1 198 5 discriminator 123 view .LVU420
 1639 08e8 4FF40023 		mov	r3, #524288
 1640 08ec E4E7     		b	.L47
 1641              	.L338:
 1642 08ee 00BF     		.align	2
 1643              	.L337:
 1644 08f0 10600240 		.word	1073897488
 1645 08f4 00600240 		.word	1073897472
 1646 08f8 00640240 		.word	1073898496
 1647 08fc 58640240 		.word	1073898584
 1648 0900 B8600240 		.word	1073897656
 1649 0904 58600240 		.word	1073897560
 1650              	.L198:
 198:Drivers/STM32F4xx_HAL_Driver/Src/stm32f4xx_hal_dma_ex.c ****     __HAL_DMA_CLEAR_FLAG (hdma, __HAL_DMA_GET_DME_FLAG_INDEX(hdma));
 1651              		.loc 1 198 5 discriminator 125 view .LVU421
 1652 0908 4FF40023 		mov	r3, #524288
 1653 090c D4E7     		b	.L47
 1654              	.L46:
 198:Drivers/STM32F4xx_HAL_Driver/Src/stm32f4xx_hal_dma_ex.c ****     __HAL_DMA_CLEAR_FLAG (hdma, __HAL_DMA_GET_DME_FLAG_INDEX(hdma));
 1655              		.loc 1 198 5 discriminator 103 view .LVU422
 1656 090e B24A     		ldr	r2, .L339
 1657 0910 9342     		cmp	r3, r2
 1658 0912 31D0     		beq	.L200
 198:Drivers/STM32F4xx_HAL_Driver/Src/stm32f4xx_hal_dma_ex.c ****     __HAL_DMA_CLEAR_FLAG (hdma, __HAL_DMA_GET_DME_FLAG_INDEX(hdma));
 1659              		.loc 1 198 5 discriminator 153 view .LVU423
 1660 0914 02F58062 		add	r2, r2, #1024
 1661 0918 9342     		cmp	r3, r2
 1662 091a 31D0     		beq	.L201
 198:Drivers/STM32F4xx_HAL_Driver/Src/stm32f4xx_hal_dma_ex.c ****     __HAL_DMA_CLEAR_FLAG (hdma, __HAL_DMA_GET_DME_FLAG_INDEX(hdma));
 1663              		.loc 1 198 5 discriminator 155 view .LVU424
 1664 091c A2F56872 		sub	r2, r2, #928
 1665 0920 9342     		cmp	r3, r2
 1666 0922 2FD0     		beq	.L202
 198:Drivers/STM32F4xx_HAL_Driver/Src/stm32f4xx_hal_dma_ex.c ****     __HAL_DMA_CLEAR_FLAG (hdma, __HAL_DMA_GET_DME_FLAG_INDEX(hdma));
 1667              		.loc 1 198 5 discriminator 157 view .LVU425
 1668 0924 02F58062 		add	r2, r2, #1024
 1669 0928 9342     		cmp	r3, r2
 1670 092a 2DD0     		beq	.L203
 198:Drivers/STM32F4xx_HAL_Driver/Src/stm32f4xx_hal_dma_ex.c ****     __HAL_DMA_CLEAR_FLAG (hdma, __HAL_DMA_GET_DME_FLAG_INDEX(hdma));
 1671              		.loc 1 198 5 discriminator 159 view .LVU426
 1672 092c A2F58962 		sub	r2, r2, #1096
 1673 0930 9342     		cmp	r3, r2
 1674 0932 2BD0     		beq	.L204
 198:Drivers/STM32F4xx_HAL_Driver/Src/stm32f4xx_hal_dma_ex.c ****     __HAL_DMA_CLEAR_FLAG (hdma, __HAL_DMA_GET_DME_FLAG_INDEX(hdma));
 1675              		.loc 1 198 5 discriminator 161 view .LVU427
 1676 0934 02F58062 		add	r2, r2, #1024
 1677 0938 9342     		cmp	r3, r2
 1678 093a 2AD0     		beq	.L205
 198:Drivers/STM32F4xx_HAL_Driver/Src/stm32f4xx_hal_dma_ex.c ****     __HAL_DMA_CLEAR_FLAG (hdma, __HAL_DMA_GET_DME_FLAG_INDEX(hdma));
 1679              		.loc 1 198 5 discriminator 163 view .LVU428
 1680 093c A2F56872 		sub	r2, r2, #928
ARM GAS  C:\Users\hanaj\AppData\Local\Temp\ccO9sAWH.s 			page 43


 1681 0940 9342     		cmp	r3, r2
 1682 0942 29D0     		beq	.L206
 198:Drivers/STM32F4xx_HAL_Driver/Src/stm32f4xx_hal_dma_ex.c ****     __HAL_DMA_CLEAR_FLAG (hdma, __HAL_DMA_GET_DME_FLAG_INDEX(hdma));
 1683              		.loc 1 198 5 discriminator 165 view .LVU429
 1684 0944 02F58062 		add	r2, r2, #1024
 1685 0948 9342     		cmp	r3, r2
 1686 094a 28D0     		beq	.L207
 198:Drivers/STM32F4xx_HAL_Driver/Src/stm32f4xx_hal_dma_ex.c ****     __HAL_DMA_CLEAR_FLAG (hdma, __HAL_DMA_GET_DME_FLAG_INDEX(hdma));
 1687              		.loc 1 198 5 discriminator 167 view .LVU430
 1688 094c A2F58962 		sub	r2, r2, #1096
 1689 0950 9342     		cmp	r3, r2
 1690 0952 27D0     		beq	.L208
 198:Drivers/STM32F4xx_HAL_Driver/Src/stm32f4xx_hal_dma_ex.c ****     __HAL_DMA_CLEAR_FLAG (hdma, __HAL_DMA_GET_DME_FLAG_INDEX(hdma));
 1691              		.loc 1 198 5 discriminator 169 view .LVU431
 1692 0954 02F58062 		add	r2, r2, #1024
 1693 0958 9342     		cmp	r3, r2
 1694 095a 26D0     		beq	.L209
 198:Drivers/STM32F4xx_HAL_Driver/Src/stm32f4xx_hal_dma_ex.c ****     __HAL_DMA_CLEAR_FLAG (hdma, __HAL_DMA_GET_DME_FLAG_INDEX(hdma));
 1695              		.loc 1 198 5 discriminator 171 view .LVU432
 1696 095c A2F56872 		sub	r2, r2, #928
 1697 0960 9342     		cmp	r3, r2
 1698 0962 25D0     		beq	.L210
 198:Drivers/STM32F4xx_HAL_Driver/Src/stm32f4xx_hal_dma_ex.c ****     __HAL_DMA_CLEAR_FLAG (hdma, __HAL_DMA_GET_DME_FLAG_INDEX(hdma));
 1699              		.loc 1 198 5 discriminator 173 view .LVU433
 1700 0964 02F58062 		add	r2, r2, #1024
 1701 0968 9342     		cmp	r3, r2
 1702 096a 02D0     		beq	.L324
 198:Drivers/STM32F4xx_HAL_Driver/Src/stm32f4xx_hal_dma_ex.c ****     __HAL_DMA_CLEAR_FLAG (hdma, __HAL_DMA_GET_DME_FLAG_INDEX(hdma));
 1703              		.loc 1 198 5 discriminator 176 view .LVU434
 1704 096c 4FF00073 		mov	r3, #33554432
 1705 0970 03E0     		b	.L48
 1706              	.L324:
 198:Drivers/STM32F4xx_HAL_Driver/Src/stm32f4xx_hal_dma_ex.c ****     __HAL_DMA_CLEAR_FLAG (hdma, __HAL_DMA_GET_DME_FLAG_INDEX(hdma));
 1707              		.loc 1 198 5 discriminator 175 view .LVU435
 1708 0972 4FF40023 		mov	r3, #524288
 1709 0976 00E0     		b	.L48
 1710              	.L200:
 198:Drivers/STM32F4xx_HAL_Driver/Src/stm32f4xx_hal_dma_ex.c ****     __HAL_DMA_CLEAR_FLAG (hdma, __HAL_DMA_GET_DME_FLAG_INDEX(hdma));
 1711              		.loc 1 198 5 discriminator 154 view .LVU436
 1712 0978 0823     		movs	r3, #8
 1713              	.L48:
 198:Drivers/STM32F4xx_HAL_Driver/Src/stm32f4xx_hal_dma_ex.c ****     __HAL_DMA_CLEAR_FLAG (hdma, __HAL_DMA_GET_DME_FLAG_INDEX(hdma));
 1714              		.loc 1 198 5 discriminator 200 view .LVU437
 1715 097a 984A     		ldr	r2, .L339+4
 1716 097c 9360     		str	r3, [r2, #8]
 1717 097e ACE6     		b	.L43
 1718              	.L201:
 198:Drivers/STM32F4xx_HAL_Driver/Src/stm32f4xx_hal_dma_ex.c ****     __HAL_DMA_CLEAR_FLAG (hdma, __HAL_DMA_GET_DME_FLAG_INDEX(hdma));
 1719              		.loc 1 198 5 discriminator 156 view .LVU438
 1720 0980 0823     		movs	r3, #8
 1721 0982 FAE7     		b	.L48
 1722              	.L202:
 198:Drivers/STM32F4xx_HAL_Driver/Src/stm32f4xx_hal_dma_ex.c ****     __HAL_DMA_CLEAR_FLAG (hdma, __HAL_DMA_GET_DME_FLAG_INDEX(hdma));
 1723              		.loc 1 198 5 discriminator 158 view .LVU439
 1724 0984 0823     		movs	r3, #8
 1725 0986 F8E7     		b	.L48
 1726              	.L203:
ARM GAS  C:\Users\hanaj\AppData\Local\Temp\ccO9sAWH.s 			page 44


 198:Drivers/STM32F4xx_HAL_Driver/Src/stm32f4xx_hal_dma_ex.c ****     __HAL_DMA_CLEAR_FLAG (hdma, __HAL_DMA_GET_DME_FLAG_INDEX(hdma));
 1727              		.loc 1 198 5 discriminator 160 view .LVU440
 1728 0988 0823     		movs	r3, #8
 1729 098a F6E7     		b	.L48
 1730              	.L204:
 198:Drivers/STM32F4xx_HAL_Driver/Src/stm32f4xx_hal_dma_ex.c ****     __HAL_DMA_CLEAR_FLAG (hdma, __HAL_DMA_GET_DME_FLAG_INDEX(hdma));
 1731              		.loc 1 198 5 discriminator 162 view .LVU441
 1732 098c 4FF40073 		mov	r3, #512
 1733 0990 F3E7     		b	.L48
 1734              	.L205:
 198:Drivers/STM32F4xx_HAL_Driver/Src/stm32f4xx_hal_dma_ex.c ****     __HAL_DMA_CLEAR_FLAG (hdma, __HAL_DMA_GET_DME_FLAG_INDEX(hdma));
 1735              		.loc 1 198 5 discriminator 164 view .LVU442
 1736 0992 4FF40073 		mov	r3, #512
 1737 0996 F0E7     		b	.L48
 1738              	.L206:
 198:Drivers/STM32F4xx_HAL_Driver/Src/stm32f4xx_hal_dma_ex.c ****     __HAL_DMA_CLEAR_FLAG (hdma, __HAL_DMA_GET_DME_FLAG_INDEX(hdma));
 1739              		.loc 1 198 5 discriminator 166 view .LVU443
 1740 0998 4FF40073 		mov	r3, #512
 1741 099c EDE7     		b	.L48
 1742              	.L207:
 198:Drivers/STM32F4xx_HAL_Driver/Src/stm32f4xx_hal_dma_ex.c ****     __HAL_DMA_CLEAR_FLAG (hdma, __HAL_DMA_GET_DME_FLAG_INDEX(hdma));
 1743              		.loc 1 198 5 discriminator 168 view .LVU444
 1744 099e 4FF40073 		mov	r3, #512
 1745 09a2 EAE7     		b	.L48
 1746              	.L208:
 198:Drivers/STM32F4xx_HAL_Driver/Src/stm32f4xx_hal_dma_ex.c ****     __HAL_DMA_CLEAR_FLAG (hdma, __HAL_DMA_GET_DME_FLAG_INDEX(hdma));
 1747              		.loc 1 198 5 discriminator 170 view .LVU445
 1748 09a4 4FF40023 		mov	r3, #524288
 1749 09a8 E7E7     		b	.L48
 1750              	.L209:
 198:Drivers/STM32F4xx_HAL_Driver/Src/stm32f4xx_hal_dma_ex.c ****     __HAL_DMA_CLEAR_FLAG (hdma, __HAL_DMA_GET_DME_FLAG_INDEX(hdma));
 1751              		.loc 1 198 5 discriminator 172 view .LVU446
 1752 09aa 4FF40023 		mov	r3, #524288
 1753 09ae E4E7     		b	.L48
 1754              	.L210:
 198:Drivers/STM32F4xx_HAL_Driver/Src/stm32f4xx_hal_dma_ex.c ****     __HAL_DMA_CLEAR_FLAG (hdma, __HAL_DMA_GET_DME_FLAG_INDEX(hdma));
 1755              		.loc 1 198 5 discriminator 174 view .LVU447
 1756 09b0 4FF40023 		mov	r3, #524288
 1757 09b4 E1E7     		b	.L48
 1758              	.L321:
 199:Drivers/STM32F4xx_HAL_Driver/Src/stm32f4xx_hal_dma_ex.c ****     __HAL_DMA_CLEAR_FLAG (hdma, __HAL_DMA_GET_FE_FLAG_INDEX(hdma));
 1759              		.loc 1 199 5 discriminator 25 view .LVU448
 1760 09b6 4FF48022 		mov	r2, #262144
 1761 09ba 00E0     		b	.L50
 1762              	.L212:
 199:Drivers/STM32F4xx_HAL_Driver/Src/stm32f4xx_hal_dma_ex.c ****     __HAL_DMA_CLEAR_FLAG (hdma, __HAL_DMA_GET_FE_FLAG_INDEX(hdma));
 1763              		.loc 1 199 5 discriminator 4 view .LVU449
 1764 09bc 0422     		movs	r2, #4
 1765              	.L50:
 199:Drivers/STM32F4xx_HAL_Driver/Src/stm32f4xx_hal_dma_ex.c ****     __HAL_DMA_CLEAR_FLAG (hdma, __HAL_DMA_GET_FE_FLAG_INDEX(hdma));
 1766              		.loc 1 199 5 discriminator 50 view .LVU450
 1767 09be 884B     		ldr	r3, .L339+8
 1768 09c0 DA60     		str	r2, [r3, #12]
 1769              	.L51:
 200:Drivers/STM32F4xx_HAL_Driver/Src/stm32f4xx_hal_dma_ex.c **** 
 1770              		.loc 1 200 5 is_stmt 1 view .LVU451
 1771 09c2 2368     		ldr	r3, [r4]
ARM GAS  C:\Users\hanaj\AppData\Local\Temp\ccO9sAWH.s 			page 45


 1772 09c4 874A     		ldr	r2, .L339+12
 1773 09c6 9342     		cmp	r3, r2
 1774 09c8 40F2A181 		bls	.L57
 200:Drivers/STM32F4xx_HAL_Driver/Src/stm32f4xx_hal_dma_ex.c **** 
 1775              		.loc 1 200 5 is_stmt 0 discriminator 1 view .LVU452
 1776 09cc A2F58962 		sub	r2, r2, #1096
 1777 09d0 9342     		cmp	r3, r2
 1778 09d2 00F06781 		beq	.L260
 200:Drivers/STM32F4xx_HAL_Driver/Src/stm32f4xx_hal_dma_ex.c **** 
 1779              		.loc 1 200 5 discriminator 3 view .LVU453
 1780 09d6 02F58062 		add	r2, r2, #1024
 1781 09da 9342     		cmp	r3, r2
 1782 09dc 00F08081 		beq	.L261
 200:Drivers/STM32F4xx_HAL_Driver/Src/stm32f4xx_hal_dma_ex.c **** 
 1783              		.loc 1 200 5 discriminator 5 view .LVU454
 1784 09e0 A2F56872 		sub	r2, r2, #928
 1785 09e4 9342     		cmp	r3, r2
 1786 09e6 00F07D81 		beq	.L262
 200:Drivers/STM32F4xx_HAL_Driver/Src/stm32f4xx_hal_dma_ex.c **** 
 1787              		.loc 1 200 5 discriminator 7 view .LVU455
 1788 09ea 02F58062 		add	r2, r2, #1024
 1789 09ee 9342     		cmp	r3, r2
 1790 09f0 00F07A81 		beq	.L263
 200:Drivers/STM32F4xx_HAL_Driver/Src/stm32f4xx_hal_dma_ex.c **** 
 1791              		.loc 1 200 5 discriminator 9 view .LVU456
 1792 09f4 A2F58962 		sub	r2, r2, #1096
 1793 09f8 9342     		cmp	r3, r2
 1794 09fa 00F07781 		beq	.L264
 200:Drivers/STM32F4xx_HAL_Driver/Src/stm32f4xx_hal_dma_ex.c **** 
 1795              		.loc 1 200 5 discriminator 11 view .LVU457
 1796 09fe 02F58062 		add	r2, r2, #1024
 1797 0a02 9342     		cmp	r3, r2
 1798 0a04 00F07481 		beq	.L265
 200:Drivers/STM32F4xx_HAL_Driver/Src/stm32f4xx_hal_dma_ex.c **** 
 1799              		.loc 1 200 5 discriminator 13 view .LVU458
 1800 0a08 A2F56872 		sub	r2, r2, #928
 1801 0a0c 9342     		cmp	r3, r2
 1802 0a0e 00F07181 		beq	.L266
 200:Drivers/STM32F4xx_HAL_Driver/Src/stm32f4xx_hal_dma_ex.c **** 
 1803              		.loc 1 200 5 discriminator 15 view .LVU459
 1804 0a12 02F58062 		add	r2, r2, #1024
 1805 0a16 9342     		cmp	r3, r2
 1806 0a18 00F06E81 		beq	.L267
 200:Drivers/STM32F4xx_HAL_Driver/Src/stm32f4xx_hal_dma_ex.c **** 
 1807              		.loc 1 200 5 discriminator 17 view .LVU460
 1808 0a1c A2F58962 		sub	r2, r2, #1096
 1809 0a20 9342     		cmp	r3, r2
 1810 0a22 00F06B81 		beq	.L268
 200:Drivers/STM32F4xx_HAL_Driver/Src/stm32f4xx_hal_dma_ex.c **** 
 1811              		.loc 1 200 5 discriminator 19 view .LVU461
 1812 0a26 02F58062 		add	r2, r2, #1024
 1813 0a2a 9342     		cmp	r3, r2
 1814 0a2c 00F06981 		beq	.L269
 200:Drivers/STM32F4xx_HAL_Driver/Src/stm32f4xx_hal_dma_ex.c **** 
 1815              		.loc 1 200 5 discriminator 21 view .LVU462
 1816 0a30 A2F56872 		sub	r2, r2, #928
 1817 0a34 9342     		cmp	r3, r2
ARM GAS  C:\Users\hanaj\AppData\Local\Temp\ccO9sAWH.s 			page 46


 1818 0a36 00F06781 		beq	.L270
 200:Drivers/STM32F4xx_HAL_Driver/Src/stm32f4xx_hal_dma_ex.c **** 
 1819              		.loc 1 200 5 discriminator 23 view .LVU463
 1820 0a3a 02F58062 		add	r2, r2, #1024
 1821 0a3e 9342     		cmp	r3, r2
 1822 0a40 00F02D81 		beq	.L325
 200:Drivers/STM32F4xx_HAL_Driver/Src/stm32f4xx_hal_dma_ex.c **** 
 1823              		.loc 1 200 5 discriminator 26 view .LVU464
 1824 0a44 4FF48002 		mov	r2, #4194304
 1825 0a48 2DE1     		b	.L58
 1826              	.L213:
 199:Drivers/STM32F4xx_HAL_Driver/Src/stm32f4xx_hal_dma_ex.c ****     __HAL_DMA_CLEAR_FLAG (hdma, __HAL_DMA_GET_FE_FLAG_INDEX(hdma));
 1827              		.loc 1 199 5 discriminator 6 view .LVU465
 1828 0a4a 0422     		movs	r2, #4
 1829 0a4c B7E7     		b	.L50
 1830              	.L214:
 199:Drivers/STM32F4xx_HAL_Driver/Src/stm32f4xx_hal_dma_ex.c ****     __HAL_DMA_CLEAR_FLAG (hdma, __HAL_DMA_GET_FE_FLAG_INDEX(hdma));
 1831              		.loc 1 199 5 discriminator 8 view .LVU466
 1832 0a4e 0422     		movs	r2, #4
 1833 0a50 B5E7     		b	.L50
 1834              	.L215:
 199:Drivers/STM32F4xx_HAL_Driver/Src/stm32f4xx_hal_dma_ex.c ****     __HAL_DMA_CLEAR_FLAG (hdma, __HAL_DMA_GET_FE_FLAG_INDEX(hdma));
 1835              		.loc 1 199 5 discriminator 10 view .LVU467
 1836 0a52 0422     		movs	r2, #4
 1837 0a54 B3E7     		b	.L50
 1838              	.L216:
 199:Drivers/STM32F4xx_HAL_Driver/Src/stm32f4xx_hal_dma_ex.c ****     __HAL_DMA_CLEAR_FLAG (hdma, __HAL_DMA_GET_FE_FLAG_INDEX(hdma));
 1839              		.loc 1 199 5 discriminator 12 view .LVU468
 1840 0a56 4FF48072 		mov	r2, #256
 1841 0a5a B0E7     		b	.L50
 1842              	.L217:
 199:Drivers/STM32F4xx_HAL_Driver/Src/stm32f4xx_hal_dma_ex.c ****     __HAL_DMA_CLEAR_FLAG (hdma, __HAL_DMA_GET_FE_FLAG_INDEX(hdma));
 1843              		.loc 1 199 5 discriminator 14 view .LVU469
 1844 0a5c 4FF48072 		mov	r2, #256
 1845 0a60 ADE7     		b	.L50
 1846              	.L218:
 199:Drivers/STM32F4xx_HAL_Driver/Src/stm32f4xx_hal_dma_ex.c ****     __HAL_DMA_CLEAR_FLAG (hdma, __HAL_DMA_GET_FE_FLAG_INDEX(hdma));
 1847              		.loc 1 199 5 discriminator 16 view .LVU470
 1848 0a62 4FF48072 		mov	r2, #256
 1849 0a66 AAE7     		b	.L50
 1850              	.L219:
 199:Drivers/STM32F4xx_HAL_Driver/Src/stm32f4xx_hal_dma_ex.c ****     __HAL_DMA_CLEAR_FLAG (hdma, __HAL_DMA_GET_FE_FLAG_INDEX(hdma));
 1851              		.loc 1 199 5 discriminator 18 view .LVU471
 1852 0a68 4FF48072 		mov	r2, #256
 1853 0a6c A7E7     		b	.L50
 1854              	.L220:
 199:Drivers/STM32F4xx_HAL_Driver/Src/stm32f4xx_hal_dma_ex.c ****     __HAL_DMA_CLEAR_FLAG (hdma, __HAL_DMA_GET_FE_FLAG_INDEX(hdma));
 1855              		.loc 1 199 5 discriminator 20 view .LVU472
 1856 0a6e 4FF48022 		mov	r2, #262144
 1857 0a72 A4E7     		b	.L50
 1858              	.L221:
 199:Drivers/STM32F4xx_HAL_Driver/Src/stm32f4xx_hal_dma_ex.c ****     __HAL_DMA_CLEAR_FLAG (hdma, __HAL_DMA_GET_FE_FLAG_INDEX(hdma));
 1859              		.loc 1 199 5 discriminator 22 view .LVU473
 1860 0a74 4FF48022 		mov	r2, #262144
 1861 0a78 A1E7     		b	.L50
 1862              	.L222:
 199:Drivers/STM32F4xx_HAL_Driver/Src/stm32f4xx_hal_dma_ex.c ****     __HAL_DMA_CLEAR_FLAG (hdma, __HAL_DMA_GET_FE_FLAG_INDEX(hdma));
ARM GAS  C:\Users\hanaj\AppData\Local\Temp\ccO9sAWH.s 			page 47


 1863              		.loc 1 199 5 discriminator 24 view .LVU474
 1864 0a7a 4FF48022 		mov	r2, #262144
 1865 0a7e 9EE7     		b	.L50
 1866              	.L49:
 199:Drivers/STM32F4xx_HAL_Driver/Src/stm32f4xx_hal_dma_ex.c ****     __HAL_DMA_CLEAR_FLAG (hdma, __HAL_DMA_GET_FE_FLAG_INDEX(hdma));
 1867              		.loc 1 199 5 discriminator 2 view .LVU475
 1868 0a80 594A     		ldr	r2, .L339+16
 1869 0a82 9342     		cmp	r3, r2
 1870 0a84 53D9     		bls	.L52
 199:Drivers/STM32F4xx_HAL_Driver/Src/stm32f4xx_hal_dma_ex.c ****     __HAL_DMA_CLEAR_FLAG (hdma, __HAL_DMA_GET_FE_FLAG_INDEX(hdma));
 1871              		.loc 1 199 5 discriminator 51 view .LVU476
 1872 0a86 A83A     		subs	r2, r2, #168
 1873 0a88 9342     		cmp	r3, r2
 1874 0a8a 31D0     		beq	.L224
 199:Drivers/STM32F4xx_HAL_Driver/Src/stm32f4xx_hal_dma_ex.c ****     __HAL_DMA_CLEAR_FLAG (hdma, __HAL_DMA_GET_FE_FLAG_INDEX(hdma));
 1875              		.loc 1 199 5 discriminator 53 view .LVU477
 1876 0a8c 02F58062 		add	r2, r2, #1024
 1877 0a90 9342     		cmp	r3, r2
 1878 0a92 31D0     		beq	.L225
 199:Drivers/STM32F4xx_HAL_Driver/Src/stm32f4xx_hal_dma_ex.c ****     __HAL_DMA_CLEAR_FLAG (hdma, __HAL_DMA_GET_FE_FLAG_INDEX(hdma));
 1879              		.loc 1 199 5 discriminator 55 view .LVU478
 1880 0a94 A2F56872 		sub	r2, r2, #928
 1881 0a98 9342     		cmp	r3, r2
 1882 0a9a 2FD0     		beq	.L226
 199:Drivers/STM32F4xx_HAL_Driver/Src/stm32f4xx_hal_dma_ex.c ****     __HAL_DMA_CLEAR_FLAG (hdma, __HAL_DMA_GET_FE_FLAG_INDEX(hdma));
 1883              		.loc 1 199 5 discriminator 57 view .LVU479
 1884 0a9c 02F58062 		add	r2, r2, #1024
 1885 0aa0 9342     		cmp	r3, r2
 1886 0aa2 2DD0     		beq	.L227
 199:Drivers/STM32F4xx_HAL_Driver/Src/stm32f4xx_hal_dma_ex.c ****     __HAL_DMA_CLEAR_FLAG (hdma, __HAL_DMA_GET_FE_FLAG_INDEX(hdma));
 1887              		.loc 1 199 5 discriminator 59 view .LVU480
 1888 0aa4 A2F58962 		sub	r2, r2, #1096
 1889 0aa8 9342     		cmp	r3, r2
 1890 0aaa 2BD0     		beq	.L228
 199:Drivers/STM32F4xx_HAL_Driver/Src/stm32f4xx_hal_dma_ex.c ****     __HAL_DMA_CLEAR_FLAG (hdma, __HAL_DMA_GET_FE_FLAG_INDEX(hdma));
 1891              		.loc 1 199 5 discriminator 61 view .LVU481
 1892 0aac 02F58062 		add	r2, r2, #1024
 1893 0ab0 9342     		cmp	r3, r2
 1894 0ab2 2AD0     		beq	.L229
 199:Drivers/STM32F4xx_HAL_Driver/Src/stm32f4xx_hal_dma_ex.c ****     __HAL_DMA_CLEAR_FLAG (hdma, __HAL_DMA_GET_FE_FLAG_INDEX(hdma));
 1895              		.loc 1 199 5 discriminator 63 view .LVU482
 1896 0ab4 A2F56872 		sub	r2, r2, #928
 1897 0ab8 9342     		cmp	r3, r2
 1898 0aba 29D0     		beq	.L230
 199:Drivers/STM32F4xx_HAL_Driver/Src/stm32f4xx_hal_dma_ex.c ****     __HAL_DMA_CLEAR_FLAG (hdma, __HAL_DMA_GET_FE_FLAG_INDEX(hdma));
 1899              		.loc 1 199 5 discriminator 65 view .LVU483
 1900 0abc 02F58062 		add	r2, r2, #1024
 1901 0ac0 9342     		cmp	r3, r2
 1902 0ac2 28D0     		beq	.L231
 199:Drivers/STM32F4xx_HAL_Driver/Src/stm32f4xx_hal_dma_ex.c ****     __HAL_DMA_CLEAR_FLAG (hdma, __HAL_DMA_GET_FE_FLAG_INDEX(hdma));
 1903              		.loc 1 199 5 discriminator 67 view .LVU484
 1904 0ac4 A2F58962 		sub	r2, r2, #1096
 1905 0ac8 9342     		cmp	r3, r2
 1906 0aca 27D0     		beq	.L232
 199:Drivers/STM32F4xx_HAL_Driver/Src/stm32f4xx_hal_dma_ex.c ****     __HAL_DMA_CLEAR_FLAG (hdma, __HAL_DMA_GET_FE_FLAG_INDEX(hdma));
 1907              		.loc 1 199 5 discriminator 69 view .LVU485
 1908 0acc 02F58062 		add	r2, r2, #1024
ARM GAS  C:\Users\hanaj\AppData\Local\Temp\ccO9sAWH.s 			page 48


 1909 0ad0 9342     		cmp	r3, r2
 1910 0ad2 26D0     		beq	.L233
 199:Drivers/STM32F4xx_HAL_Driver/Src/stm32f4xx_hal_dma_ex.c ****     __HAL_DMA_CLEAR_FLAG (hdma, __HAL_DMA_GET_FE_FLAG_INDEX(hdma));
 1911              		.loc 1 199 5 discriminator 71 view .LVU486
 1912 0ad4 A2F56872 		sub	r2, r2, #928
 1913 0ad8 9342     		cmp	r3, r2
 1914 0ada 25D0     		beq	.L234
 199:Drivers/STM32F4xx_HAL_Driver/Src/stm32f4xx_hal_dma_ex.c ****     __HAL_DMA_CLEAR_FLAG (hdma, __HAL_DMA_GET_FE_FLAG_INDEX(hdma));
 1915              		.loc 1 199 5 discriminator 73 view .LVU487
 1916 0adc 02F58062 		add	r2, r2, #1024
 1917 0ae0 9342     		cmp	r3, r2
 1918 0ae2 02D0     		beq	.L326
 199:Drivers/STM32F4xx_HAL_Driver/Src/stm32f4xx_hal_dma_ex.c ****     __HAL_DMA_CLEAR_FLAG (hdma, __HAL_DMA_GET_FE_FLAG_INDEX(hdma));
 1919              		.loc 1 199 5 discriminator 76 view .LVU488
 1920 0ae4 4FF08073 		mov	r3, #16777216
 1921 0ae8 03E0     		b	.L53
 1922              	.L326:
 199:Drivers/STM32F4xx_HAL_Driver/Src/stm32f4xx_hal_dma_ex.c ****     __HAL_DMA_CLEAR_FLAG (hdma, __HAL_DMA_GET_FE_FLAG_INDEX(hdma));
 1923              		.loc 1 199 5 discriminator 75 view .LVU489
 1924 0aea 4FF48023 		mov	r3, #262144
 1925 0aee 00E0     		b	.L53
 1926              	.L224:
 199:Drivers/STM32F4xx_HAL_Driver/Src/stm32f4xx_hal_dma_ex.c ****     __HAL_DMA_CLEAR_FLAG (hdma, __HAL_DMA_GET_FE_FLAG_INDEX(hdma));
 1927              		.loc 1 199 5 discriminator 54 view .LVU490
 1928 0af0 0423     		movs	r3, #4
 1929              	.L53:
 199:Drivers/STM32F4xx_HAL_Driver/Src/stm32f4xx_hal_dma_ex.c ****     __HAL_DMA_CLEAR_FLAG (hdma, __HAL_DMA_GET_FE_FLAG_INDEX(hdma));
 1930              		.loc 1 199 5 discriminator 100 view .LVU491
 1931 0af2 3B4A     		ldr	r2, .L339+8
 1932 0af4 9360     		str	r3, [r2, #8]
 1933 0af6 64E7     		b	.L51
 1934              	.L225:
 199:Drivers/STM32F4xx_HAL_Driver/Src/stm32f4xx_hal_dma_ex.c ****     __HAL_DMA_CLEAR_FLAG (hdma, __HAL_DMA_GET_FE_FLAG_INDEX(hdma));
 1935              		.loc 1 199 5 discriminator 56 view .LVU492
 1936 0af8 0423     		movs	r3, #4
 1937 0afa FAE7     		b	.L53
 1938              	.L226:
 199:Drivers/STM32F4xx_HAL_Driver/Src/stm32f4xx_hal_dma_ex.c ****     __HAL_DMA_CLEAR_FLAG (hdma, __HAL_DMA_GET_FE_FLAG_INDEX(hdma));
 1939              		.loc 1 199 5 discriminator 58 view .LVU493
 1940 0afc 0423     		movs	r3, #4
 1941 0afe F8E7     		b	.L53
 1942              	.L227:
 199:Drivers/STM32F4xx_HAL_Driver/Src/stm32f4xx_hal_dma_ex.c ****     __HAL_DMA_CLEAR_FLAG (hdma, __HAL_DMA_GET_FE_FLAG_INDEX(hdma));
 1943              		.loc 1 199 5 discriminator 60 view .LVU494
 1944 0b00 0423     		movs	r3, #4
 1945 0b02 F6E7     		b	.L53
 1946              	.L228:
 199:Drivers/STM32F4xx_HAL_Driver/Src/stm32f4xx_hal_dma_ex.c ****     __HAL_DMA_CLEAR_FLAG (hdma, __HAL_DMA_GET_FE_FLAG_INDEX(hdma));
 1947              		.loc 1 199 5 discriminator 62 view .LVU495
 1948 0b04 4FF48073 		mov	r3, #256
 1949 0b08 F3E7     		b	.L53
 1950              	.L229:
 199:Drivers/STM32F4xx_HAL_Driver/Src/stm32f4xx_hal_dma_ex.c ****     __HAL_DMA_CLEAR_FLAG (hdma, __HAL_DMA_GET_FE_FLAG_INDEX(hdma));
 1951              		.loc 1 199 5 discriminator 64 view .LVU496
 1952 0b0a 4FF48073 		mov	r3, #256
 1953 0b0e F0E7     		b	.L53
 1954              	.L230:
ARM GAS  C:\Users\hanaj\AppData\Local\Temp\ccO9sAWH.s 			page 49


 199:Drivers/STM32F4xx_HAL_Driver/Src/stm32f4xx_hal_dma_ex.c ****     __HAL_DMA_CLEAR_FLAG (hdma, __HAL_DMA_GET_FE_FLAG_INDEX(hdma));
 1955              		.loc 1 199 5 discriminator 66 view .LVU497
 1956 0b10 4FF48073 		mov	r3, #256
 1957 0b14 EDE7     		b	.L53
 1958              	.L231:
 199:Drivers/STM32F4xx_HAL_Driver/Src/stm32f4xx_hal_dma_ex.c ****     __HAL_DMA_CLEAR_FLAG (hdma, __HAL_DMA_GET_FE_FLAG_INDEX(hdma));
 1959              		.loc 1 199 5 discriminator 68 view .LVU498
 1960 0b16 4FF48073 		mov	r3, #256
 1961 0b1a EAE7     		b	.L53
 1962              	.L232:
 199:Drivers/STM32F4xx_HAL_Driver/Src/stm32f4xx_hal_dma_ex.c ****     __HAL_DMA_CLEAR_FLAG (hdma, __HAL_DMA_GET_FE_FLAG_INDEX(hdma));
 1963              		.loc 1 199 5 discriminator 70 view .LVU499
 1964 0b1c 4FF48023 		mov	r3, #262144
 1965 0b20 E7E7     		b	.L53
 1966              	.L233:
 199:Drivers/STM32F4xx_HAL_Driver/Src/stm32f4xx_hal_dma_ex.c ****     __HAL_DMA_CLEAR_FLAG (hdma, __HAL_DMA_GET_FE_FLAG_INDEX(hdma));
 1967              		.loc 1 199 5 discriminator 72 view .LVU500
 1968 0b22 4FF48023 		mov	r3, #262144
 1969 0b26 E4E7     		b	.L53
 1970              	.L234:
 199:Drivers/STM32F4xx_HAL_Driver/Src/stm32f4xx_hal_dma_ex.c ****     __HAL_DMA_CLEAR_FLAG (hdma, __HAL_DMA_GET_FE_FLAG_INDEX(hdma));
 1971              		.loc 1 199 5 discriminator 74 view .LVU501
 1972 0b28 4FF48023 		mov	r3, #262144
 1973 0b2c E1E7     		b	.L53
 1974              	.L52:
 199:Drivers/STM32F4xx_HAL_Driver/Src/stm32f4xx_hal_dma_ex.c ****     __HAL_DMA_CLEAR_FLAG (hdma, __HAL_DMA_GET_FE_FLAG_INDEX(hdma));
 1975              		.loc 1 199 5 discriminator 52 view .LVU502
 1976 0b2e 2F4A     		ldr	r2, .L339+20
 1977 0b30 9342     		cmp	r3, r2
 1978 0b32 60D9     		bls	.L54
 199:Drivers/STM32F4xx_HAL_Driver/Src/stm32f4xx_hal_dma_ex.c ****     __HAL_DMA_CLEAR_FLAG (hdma, __HAL_DMA_GET_FE_FLAG_INDEX(hdma));
 1979              		.loc 1 199 5 discriminator 102 view .LVU503
 1980 0b34 483A     		subs	r2, r2, #72
 1981 0b36 9342     		cmp	r3, r2
 1982 0b38 31D0     		beq	.L236
 199:Drivers/STM32F4xx_HAL_Driver/Src/stm32f4xx_hal_dma_ex.c ****     __HAL_DMA_CLEAR_FLAG (hdma, __HAL_DMA_GET_FE_FLAG_INDEX(hdma));
 1983              		.loc 1 199 5 discriminator 104 view .LVU504
 1984 0b3a 02F58062 		add	r2, r2, #1024
 1985 0b3e 9342     		cmp	r3, r2
 1986 0b40 31D0     		beq	.L237
 199:Drivers/STM32F4xx_HAL_Driver/Src/stm32f4xx_hal_dma_ex.c ****     __HAL_DMA_CLEAR_FLAG (hdma, __HAL_DMA_GET_FE_FLAG_INDEX(hdma));
 1987              		.loc 1 199 5 discriminator 106 view .LVU505
 1988 0b42 A2F56872 		sub	r2, r2, #928
 1989 0b46 9342     		cmp	r3, r2
 1990 0b48 2FD0     		beq	.L238
 199:Drivers/STM32F4xx_HAL_Driver/Src/stm32f4xx_hal_dma_ex.c ****     __HAL_DMA_CLEAR_FLAG (hdma, __HAL_DMA_GET_FE_FLAG_INDEX(hdma));
 1991              		.loc 1 199 5 discriminator 108 view .LVU506
 1992 0b4a 02F58062 		add	r2, r2, #1024
 1993 0b4e 9342     		cmp	r3, r2
 1994 0b50 2DD0     		beq	.L239
 199:Drivers/STM32F4xx_HAL_Driver/Src/stm32f4xx_hal_dma_ex.c ****     __HAL_DMA_CLEAR_FLAG (hdma, __HAL_DMA_GET_FE_FLAG_INDEX(hdma));
 1995              		.loc 1 199 5 discriminator 110 view .LVU507
 1996 0b52 A2F58962 		sub	r2, r2, #1096
 1997 0b56 9342     		cmp	r3, r2
 1998 0b58 2BD0     		beq	.L240
 199:Drivers/STM32F4xx_HAL_Driver/Src/stm32f4xx_hal_dma_ex.c ****     __HAL_DMA_CLEAR_FLAG (hdma, __HAL_DMA_GET_FE_FLAG_INDEX(hdma));
 1999              		.loc 1 199 5 discriminator 112 view .LVU508
ARM GAS  C:\Users\hanaj\AppData\Local\Temp\ccO9sAWH.s 			page 50


 2000 0b5a 02F58062 		add	r2, r2, #1024
 2001 0b5e 9342     		cmp	r3, r2
 2002 0b60 2AD0     		beq	.L241
 199:Drivers/STM32F4xx_HAL_Driver/Src/stm32f4xx_hal_dma_ex.c ****     __HAL_DMA_CLEAR_FLAG (hdma, __HAL_DMA_GET_FE_FLAG_INDEX(hdma));
 2003              		.loc 1 199 5 discriminator 114 view .LVU509
 2004 0b62 A2F56872 		sub	r2, r2, #928
 2005 0b66 9342     		cmp	r3, r2
 2006 0b68 29D0     		beq	.L242
 199:Drivers/STM32F4xx_HAL_Driver/Src/stm32f4xx_hal_dma_ex.c ****     __HAL_DMA_CLEAR_FLAG (hdma, __HAL_DMA_GET_FE_FLAG_INDEX(hdma));
 2007              		.loc 1 199 5 discriminator 116 view .LVU510
 2008 0b6a 02F58062 		add	r2, r2, #1024
 2009 0b6e 9342     		cmp	r3, r2
 2010 0b70 28D0     		beq	.L243
 199:Drivers/STM32F4xx_HAL_Driver/Src/stm32f4xx_hal_dma_ex.c ****     __HAL_DMA_CLEAR_FLAG (hdma, __HAL_DMA_GET_FE_FLAG_INDEX(hdma));
 2011              		.loc 1 199 5 discriminator 118 view .LVU511
 2012 0b72 A2F58962 		sub	r2, r2, #1096
 2013 0b76 9342     		cmp	r3, r2
 2014 0b78 27D0     		beq	.L244
 199:Drivers/STM32F4xx_HAL_Driver/Src/stm32f4xx_hal_dma_ex.c ****     __HAL_DMA_CLEAR_FLAG (hdma, __HAL_DMA_GET_FE_FLAG_INDEX(hdma));
 2015              		.loc 1 199 5 discriminator 120 view .LVU512
 2016 0b7a 02F58062 		add	r2, r2, #1024
 2017 0b7e 9342     		cmp	r3, r2
 2018 0b80 26D0     		beq	.L245
 199:Drivers/STM32F4xx_HAL_Driver/Src/stm32f4xx_hal_dma_ex.c ****     __HAL_DMA_CLEAR_FLAG (hdma, __HAL_DMA_GET_FE_FLAG_INDEX(hdma));
 2019              		.loc 1 199 5 discriminator 122 view .LVU513
 2020 0b82 A2F56872 		sub	r2, r2, #928
 2021 0b86 9342     		cmp	r3, r2
 2022 0b88 32D0     		beq	.L246
 199:Drivers/STM32F4xx_HAL_Driver/Src/stm32f4xx_hal_dma_ex.c ****     __HAL_DMA_CLEAR_FLAG (hdma, __HAL_DMA_GET_FE_FLAG_INDEX(hdma));
 2023              		.loc 1 199 5 discriminator 124 view .LVU514
 2024 0b8a 02F58062 		add	r2, r2, #1024
 2025 0b8e 9342     		cmp	r3, r2
 2026 0b90 02D0     		beq	.L327
 199:Drivers/STM32F4xx_HAL_Driver/Src/stm32f4xx_hal_dma_ex.c ****     __HAL_DMA_CLEAR_FLAG (hdma, __HAL_DMA_GET_FE_FLAG_INDEX(hdma));
 2027              		.loc 1 199 5 discriminator 127 view .LVU515
 2028 0b92 4FF08073 		mov	r3, #16777216
 2029 0b96 03E0     		b	.L55
 2030              	.L327:
 199:Drivers/STM32F4xx_HAL_Driver/Src/stm32f4xx_hal_dma_ex.c ****     __HAL_DMA_CLEAR_FLAG (hdma, __HAL_DMA_GET_FE_FLAG_INDEX(hdma));
 2031              		.loc 1 199 5 discriminator 126 view .LVU516
 2032 0b98 4FF48023 		mov	r3, #262144
 2033 0b9c 00E0     		b	.L55
 2034              	.L236:
 199:Drivers/STM32F4xx_HAL_Driver/Src/stm32f4xx_hal_dma_ex.c ****     __HAL_DMA_CLEAR_FLAG (hdma, __HAL_DMA_GET_FE_FLAG_INDEX(hdma));
 2035              		.loc 1 199 5 discriminator 105 view .LVU517
 2036 0b9e 0423     		movs	r3, #4
 2037              	.L55:
 199:Drivers/STM32F4xx_HAL_Driver/Src/stm32f4xx_hal_dma_ex.c ****     __HAL_DMA_CLEAR_FLAG (hdma, __HAL_DMA_GET_FE_FLAG_INDEX(hdma));
 2038              		.loc 1 199 5 discriminator 151 view .LVU518
 2039 0ba0 0E4A     		ldr	r2, .L339+4
 2040 0ba2 D360     		str	r3, [r2, #12]
 2041 0ba4 0DE7     		b	.L51
 2042              	.L237:
 199:Drivers/STM32F4xx_HAL_Driver/Src/stm32f4xx_hal_dma_ex.c ****     __HAL_DMA_CLEAR_FLAG (hdma, __HAL_DMA_GET_FE_FLAG_INDEX(hdma));
 2043              		.loc 1 199 5 discriminator 107 view .LVU519
 2044 0ba6 0423     		movs	r3, #4
 2045 0ba8 FAE7     		b	.L55
ARM GAS  C:\Users\hanaj\AppData\Local\Temp\ccO9sAWH.s 			page 51


 2046              	.L238:
 199:Drivers/STM32F4xx_HAL_Driver/Src/stm32f4xx_hal_dma_ex.c ****     __HAL_DMA_CLEAR_FLAG (hdma, __HAL_DMA_GET_FE_FLAG_INDEX(hdma));
 2047              		.loc 1 199 5 discriminator 109 view .LVU520
 2048 0baa 0423     		movs	r3, #4
 2049 0bac F8E7     		b	.L55
 2050              	.L239:
 199:Drivers/STM32F4xx_HAL_Driver/Src/stm32f4xx_hal_dma_ex.c ****     __HAL_DMA_CLEAR_FLAG (hdma, __HAL_DMA_GET_FE_FLAG_INDEX(hdma));
 2051              		.loc 1 199 5 discriminator 111 view .LVU521
 2052 0bae 0423     		movs	r3, #4
 2053 0bb0 F6E7     		b	.L55
 2054              	.L240:
 199:Drivers/STM32F4xx_HAL_Driver/Src/stm32f4xx_hal_dma_ex.c ****     __HAL_DMA_CLEAR_FLAG (hdma, __HAL_DMA_GET_FE_FLAG_INDEX(hdma));
 2055              		.loc 1 199 5 discriminator 113 view .LVU522
 2056 0bb2 4FF48073 		mov	r3, #256
 2057 0bb6 F3E7     		b	.L55
 2058              	.L241:
 199:Drivers/STM32F4xx_HAL_Driver/Src/stm32f4xx_hal_dma_ex.c ****     __HAL_DMA_CLEAR_FLAG (hdma, __HAL_DMA_GET_FE_FLAG_INDEX(hdma));
 2059              		.loc 1 199 5 discriminator 115 view .LVU523
 2060 0bb8 4FF48073 		mov	r3, #256
 2061 0bbc F0E7     		b	.L55
 2062              	.L242:
 199:Drivers/STM32F4xx_HAL_Driver/Src/stm32f4xx_hal_dma_ex.c ****     __HAL_DMA_CLEAR_FLAG (hdma, __HAL_DMA_GET_FE_FLAG_INDEX(hdma));
 2063              		.loc 1 199 5 discriminator 117 view .LVU524
 2064 0bbe 4FF48073 		mov	r3, #256
 2065 0bc2 EDE7     		b	.L55
 2066              	.L243:
 199:Drivers/STM32F4xx_HAL_Driver/Src/stm32f4xx_hal_dma_ex.c ****     __HAL_DMA_CLEAR_FLAG (hdma, __HAL_DMA_GET_FE_FLAG_INDEX(hdma));
 2067              		.loc 1 199 5 discriminator 119 view .LVU525
 2068 0bc4 4FF48073 		mov	r3, #256
 2069 0bc8 EAE7     		b	.L55
 2070              	.L244:
 199:Drivers/STM32F4xx_HAL_Driver/Src/stm32f4xx_hal_dma_ex.c ****     __HAL_DMA_CLEAR_FLAG (hdma, __HAL_DMA_GET_FE_FLAG_INDEX(hdma));
 2071              		.loc 1 199 5 discriminator 121 view .LVU526
 2072 0bca 4FF48023 		mov	r3, #262144
 2073 0bce E7E7     		b	.L55
 2074              	.L245:
 199:Drivers/STM32F4xx_HAL_Driver/Src/stm32f4xx_hal_dma_ex.c ****     __HAL_DMA_CLEAR_FLAG (hdma, __HAL_DMA_GET_FE_FLAG_INDEX(hdma));
 2075              		.loc 1 199 5 discriminator 123 view .LVU527
 2076 0bd0 4FF48023 		mov	r3, #262144
 2077 0bd4 E4E7     		b	.L55
 2078              	.L340:
 2079 0bd6 00BF     		.align	2
 2080              	.L339:
 2081 0bd8 10600240 		.word	1073897488
 2082 0bdc 00600240 		.word	1073897472
 2083 0be0 00640240 		.word	1073898496
 2084 0be4 58640240 		.word	1073898584
 2085 0be8 B8600240 		.word	1073897656
 2086 0bec 58600240 		.word	1073897560
 2087              	.L246:
 199:Drivers/STM32F4xx_HAL_Driver/Src/stm32f4xx_hal_dma_ex.c ****     __HAL_DMA_CLEAR_FLAG (hdma, __HAL_DMA_GET_FE_FLAG_INDEX(hdma));
 2088              		.loc 1 199 5 discriminator 125 view .LVU528
 2089 0bf0 4FF48023 		mov	r3, #262144
 2090 0bf4 D4E7     		b	.L55
 2091              	.L54:
 199:Drivers/STM32F4xx_HAL_Driver/Src/stm32f4xx_hal_dma_ex.c ****     __HAL_DMA_CLEAR_FLAG (hdma, __HAL_DMA_GET_FE_FLAG_INDEX(hdma));
 2092              		.loc 1 199 5 discriminator 103 view .LVU529
ARM GAS  C:\Users\hanaj\AppData\Local\Temp\ccO9sAWH.s 			page 52


 2093 0bf6 994A     		ldr	r2, .L341
 2094 0bf8 9342     		cmp	r3, r2
 2095 0bfa 31D0     		beq	.L248
 199:Drivers/STM32F4xx_HAL_Driver/Src/stm32f4xx_hal_dma_ex.c ****     __HAL_DMA_CLEAR_FLAG (hdma, __HAL_DMA_GET_FE_FLAG_INDEX(hdma));
 2096              		.loc 1 199 5 discriminator 153 view .LVU530
 2097 0bfc 02F58062 		add	r2, r2, #1024
 2098 0c00 9342     		cmp	r3, r2
 2099 0c02 31D0     		beq	.L249
 199:Drivers/STM32F4xx_HAL_Driver/Src/stm32f4xx_hal_dma_ex.c ****     __HAL_DMA_CLEAR_FLAG (hdma, __HAL_DMA_GET_FE_FLAG_INDEX(hdma));
 2100              		.loc 1 199 5 discriminator 155 view .LVU531
 2101 0c04 A2F56872 		sub	r2, r2, #928
 2102 0c08 9342     		cmp	r3, r2
 2103 0c0a 2FD0     		beq	.L250
 199:Drivers/STM32F4xx_HAL_Driver/Src/stm32f4xx_hal_dma_ex.c ****     __HAL_DMA_CLEAR_FLAG (hdma, __HAL_DMA_GET_FE_FLAG_INDEX(hdma));
 2104              		.loc 1 199 5 discriminator 157 view .LVU532
 2105 0c0c 02F58062 		add	r2, r2, #1024
 2106 0c10 9342     		cmp	r3, r2
 2107 0c12 2DD0     		beq	.L251
 199:Drivers/STM32F4xx_HAL_Driver/Src/stm32f4xx_hal_dma_ex.c ****     __HAL_DMA_CLEAR_FLAG (hdma, __HAL_DMA_GET_FE_FLAG_INDEX(hdma));
 2108              		.loc 1 199 5 discriminator 159 view .LVU533
 2109 0c14 A2F58962 		sub	r2, r2, #1096
 2110 0c18 9342     		cmp	r3, r2
 2111 0c1a 2BD0     		beq	.L252
 199:Drivers/STM32F4xx_HAL_Driver/Src/stm32f4xx_hal_dma_ex.c ****     __HAL_DMA_CLEAR_FLAG (hdma, __HAL_DMA_GET_FE_FLAG_INDEX(hdma));
 2112              		.loc 1 199 5 discriminator 161 view .LVU534
 2113 0c1c 02F58062 		add	r2, r2, #1024
 2114 0c20 9342     		cmp	r3, r2
 2115 0c22 2AD0     		beq	.L253
 199:Drivers/STM32F4xx_HAL_Driver/Src/stm32f4xx_hal_dma_ex.c ****     __HAL_DMA_CLEAR_FLAG (hdma, __HAL_DMA_GET_FE_FLAG_INDEX(hdma));
 2116              		.loc 1 199 5 discriminator 163 view .LVU535
 2117 0c24 A2F56872 		sub	r2, r2, #928
 2118 0c28 9342     		cmp	r3, r2
 2119 0c2a 29D0     		beq	.L254
 199:Drivers/STM32F4xx_HAL_Driver/Src/stm32f4xx_hal_dma_ex.c ****     __HAL_DMA_CLEAR_FLAG (hdma, __HAL_DMA_GET_FE_FLAG_INDEX(hdma));
 2120              		.loc 1 199 5 discriminator 165 view .LVU536
 2121 0c2c 02F58062 		add	r2, r2, #1024
 2122 0c30 9342     		cmp	r3, r2
 2123 0c32 28D0     		beq	.L255
 199:Drivers/STM32F4xx_HAL_Driver/Src/stm32f4xx_hal_dma_ex.c ****     __HAL_DMA_CLEAR_FLAG (hdma, __HAL_DMA_GET_FE_FLAG_INDEX(hdma));
 2124              		.loc 1 199 5 discriminator 167 view .LVU537
 2125 0c34 A2F58962 		sub	r2, r2, #1096
 2126 0c38 9342     		cmp	r3, r2
 2127 0c3a 27D0     		beq	.L256
 199:Drivers/STM32F4xx_HAL_Driver/Src/stm32f4xx_hal_dma_ex.c ****     __HAL_DMA_CLEAR_FLAG (hdma, __HAL_DMA_GET_FE_FLAG_INDEX(hdma));
 2128              		.loc 1 199 5 discriminator 169 view .LVU538
 2129 0c3c 02F58062 		add	r2, r2, #1024
 2130 0c40 9342     		cmp	r3, r2
 2131 0c42 26D0     		beq	.L257
 199:Drivers/STM32F4xx_HAL_Driver/Src/stm32f4xx_hal_dma_ex.c ****     __HAL_DMA_CLEAR_FLAG (hdma, __HAL_DMA_GET_FE_FLAG_INDEX(hdma));
 2132              		.loc 1 199 5 discriminator 171 view .LVU539
 2133 0c44 A2F56872 		sub	r2, r2, #928
 2134 0c48 9342     		cmp	r3, r2
 2135 0c4a 25D0     		beq	.L258
 199:Drivers/STM32F4xx_HAL_Driver/Src/stm32f4xx_hal_dma_ex.c ****     __HAL_DMA_CLEAR_FLAG (hdma, __HAL_DMA_GET_FE_FLAG_INDEX(hdma));
 2136              		.loc 1 199 5 discriminator 173 view .LVU540
 2137 0c4c 02F58062 		add	r2, r2, #1024
 2138 0c50 9342     		cmp	r3, r2
ARM GAS  C:\Users\hanaj\AppData\Local\Temp\ccO9sAWH.s 			page 53


 2139 0c52 02D0     		beq	.L328
 199:Drivers/STM32F4xx_HAL_Driver/Src/stm32f4xx_hal_dma_ex.c ****     __HAL_DMA_CLEAR_FLAG (hdma, __HAL_DMA_GET_FE_FLAG_INDEX(hdma));
 2140              		.loc 1 199 5 discriminator 176 view .LVU541
 2141 0c54 4FF08073 		mov	r3, #16777216
 2142 0c58 03E0     		b	.L56
 2143              	.L328:
 199:Drivers/STM32F4xx_HAL_Driver/Src/stm32f4xx_hal_dma_ex.c ****     __HAL_DMA_CLEAR_FLAG (hdma, __HAL_DMA_GET_FE_FLAG_INDEX(hdma));
 2144              		.loc 1 199 5 discriminator 175 view .LVU542
 2145 0c5a 4FF48023 		mov	r3, #262144
 2146 0c5e 00E0     		b	.L56
 2147              	.L248:
 199:Drivers/STM32F4xx_HAL_Driver/Src/stm32f4xx_hal_dma_ex.c ****     __HAL_DMA_CLEAR_FLAG (hdma, __HAL_DMA_GET_FE_FLAG_INDEX(hdma));
 2148              		.loc 1 199 5 discriminator 154 view .LVU543
 2149 0c60 0423     		movs	r3, #4
 2150              	.L56:
 199:Drivers/STM32F4xx_HAL_Driver/Src/stm32f4xx_hal_dma_ex.c ****     __HAL_DMA_CLEAR_FLAG (hdma, __HAL_DMA_GET_FE_FLAG_INDEX(hdma));
 2151              		.loc 1 199 5 discriminator 200 view .LVU544
 2152 0c62 7F4A     		ldr	r2, .L341+4
 2153 0c64 9360     		str	r3, [r2, #8]
 2154 0c66 ACE6     		b	.L51
 2155              	.L249:
 199:Drivers/STM32F4xx_HAL_Driver/Src/stm32f4xx_hal_dma_ex.c ****     __HAL_DMA_CLEAR_FLAG (hdma, __HAL_DMA_GET_FE_FLAG_INDEX(hdma));
 2156              		.loc 1 199 5 discriminator 156 view .LVU545
 2157 0c68 0423     		movs	r3, #4
 2158 0c6a FAE7     		b	.L56
 2159              	.L250:
 199:Drivers/STM32F4xx_HAL_Driver/Src/stm32f4xx_hal_dma_ex.c ****     __HAL_DMA_CLEAR_FLAG (hdma, __HAL_DMA_GET_FE_FLAG_INDEX(hdma));
 2160              		.loc 1 199 5 discriminator 158 view .LVU546
 2161 0c6c 0423     		movs	r3, #4
 2162 0c6e F8E7     		b	.L56
 2163              	.L251:
 199:Drivers/STM32F4xx_HAL_Driver/Src/stm32f4xx_hal_dma_ex.c ****     __HAL_DMA_CLEAR_FLAG (hdma, __HAL_DMA_GET_FE_FLAG_INDEX(hdma));
 2164              		.loc 1 199 5 discriminator 160 view .LVU547
 2165 0c70 0423     		movs	r3, #4
 2166 0c72 F6E7     		b	.L56
 2167              	.L252:
 199:Drivers/STM32F4xx_HAL_Driver/Src/stm32f4xx_hal_dma_ex.c ****     __HAL_DMA_CLEAR_FLAG (hdma, __HAL_DMA_GET_FE_FLAG_INDEX(hdma));
 2168              		.loc 1 199 5 discriminator 162 view .LVU548
 2169 0c74 4FF48073 		mov	r3, #256
 2170 0c78 F3E7     		b	.L56
 2171              	.L253:
 199:Drivers/STM32F4xx_HAL_Driver/Src/stm32f4xx_hal_dma_ex.c ****     __HAL_DMA_CLEAR_FLAG (hdma, __HAL_DMA_GET_FE_FLAG_INDEX(hdma));
 2172              		.loc 1 199 5 discriminator 164 view .LVU549
 2173 0c7a 4FF48073 		mov	r3, #256
 2174 0c7e F0E7     		b	.L56
 2175              	.L254:
 199:Drivers/STM32F4xx_HAL_Driver/Src/stm32f4xx_hal_dma_ex.c ****     __HAL_DMA_CLEAR_FLAG (hdma, __HAL_DMA_GET_FE_FLAG_INDEX(hdma));
 2176              		.loc 1 199 5 discriminator 166 view .LVU550
 2177 0c80 4FF48073 		mov	r3, #256
 2178 0c84 EDE7     		b	.L56
 2179              	.L255:
 199:Drivers/STM32F4xx_HAL_Driver/Src/stm32f4xx_hal_dma_ex.c ****     __HAL_DMA_CLEAR_FLAG (hdma, __HAL_DMA_GET_FE_FLAG_INDEX(hdma));
 2180              		.loc 1 199 5 discriminator 168 view .LVU551
 2181 0c86 4FF48073 		mov	r3, #256
 2182 0c8a EAE7     		b	.L56
 2183              	.L256:
 199:Drivers/STM32F4xx_HAL_Driver/Src/stm32f4xx_hal_dma_ex.c ****     __HAL_DMA_CLEAR_FLAG (hdma, __HAL_DMA_GET_FE_FLAG_INDEX(hdma));
ARM GAS  C:\Users\hanaj\AppData\Local\Temp\ccO9sAWH.s 			page 54


 2184              		.loc 1 199 5 discriminator 170 view .LVU552
 2185 0c8c 4FF48023 		mov	r3, #262144
 2186 0c90 E7E7     		b	.L56
 2187              	.L257:
 199:Drivers/STM32F4xx_HAL_Driver/Src/stm32f4xx_hal_dma_ex.c ****     __HAL_DMA_CLEAR_FLAG (hdma, __HAL_DMA_GET_FE_FLAG_INDEX(hdma));
 2188              		.loc 1 199 5 discriminator 172 view .LVU553
 2189 0c92 4FF48023 		mov	r3, #262144
 2190 0c96 E4E7     		b	.L56
 2191              	.L258:
 199:Drivers/STM32F4xx_HAL_Driver/Src/stm32f4xx_hal_dma_ex.c ****     __HAL_DMA_CLEAR_FLAG (hdma, __HAL_DMA_GET_FE_FLAG_INDEX(hdma));
 2192              		.loc 1 199 5 discriminator 174 view .LVU554
 2193 0c98 4FF48023 		mov	r3, #262144
 2194 0c9c E1E7     		b	.L56
 2195              	.L325:
 200:Drivers/STM32F4xx_HAL_Driver/Src/stm32f4xx_hal_dma_ex.c **** 
 2196              		.loc 1 200 5 discriminator 25 view .LVU555
 2197 0c9e 4FF48032 		mov	r2, #65536
 2198 0ca2 00E0     		b	.L58
 2199              	.L260:
 200:Drivers/STM32F4xx_HAL_Driver/Src/stm32f4xx_hal_dma_ex.c **** 
 2200              		.loc 1 200 5 discriminator 4 view .LVU556
 2201 0ca4 0122     		movs	r2, #1
 2202              	.L58:
 200:Drivers/STM32F4xx_HAL_Driver/Src/stm32f4xx_hal_dma_ex.c **** 
 2203              		.loc 1 200 5 discriminator 50 view .LVU557
 2204 0ca6 6F4B     		ldr	r3, .L341+8
 2205 0ca8 DA60     		str	r2, [r3, #12]
 2206              	.L59:
 203:Drivers/STM32F4xx_HAL_Driver/Src/stm32f4xx_hal_dma_ex.c ****     hdma->Instance->FCR |= DMA_IT_FE;
 2207              		.loc 1 203 5 is_stmt 1 view .LVU558
 203:Drivers/STM32F4xx_HAL_Driver/Src/stm32f4xx_hal_dma_ex.c ****     hdma->Instance->FCR |= DMA_IT_FE;
 2208              		.loc 1 203 9 is_stmt 0 view .LVU559
 2209 0caa 2268     		ldr	r2, [r4]
 203:Drivers/STM32F4xx_HAL_Driver/Src/stm32f4xx_hal_dma_ex.c ****     hdma->Instance->FCR |= DMA_IT_FE;
 2210              		.loc 1 203 19 view .LVU560
 2211 0cac 1368     		ldr	r3, [r2]
 203:Drivers/STM32F4xx_HAL_Driver/Src/stm32f4xx_hal_dma_ex.c ****     hdma->Instance->FCR |= DMA_IT_FE;
 2212              		.loc 1 203 25 view .LVU561
 2213 0cae 43F01603 		orr	r3, r3, #22
 2214 0cb2 1360     		str	r3, [r2]
 204:Drivers/STM32F4xx_HAL_Driver/Src/stm32f4xx_hal_dma_ex.c ****     
 2215              		.loc 1 204 5 is_stmt 1 view .LVU562
 204:Drivers/STM32F4xx_HAL_Driver/Src/stm32f4xx_hal_dma_ex.c ****     
 2216              		.loc 1 204 9 is_stmt 0 view .LVU563
 2217 0cb4 2268     		ldr	r2, [r4]
 204:Drivers/STM32F4xx_HAL_Driver/Src/stm32f4xx_hal_dma_ex.c ****     
 2218              		.loc 1 204 19 view .LVU564
 2219 0cb6 5369     		ldr	r3, [r2, #20]
 204:Drivers/STM32F4xx_HAL_Driver/Src/stm32f4xx_hal_dma_ex.c ****     
 2220              		.loc 1 204 25 view .LVU565
 2221 0cb8 43F08003 		orr	r3, r3, #128
 2222 0cbc 5361     		str	r3, [r2, #20]
 206:Drivers/STM32F4xx_HAL_Driver/Src/stm32f4xx_hal_dma_ex.c ****     {
 2223              		.loc 1 206 5 is_stmt 1 view .LVU566
 206:Drivers/STM32F4xx_HAL_Driver/Src/stm32f4xx_hal_dma_ex.c ****     {
 2224              		.loc 1 206 13 is_stmt 0 view .LVU567
 2225 0cbe 236C     		ldr	r3, [r4, #64]
ARM GAS  C:\Users\hanaj\AppData\Local\Temp\ccO9sAWH.s 			page 55


 206:Drivers/STM32F4xx_HAL_Driver/Src/stm32f4xx_hal_dma_ex.c ****     {
 2226              		.loc 1 206 7 view .LVU568
 2227 0cc0 002B     		cmp	r3, #0
 2228 0cc2 00F02581 		beq	.L329
 2229              	.L65:
 208:Drivers/STM32F4xx_HAL_Driver/Src/stm32f4xx_hal_dma_ex.c ****     }
 2230              		.loc 1 208 7 is_stmt 1 view .LVU569
 208:Drivers/STM32F4xx_HAL_Driver/Src/stm32f4xx_hal_dma_ex.c ****     }
 2231              		.loc 1 208 11 is_stmt 0 view .LVU570
 2232 0cc6 2268     		ldr	r2, [r4]
 208:Drivers/STM32F4xx_HAL_Driver/Src/stm32f4xx_hal_dma_ex.c ****     }
 2233              		.loc 1 208 21 view .LVU571
 2234 0cc8 1368     		ldr	r3, [r2]
 208:Drivers/STM32F4xx_HAL_Driver/Src/stm32f4xx_hal_dma_ex.c ****     }
 2235              		.loc 1 208 27 view .LVU572
 2236 0cca 43F00803 		orr	r3, r3, #8
 2237 0cce 1360     		str	r3, [r2]
 2238              	.L66:
 212:Drivers/STM32F4xx_HAL_Driver/Src/stm32f4xx_hal_dma_ex.c ****   }
 2239              		.loc 1 212 5 is_stmt 1 view .LVU573
 2240 0cd0 2268     		ldr	r2, [r4]
 2241 0cd2 1368     		ldr	r3, [r2]
 2242 0cd4 43F00103 		orr	r3, r3, #1
 2243 0cd8 1360     		str	r3, [r2]
 156:Drivers/STM32F4xx_HAL_Driver/Src/stm32f4xx_hal_dma_ex.c ****   
 2244              		.loc 1 156 21 is_stmt 0 view .LVU574
 2245 0cda 0020     		movs	r0, #0
 2246 0cdc FFF7C4B9 		b	.L21
 2247              	.L261:
 200:Drivers/STM32F4xx_HAL_Driver/Src/stm32f4xx_hal_dma_ex.c **** 
 2248              		.loc 1 200 5 discriminator 6 view .LVU575
 2249 0ce0 0122     		movs	r2, #1
 2250 0ce2 E0E7     		b	.L58
 2251              	.L262:
 200:Drivers/STM32F4xx_HAL_Driver/Src/stm32f4xx_hal_dma_ex.c **** 
 2252              		.loc 1 200 5 discriminator 8 view .LVU576
 2253 0ce4 0122     		movs	r2, #1
 2254 0ce6 DEE7     		b	.L58
 2255              	.L263:
 200:Drivers/STM32F4xx_HAL_Driver/Src/stm32f4xx_hal_dma_ex.c **** 
 2256              		.loc 1 200 5 discriminator 10 view .LVU577
 2257 0ce8 0122     		movs	r2, #1
 2258 0cea DCE7     		b	.L58
 2259              	.L264:
 200:Drivers/STM32F4xx_HAL_Driver/Src/stm32f4xx_hal_dma_ex.c **** 
 2260              		.loc 1 200 5 discriminator 12 view .LVU578
 2261 0cec 4022     		movs	r2, #64
 2262 0cee DAE7     		b	.L58
 2263              	.L265:
 200:Drivers/STM32F4xx_HAL_Driver/Src/stm32f4xx_hal_dma_ex.c **** 
 2264              		.loc 1 200 5 discriminator 14 view .LVU579
 2265 0cf0 4022     		movs	r2, #64
 2266 0cf2 D8E7     		b	.L58
 2267              	.L266:
 200:Drivers/STM32F4xx_HAL_Driver/Src/stm32f4xx_hal_dma_ex.c **** 
 2268              		.loc 1 200 5 discriminator 16 view .LVU580
 2269 0cf4 4022     		movs	r2, #64
ARM GAS  C:\Users\hanaj\AppData\Local\Temp\ccO9sAWH.s 			page 56


 2270 0cf6 D6E7     		b	.L58
 2271              	.L267:
 200:Drivers/STM32F4xx_HAL_Driver/Src/stm32f4xx_hal_dma_ex.c **** 
 2272              		.loc 1 200 5 discriminator 18 view .LVU581
 2273 0cf8 4022     		movs	r2, #64
 2274 0cfa D4E7     		b	.L58
 2275              	.L268:
 200:Drivers/STM32F4xx_HAL_Driver/Src/stm32f4xx_hal_dma_ex.c **** 
 2276              		.loc 1 200 5 discriminator 20 view .LVU582
 2277 0cfc 4FF48032 		mov	r2, #65536
 2278 0d00 D1E7     		b	.L58
 2279              	.L269:
 200:Drivers/STM32F4xx_HAL_Driver/Src/stm32f4xx_hal_dma_ex.c **** 
 2280              		.loc 1 200 5 discriminator 22 view .LVU583
 2281 0d02 4FF48032 		mov	r2, #65536
 2282 0d06 CEE7     		b	.L58
 2283              	.L270:
 200:Drivers/STM32F4xx_HAL_Driver/Src/stm32f4xx_hal_dma_ex.c **** 
 2284              		.loc 1 200 5 discriminator 24 view .LVU584
 2285 0d08 4FF48032 		mov	r2, #65536
 2286 0d0c CBE7     		b	.L58
 2287              	.L57:
 200:Drivers/STM32F4xx_HAL_Driver/Src/stm32f4xx_hal_dma_ex.c **** 
 2288              		.loc 1 200 5 discriminator 2 view .LVU585
 2289 0d0e 564A     		ldr	r2, .L341+12
 2290 0d10 9342     		cmp	r3, r2
 2291 0d12 4FD9     		bls	.L60
 200:Drivers/STM32F4xx_HAL_Driver/Src/stm32f4xx_hal_dma_ex.c **** 
 2292              		.loc 1 200 5 discriminator 51 view .LVU586
 2293 0d14 A83A     		subs	r2, r2, #168
 2294 0d16 9342     		cmp	r3, r2
 2295 0d18 31D0     		beq	.L272
 200:Drivers/STM32F4xx_HAL_Driver/Src/stm32f4xx_hal_dma_ex.c **** 
 2296              		.loc 1 200 5 discriminator 53 view .LVU587
 2297 0d1a 02F58062 		add	r2, r2, #1024
 2298 0d1e 9342     		cmp	r3, r2
 2299 0d20 31D0     		beq	.L273
 200:Drivers/STM32F4xx_HAL_Driver/Src/stm32f4xx_hal_dma_ex.c **** 
 2300              		.loc 1 200 5 discriminator 55 view .LVU588
 2301 0d22 A2F56872 		sub	r2, r2, #928
 2302 0d26 9342     		cmp	r3, r2
 2303 0d28 2FD0     		beq	.L274
 200:Drivers/STM32F4xx_HAL_Driver/Src/stm32f4xx_hal_dma_ex.c **** 
 2304              		.loc 1 200 5 discriminator 57 view .LVU589
 2305 0d2a 02F58062 		add	r2, r2, #1024
 2306 0d2e 9342     		cmp	r3, r2
 2307 0d30 2DD0     		beq	.L275
 200:Drivers/STM32F4xx_HAL_Driver/Src/stm32f4xx_hal_dma_ex.c **** 
 2308              		.loc 1 200 5 discriminator 59 view .LVU590
 2309 0d32 A2F58962 		sub	r2, r2, #1096
 2310 0d36 9342     		cmp	r3, r2
 2311 0d38 2BD0     		beq	.L276
 200:Drivers/STM32F4xx_HAL_Driver/Src/stm32f4xx_hal_dma_ex.c **** 
 2312              		.loc 1 200 5 discriminator 61 view .LVU591
 2313 0d3a 02F58062 		add	r2, r2, #1024
 2314 0d3e 9342     		cmp	r3, r2
 2315 0d40 29D0     		beq	.L277
ARM GAS  C:\Users\hanaj\AppData\Local\Temp\ccO9sAWH.s 			page 57


 200:Drivers/STM32F4xx_HAL_Driver/Src/stm32f4xx_hal_dma_ex.c **** 
 2316              		.loc 1 200 5 discriminator 63 view .LVU592
 2317 0d42 A2F56872 		sub	r2, r2, #928
 2318 0d46 9342     		cmp	r3, r2
 2319 0d48 27D0     		beq	.L278
 200:Drivers/STM32F4xx_HAL_Driver/Src/stm32f4xx_hal_dma_ex.c **** 
 2320              		.loc 1 200 5 discriminator 65 view .LVU593
 2321 0d4a 02F58062 		add	r2, r2, #1024
 2322 0d4e 9342     		cmp	r3, r2
 2323 0d50 25D0     		beq	.L279
 200:Drivers/STM32F4xx_HAL_Driver/Src/stm32f4xx_hal_dma_ex.c **** 
 2324              		.loc 1 200 5 discriminator 67 view .LVU594
 2325 0d52 A2F58962 		sub	r2, r2, #1096
 2326 0d56 9342     		cmp	r3, r2
 2327 0d58 23D0     		beq	.L280
 200:Drivers/STM32F4xx_HAL_Driver/Src/stm32f4xx_hal_dma_ex.c **** 
 2328              		.loc 1 200 5 discriminator 69 view .LVU595
 2329 0d5a 02F58062 		add	r2, r2, #1024
 2330 0d5e 9342     		cmp	r3, r2
 2331 0d60 22D0     		beq	.L281
 200:Drivers/STM32F4xx_HAL_Driver/Src/stm32f4xx_hal_dma_ex.c **** 
 2332              		.loc 1 200 5 discriminator 71 view .LVU596
 2333 0d62 A2F56872 		sub	r2, r2, #928
 2334 0d66 9342     		cmp	r3, r2
 2335 0d68 21D0     		beq	.L282
 200:Drivers/STM32F4xx_HAL_Driver/Src/stm32f4xx_hal_dma_ex.c **** 
 2336              		.loc 1 200 5 discriminator 73 view .LVU597
 2337 0d6a 02F58062 		add	r2, r2, #1024
 2338 0d6e 9342     		cmp	r3, r2
 2339 0d70 02D0     		beq	.L330
 200:Drivers/STM32F4xx_HAL_Driver/Src/stm32f4xx_hal_dma_ex.c **** 
 2340              		.loc 1 200 5 discriminator 76 view .LVU598
 2341 0d72 4FF48003 		mov	r3, #4194304
 2342 0d76 03E0     		b	.L61
 2343              	.L330:
 200:Drivers/STM32F4xx_HAL_Driver/Src/stm32f4xx_hal_dma_ex.c **** 
 2344              		.loc 1 200 5 discriminator 75 view .LVU599
 2345 0d78 4FF48033 		mov	r3, #65536
 2346 0d7c 00E0     		b	.L61
 2347              	.L272:
 200:Drivers/STM32F4xx_HAL_Driver/Src/stm32f4xx_hal_dma_ex.c **** 
 2348              		.loc 1 200 5 discriminator 54 view .LVU600
 2349 0d7e 0123     		movs	r3, #1
 2350              	.L61:
 200:Drivers/STM32F4xx_HAL_Driver/Src/stm32f4xx_hal_dma_ex.c **** 
 2351              		.loc 1 200 5 discriminator 100 view .LVU601
 2352 0d80 384A     		ldr	r2, .L341+8
 2353 0d82 9360     		str	r3, [r2, #8]
 2354 0d84 91E7     		b	.L59
 2355              	.L273:
 200:Drivers/STM32F4xx_HAL_Driver/Src/stm32f4xx_hal_dma_ex.c **** 
 2356              		.loc 1 200 5 discriminator 56 view .LVU602
 2357 0d86 0123     		movs	r3, #1
 2358 0d88 FAE7     		b	.L61
 2359              	.L274:
 200:Drivers/STM32F4xx_HAL_Driver/Src/stm32f4xx_hal_dma_ex.c **** 
 2360              		.loc 1 200 5 discriminator 58 view .LVU603
ARM GAS  C:\Users\hanaj\AppData\Local\Temp\ccO9sAWH.s 			page 58


 2361 0d8a 0123     		movs	r3, #1
 2362 0d8c F8E7     		b	.L61
 2363              	.L275:
 200:Drivers/STM32F4xx_HAL_Driver/Src/stm32f4xx_hal_dma_ex.c **** 
 2364              		.loc 1 200 5 discriminator 60 view .LVU604
 2365 0d8e 0123     		movs	r3, #1
 2366 0d90 F6E7     		b	.L61
 2367              	.L276:
 200:Drivers/STM32F4xx_HAL_Driver/Src/stm32f4xx_hal_dma_ex.c **** 
 2368              		.loc 1 200 5 discriminator 62 view .LVU605
 2369 0d92 4023     		movs	r3, #64
 2370 0d94 F4E7     		b	.L61
 2371              	.L277:
 200:Drivers/STM32F4xx_HAL_Driver/Src/stm32f4xx_hal_dma_ex.c **** 
 2372              		.loc 1 200 5 discriminator 64 view .LVU606
 2373 0d96 4023     		movs	r3, #64
 2374 0d98 F2E7     		b	.L61
 2375              	.L278:
 200:Drivers/STM32F4xx_HAL_Driver/Src/stm32f4xx_hal_dma_ex.c **** 
 2376              		.loc 1 200 5 discriminator 66 view .LVU607
 2377 0d9a 4023     		movs	r3, #64
 2378 0d9c F0E7     		b	.L61
 2379              	.L279:
 200:Drivers/STM32F4xx_HAL_Driver/Src/stm32f4xx_hal_dma_ex.c **** 
 2380              		.loc 1 200 5 discriminator 68 view .LVU608
 2381 0d9e 4023     		movs	r3, #64
 2382 0da0 EEE7     		b	.L61
 2383              	.L280:
 200:Drivers/STM32F4xx_HAL_Driver/Src/stm32f4xx_hal_dma_ex.c **** 
 2384              		.loc 1 200 5 discriminator 70 view .LVU609
 2385 0da2 4FF48033 		mov	r3, #65536
 2386 0da6 EBE7     		b	.L61
 2387              	.L281:
 200:Drivers/STM32F4xx_HAL_Driver/Src/stm32f4xx_hal_dma_ex.c **** 
 2388              		.loc 1 200 5 discriminator 72 view .LVU610
 2389 0da8 4FF48033 		mov	r3, #65536
 2390 0dac E8E7     		b	.L61
 2391              	.L282:
 200:Drivers/STM32F4xx_HAL_Driver/Src/stm32f4xx_hal_dma_ex.c **** 
 2392              		.loc 1 200 5 discriminator 74 view .LVU611
 2393 0dae 4FF48033 		mov	r3, #65536
 2394 0db2 E5E7     		b	.L61
 2395              	.L60:
 200:Drivers/STM32F4xx_HAL_Driver/Src/stm32f4xx_hal_dma_ex.c **** 
 2396              		.loc 1 200 5 discriminator 52 view .LVU612
 2397 0db4 2D4A     		ldr	r2, .L341+16
 2398 0db6 9342     		cmp	r3, r2
 2399 0db8 5AD9     		bls	.L62
 200:Drivers/STM32F4xx_HAL_Driver/Src/stm32f4xx_hal_dma_ex.c **** 
 2400              		.loc 1 200 5 discriminator 102 view .LVU613
 2401 0dba 483A     		subs	r2, r2, #72
 2402 0dbc 9342     		cmp	r3, r2
 2403 0dbe 31D0     		beq	.L284
 200:Drivers/STM32F4xx_HAL_Driver/Src/stm32f4xx_hal_dma_ex.c **** 
 2404              		.loc 1 200 5 discriminator 104 view .LVU614
 2405 0dc0 02F58062 		add	r2, r2, #1024
 2406 0dc4 9342     		cmp	r3, r2
ARM GAS  C:\Users\hanaj\AppData\Local\Temp\ccO9sAWH.s 			page 59


 2407 0dc6 31D0     		beq	.L285
 200:Drivers/STM32F4xx_HAL_Driver/Src/stm32f4xx_hal_dma_ex.c **** 
 2408              		.loc 1 200 5 discriminator 106 view .LVU615
 2409 0dc8 A2F56872 		sub	r2, r2, #928
 2410 0dcc 9342     		cmp	r3, r2
 2411 0dce 2FD0     		beq	.L286
 200:Drivers/STM32F4xx_HAL_Driver/Src/stm32f4xx_hal_dma_ex.c **** 
 2412              		.loc 1 200 5 discriminator 108 view .LVU616
 2413 0dd0 02F58062 		add	r2, r2, #1024
 2414 0dd4 9342     		cmp	r3, r2
 2415 0dd6 2DD0     		beq	.L287
 200:Drivers/STM32F4xx_HAL_Driver/Src/stm32f4xx_hal_dma_ex.c **** 
 2416              		.loc 1 200 5 discriminator 110 view .LVU617
 2417 0dd8 A2F58962 		sub	r2, r2, #1096
 2418 0ddc 9342     		cmp	r3, r2
 2419 0dde 2BD0     		beq	.L288
 200:Drivers/STM32F4xx_HAL_Driver/Src/stm32f4xx_hal_dma_ex.c **** 
 2420              		.loc 1 200 5 discriminator 112 view .LVU618
 2421 0de0 02F58062 		add	r2, r2, #1024
 2422 0de4 9342     		cmp	r3, r2
 2423 0de6 29D0     		beq	.L289
 200:Drivers/STM32F4xx_HAL_Driver/Src/stm32f4xx_hal_dma_ex.c **** 
 2424              		.loc 1 200 5 discriminator 114 view .LVU619
 2425 0de8 A2F56872 		sub	r2, r2, #928
 2426 0dec 9342     		cmp	r3, r2
 2427 0dee 27D0     		beq	.L290
 200:Drivers/STM32F4xx_HAL_Driver/Src/stm32f4xx_hal_dma_ex.c **** 
 2428              		.loc 1 200 5 discriminator 116 view .LVU620
 2429 0df0 02F58062 		add	r2, r2, #1024
 2430 0df4 9342     		cmp	r3, r2
 2431 0df6 25D0     		beq	.L291
 200:Drivers/STM32F4xx_HAL_Driver/Src/stm32f4xx_hal_dma_ex.c **** 
 2432              		.loc 1 200 5 discriminator 118 view .LVU621
 2433 0df8 A2F58962 		sub	r2, r2, #1096
 2434 0dfc 9342     		cmp	r3, r2
 2435 0dfe 23D0     		beq	.L292
 200:Drivers/STM32F4xx_HAL_Driver/Src/stm32f4xx_hal_dma_ex.c **** 
 2436              		.loc 1 200 5 discriminator 120 view .LVU622
 2437 0e00 02F58062 		add	r2, r2, #1024
 2438 0e04 9342     		cmp	r3, r2
 2439 0e06 22D0     		beq	.L293
 200:Drivers/STM32F4xx_HAL_Driver/Src/stm32f4xx_hal_dma_ex.c **** 
 2440              		.loc 1 200 5 discriminator 122 view .LVU623
 2441 0e08 A2F56872 		sub	r2, r2, #928
 2442 0e0c 9342     		cmp	r3, r2
 2443 0e0e 21D0     		beq	.L294
 200:Drivers/STM32F4xx_HAL_Driver/Src/stm32f4xx_hal_dma_ex.c **** 
 2444              		.loc 1 200 5 discriminator 124 view .LVU624
 2445 0e10 02F58062 		add	r2, r2, #1024
 2446 0e14 9342     		cmp	r3, r2
 2447 0e16 02D0     		beq	.L331
 200:Drivers/STM32F4xx_HAL_Driver/Src/stm32f4xx_hal_dma_ex.c **** 
 2448              		.loc 1 200 5 discriminator 127 view .LVU625
 2449 0e18 4FF48003 		mov	r3, #4194304
 2450 0e1c 03E0     		b	.L63
 2451              	.L331:
 200:Drivers/STM32F4xx_HAL_Driver/Src/stm32f4xx_hal_dma_ex.c **** 
ARM GAS  C:\Users\hanaj\AppData\Local\Temp\ccO9sAWH.s 			page 60


 2452              		.loc 1 200 5 discriminator 126 view .LVU626
 2453 0e1e 4FF48033 		mov	r3, #65536
 2454 0e22 00E0     		b	.L63
 2455              	.L284:
 200:Drivers/STM32F4xx_HAL_Driver/Src/stm32f4xx_hal_dma_ex.c **** 
 2456              		.loc 1 200 5 discriminator 105 view .LVU627
 2457 0e24 0123     		movs	r3, #1
 2458              	.L63:
 200:Drivers/STM32F4xx_HAL_Driver/Src/stm32f4xx_hal_dma_ex.c **** 
 2459              		.loc 1 200 5 discriminator 151 view .LVU628
 2460 0e26 0E4A     		ldr	r2, .L341+4
 2461 0e28 D360     		str	r3, [r2, #12]
 2462 0e2a 3EE7     		b	.L59
 2463              	.L285:
 200:Drivers/STM32F4xx_HAL_Driver/Src/stm32f4xx_hal_dma_ex.c **** 
 2464              		.loc 1 200 5 discriminator 107 view .LVU629
 2465 0e2c 0123     		movs	r3, #1
 2466 0e2e FAE7     		b	.L63
 2467              	.L286:
 200:Drivers/STM32F4xx_HAL_Driver/Src/stm32f4xx_hal_dma_ex.c **** 
 2468              		.loc 1 200 5 discriminator 109 view .LVU630
 2469 0e30 0123     		movs	r3, #1
 2470 0e32 F8E7     		b	.L63
 2471              	.L287:
 200:Drivers/STM32F4xx_HAL_Driver/Src/stm32f4xx_hal_dma_ex.c **** 
 2472              		.loc 1 200 5 discriminator 111 view .LVU631
 2473 0e34 0123     		movs	r3, #1
 2474 0e36 F6E7     		b	.L63
 2475              	.L288:
 200:Drivers/STM32F4xx_HAL_Driver/Src/stm32f4xx_hal_dma_ex.c **** 
 2476              		.loc 1 200 5 discriminator 113 view .LVU632
 2477 0e38 4023     		movs	r3, #64
 2478 0e3a F4E7     		b	.L63
 2479              	.L289:
 200:Drivers/STM32F4xx_HAL_Driver/Src/stm32f4xx_hal_dma_ex.c **** 
 2480              		.loc 1 200 5 discriminator 115 view .LVU633
 2481 0e3c 4023     		movs	r3, #64
 2482 0e3e F2E7     		b	.L63
 2483              	.L290:
 200:Drivers/STM32F4xx_HAL_Driver/Src/stm32f4xx_hal_dma_ex.c **** 
 2484              		.loc 1 200 5 discriminator 117 view .LVU634
 2485 0e40 4023     		movs	r3, #64
 2486 0e42 F0E7     		b	.L63
 2487              	.L291:
 200:Drivers/STM32F4xx_HAL_Driver/Src/stm32f4xx_hal_dma_ex.c **** 
 2488              		.loc 1 200 5 discriminator 119 view .LVU635
 2489 0e44 4023     		movs	r3, #64
 2490 0e46 EEE7     		b	.L63
 2491              	.L292:
 200:Drivers/STM32F4xx_HAL_Driver/Src/stm32f4xx_hal_dma_ex.c **** 
 2492              		.loc 1 200 5 discriminator 121 view .LVU636
 2493 0e48 4FF48033 		mov	r3, #65536
 2494 0e4c EBE7     		b	.L63
 2495              	.L293:
 200:Drivers/STM32F4xx_HAL_Driver/Src/stm32f4xx_hal_dma_ex.c **** 
 2496              		.loc 1 200 5 discriminator 123 view .LVU637
 2497 0e4e 4FF48033 		mov	r3, #65536
ARM GAS  C:\Users\hanaj\AppData\Local\Temp\ccO9sAWH.s 			page 61


 2498 0e52 E8E7     		b	.L63
 2499              	.L294:
 200:Drivers/STM32F4xx_HAL_Driver/Src/stm32f4xx_hal_dma_ex.c **** 
 2500              		.loc 1 200 5 discriminator 125 view .LVU638
 2501 0e54 4FF48033 		mov	r3, #65536
 2502 0e58 E5E7     		b	.L63
 2503              	.L342:
 2504 0e5a 00BF     		.align	2
 2505              	.L341:
 2506 0e5c 10600240 		.word	1073897488
 2507 0e60 00600240 		.word	1073897472
 2508 0e64 00640240 		.word	1073898496
 2509 0e68 B8600240 		.word	1073897656
 2510 0e6c 58600240 		.word	1073897560
 2511              	.L62:
 200:Drivers/STM32F4xx_HAL_Driver/Src/stm32f4xx_hal_dma_ex.c **** 
 2512              		.loc 1 200 5 discriminator 103 view .LVU639
 2513 0e70 2B4A     		ldr	r2, .L343
 2514 0e72 9342     		cmp	r3, r2
 2515 0e74 31D0     		beq	.L296
 200:Drivers/STM32F4xx_HAL_Driver/Src/stm32f4xx_hal_dma_ex.c **** 
 2516              		.loc 1 200 5 discriminator 153 view .LVU640
 2517 0e76 02F58062 		add	r2, r2, #1024
 2518 0e7a 9342     		cmp	r3, r2
 2519 0e7c 31D0     		beq	.L297
 200:Drivers/STM32F4xx_HAL_Driver/Src/stm32f4xx_hal_dma_ex.c **** 
 2520              		.loc 1 200 5 discriminator 155 view .LVU641
 2521 0e7e A2F56872 		sub	r2, r2, #928
 2522 0e82 9342     		cmp	r3, r2
 2523 0e84 2FD0     		beq	.L298
 200:Drivers/STM32F4xx_HAL_Driver/Src/stm32f4xx_hal_dma_ex.c **** 
 2524              		.loc 1 200 5 discriminator 157 view .LVU642
 2525 0e86 02F58062 		add	r2, r2, #1024
 2526 0e8a 9342     		cmp	r3, r2
 2527 0e8c 2DD0     		beq	.L299
 200:Drivers/STM32F4xx_HAL_Driver/Src/stm32f4xx_hal_dma_ex.c **** 
 2528              		.loc 1 200 5 discriminator 159 view .LVU643
 2529 0e8e A2F58962 		sub	r2, r2, #1096
 2530 0e92 9342     		cmp	r3, r2
 2531 0e94 2BD0     		beq	.L300
 200:Drivers/STM32F4xx_HAL_Driver/Src/stm32f4xx_hal_dma_ex.c **** 
 2532              		.loc 1 200 5 discriminator 161 view .LVU644
 2533 0e96 02F58062 		add	r2, r2, #1024
 2534 0e9a 9342     		cmp	r3, r2
 2535 0e9c 29D0     		beq	.L301
 200:Drivers/STM32F4xx_HAL_Driver/Src/stm32f4xx_hal_dma_ex.c **** 
 2536              		.loc 1 200 5 discriminator 163 view .LVU645
 2537 0e9e A2F56872 		sub	r2, r2, #928
 2538 0ea2 9342     		cmp	r3, r2
 2539 0ea4 27D0     		beq	.L302
 200:Drivers/STM32F4xx_HAL_Driver/Src/stm32f4xx_hal_dma_ex.c **** 
 2540              		.loc 1 200 5 discriminator 165 view .LVU646
 2541 0ea6 02F58062 		add	r2, r2, #1024
 2542 0eaa 9342     		cmp	r3, r2
 2543 0eac 25D0     		beq	.L303
 200:Drivers/STM32F4xx_HAL_Driver/Src/stm32f4xx_hal_dma_ex.c **** 
 2544              		.loc 1 200 5 discriminator 167 view .LVU647
ARM GAS  C:\Users\hanaj\AppData\Local\Temp\ccO9sAWH.s 			page 62


 2545 0eae A2F58962 		sub	r2, r2, #1096
 2546 0eb2 9342     		cmp	r3, r2
 2547 0eb4 23D0     		beq	.L304
 200:Drivers/STM32F4xx_HAL_Driver/Src/stm32f4xx_hal_dma_ex.c **** 
 2548              		.loc 1 200 5 discriminator 169 view .LVU648
 2549 0eb6 02F58062 		add	r2, r2, #1024
 2550 0eba 9342     		cmp	r3, r2
 2551 0ebc 22D0     		beq	.L305
 200:Drivers/STM32F4xx_HAL_Driver/Src/stm32f4xx_hal_dma_ex.c **** 
 2552              		.loc 1 200 5 discriminator 171 view .LVU649
 2553 0ebe A2F56872 		sub	r2, r2, #928
 2554 0ec2 9342     		cmp	r3, r2
 2555 0ec4 21D0     		beq	.L306
 200:Drivers/STM32F4xx_HAL_Driver/Src/stm32f4xx_hal_dma_ex.c **** 
 2556              		.loc 1 200 5 discriminator 173 view .LVU650
 2557 0ec6 02F58062 		add	r2, r2, #1024
 2558 0eca 9342     		cmp	r3, r2
 2559 0ecc 02D0     		beq	.L332
 200:Drivers/STM32F4xx_HAL_Driver/Src/stm32f4xx_hal_dma_ex.c **** 
 2560              		.loc 1 200 5 discriminator 176 view .LVU651
 2561 0ece 4FF48003 		mov	r3, #4194304
 2562 0ed2 03E0     		b	.L64
 2563              	.L332:
 200:Drivers/STM32F4xx_HAL_Driver/Src/stm32f4xx_hal_dma_ex.c **** 
 2564              		.loc 1 200 5 discriminator 175 view .LVU652
 2565 0ed4 4FF48033 		mov	r3, #65536
 2566 0ed8 00E0     		b	.L64
 2567              	.L296:
 200:Drivers/STM32F4xx_HAL_Driver/Src/stm32f4xx_hal_dma_ex.c **** 
 2568              		.loc 1 200 5 discriminator 154 view .LVU653
 2569 0eda 0123     		movs	r3, #1
 2570              	.L64:
 200:Drivers/STM32F4xx_HAL_Driver/Src/stm32f4xx_hal_dma_ex.c **** 
 2571              		.loc 1 200 5 discriminator 200 view .LVU654
 2572 0edc 114A     		ldr	r2, .L343+4
 2573 0ede 9360     		str	r3, [r2, #8]
 2574 0ee0 E3E6     		b	.L59
 2575              	.L297:
 200:Drivers/STM32F4xx_HAL_Driver/Src/stm32f4xx_hal_dma_ex.c **** 
 2576              		.loc 1 200 5 discriminator 156 view .LVU655
 2577 0ee2 0123     		movs	r3, #1
 2578 0ee4 FAE7     		b	.L64
 2579              	.L298:
 200:Drivers/STM32F4xx_HAL_Driver/Src/stm32f4xx_hal_dma_ex.c **** 
 2580              		.loc 1 200 5 discriminator 158 view .LVU656
 2581 0ee6 0123     		movs	r3, #1
 2582 0ee8 F8E7     		b	.L64
 2583              	.L299:
 200:Drivers/STM32F4xx_HAL_Driver/Src/stm32f4xx_hal_dma_ex.c **** 
 2584              		.loc 1 200 5 discriminator 160 view .LVU657
 2585 0eea 0123     		movs	r3, #1
 2586 0eec F6E7     		b	.L64
 2587              	.L300:
 200:Drivers/STM32F4xx_HAL_Driver/Src/stm32f4xx_hal_dma_ex.c **** 
 2588              		.loc 1 200 5 discriminator 162 view .LVU658
 2589 0eee 4023     		movs	r3, #64
 2590 0ef0 F4E7     		b	.L64
ARM GAS  C:\Users\hanaj\AppData\Local\Temp\ccO9sAWH.s 			page 63


 2591              	.L301:
 200:Drivers/STM32F4xx_HAL_Driver/Src/stm32f4xx_hal_dma_ex.c **** 
 2592              		.loc 1 200 5 discriminator 164 view .LVU659
 2593 0ef2 4023     		movs	r3, #64
 2594 0ef4 F2E7     		b	.L64
 2595              	.L302:
 200:Drivers/STM32F4xx_HAL_Driver/Src/stm32f4xx_hal_dma_ex.c **** 
 2596              		.loc 1 200 5 discriminator 166 view .LVU660
 2597 0ef6 4023     		movs	r3, #64
 2598 0ef8 F0E7     		b	.L64
 2599              	.L303:
 200:Drivers/STM32F4xx_HAL_Driver/Src/stm32f4xx_hal_dma_ex.c **** 
 2600              		.loc 1 200 5 discriminator 168 view .LVU661
 2601 0efa 4023     		movs	r3, #64
 2602 0efc EEE7     		b	.L64
 2603              	.L304:
 200:Drivers/STM32F4xx_HAL_Driver/Src/stm32f4xx_hal_dma_ex.c **** 
 2604              		.loc 1 200 5 discriminator 170 view .LVU662
 2605 0efe 4FF48033 		mov	r3, #65536
 2606 0f02 EBE7     		b	.L64
 2607              	.L305:
 200:Drivers/STM32F4xx_HAL_Driver/Src/stm32f4xx_hal_dma_ex.c **** 
 2608              		.loc 1 200 5 discriminator 172 view .LVU663
 2609 0f04 4FF48033 		mov	r3, #65536
 2610 0f08 E8E7     		b	.L64
 2611              	.L306:
 200:Drivers/STM32F4xx_HAL_Driver/Src/stm32f4xx_hal_dma_ex.c **** 
 2612              		.loc 1 200 5 discriminator 174 view .LVU664
 2613 0f0a 4FF48033 		mov	r3, #65536
 2614 0f0e E5E7     		b	.L64
 2615              	.L329:
 206:Drivers/STM32F4xx_HAL_Driver/Src/stm32f4xx_hal_dma_ex.c ****     {
 2616              		.loc 1 206 53 discriminator 1 view .LVU665
 2617 0f10 A36C     		ldr	r3, [r4, #72]
 206:Drivers/STM32F4xx_HAL_Driver/Src/stm32f4xx_hal_dma_ex.c ****     {
 2618              		.loc 1 206 45 discriminator 1 view .LVU666
 2619 0f12 002B     		cmp	r3, #0
 2620 0f14 7FF4D7AE 		bne	.L65
 2621 0f18 DAE6     		b	.L66
 2622              	.LVL39:
 2623              	.L67:
 176:Drivers/STM32F4xx_HAL_Driver/Src/stm32f4xx_hal_dma_ex.c ****   
 2624              		.loc 1 176 3 discriminator 1 view .LVU667
 2625 0f1a 0220     		movs	r0, #2
 2626 0f1c FFF7A4B8 		b	.L21
 2627              	.L344:
 2628              		.align	2
 2629              	.L343:
 2630 0f20 10600240 		.word	1073897488
 2631 0f24 00600240 		.word	1073897472
 2632              		.cfi_endproc
 2633              	.LFE240:
 2635              		.section	.text.HAL_DMAEx_ChangeMemory,"ax",%progbits
 2636              		.align	1
 2637              		.global	HAL_DMAEx_ChangeMemory
 2638              		.syntax unified
 2639              		.thumb
ARM GAS  C:\Users\hanaj\AppData\Local\Temp\ccO9sAWH.s 			page 64


 2640              		.thumb_func
 2642              	HAL_DMAEx_ChangeMemory:
 2643              	.LVL40:
 2644              	.LFB241:
 240:Drivers/STM32F4xx_HAL_Driver/Src/stm32f4xx_hal_dma_ex.c ****   if(memory == MEMORY0)
 2645              		.loc 1 240 1 is_stmt 1 view -0
 2646              		.cfi_startproc
 2647              		@ args = 0, pretend = 0, frame = 0
 2648              		@ frame_needed = 0, uses_anonymous_args = 0
 2649              		@ link register save eliminated.
 241:Drivers/STM32F4xx_HAL_Driver/Src/stm32f4xx_hal_dma_ex.c ****   {
 2650              		.loc 1 241 3 view .LVU669
 241:Drivers/STM32F4xx_HAL_Driver/Src/stm32f4xx_hal_dma_ex.c ****   {
 2651              		.loc 1 241 5 is_stmt 0 view .LVU670
 2652 0000 1AB9     		cbnz	r2, .L346
 244:Drivers/STM32F4xx_HAL_Driver/Src/stm32f4xx_hal_dma_ex.c ****   }
 2653              		.loc 1 244 5 is_stmt 1 view .LVU671
 244:Drivers/STM32F4xx_HAL_Driver/Src/stm32f4xx_hal_dma_ex.c ****   }
 2654              		.loc 1 244 9 is_stmt 0 view .LVU672
 2655 0002 0368     		ldr	r3, [r0]
 244:Drivers/STM32F4xx_HAL_Driver/Src/stm32f4xx_hal_dma_ex.c ****   }
 2656              		.loc 1 244 26 view .LVU673
 2657 0004 D960     		str	r1, [r3, #12]
 2658              	.L347:
 252:Drivers/STM32F4xx_HAL_Driver/Src/stm32f4xx_hal_dma_ex.c **** }
 2659              		.loc 1 252 3 is_stmt 1 view .LVU674
 253:Drivers/STM32F4xx_HAL_Driver/Src/stm32f4xx_hal_dma_ex.c **** 
 2660              		.loc 1 253 1 is_stmt 0 view .LVU675
 2661 0006 0020     		movs	r0, #0
 2662              	.LVL41:
 253:Drivers/STM32F4xx_HAL_Driver/Src/stm32f4xx_hal_dma_ex.c **** 
 2663              		.loc 1 253 1 view .LVU676
 2664 0008 7047     		bx	lr
 2665              	.LVL42:
 2666              	.L346:
 249:Drivers/STM32F4xx_HAL_Driver/Src/stm32f4xx_hal_dma_ex.c ****   }
 2667              		.loc 1 249 5 is_stmt 1 view .LVU677
 249:Drivers/STM32F4xx_HAL_Driver/Src/stm32f4xx_hal_dma_ex.c ****   }
 2668              		.loc 1 249 9 is_stmt 0 view .LVU678
 2669 000a 0368     		ldr	r3, [r0]
 249:Drivers/STM32F4xx_HAL_Driver/Src/stm32f4xx_hal_dma_ex.c ****   }
 2670              		.loc 1 249 26 view .LVU679
 2671 000c 1961     		str	r1, [r3, #16]
 2672 000e FAE7     		b	.L347
 2673              		.cfi_endproc
 2674              	.LFE241:
 2676              		.text
 2677              	.Letext0:
 2678              		.file 2 "C:/Tools/arm-gnu-toolchain/arm-none-eabi/include/machine/_default_types.h"
 2679              		.file 3 "C:/Tools/arm-gnu-toolchain/arm-none-eabi/include/sys/_stdint.h"
 2680              		.file 4 "Drivers/CMSIS/Device/ST/STM32F4xx/Include/stm32f405xx.h"
 2681              		.file 5 "Drivers/STM32F4xx_HAL_Driver/Inc/stm32f4xx_hal_def.h"
 2682              		.file 6 "Drivers/STM32F4xx_HAL_Driver/Inc/stm32f4xx_hal_dma.h"
 2683              		.file 7 "Drivers/STM32F4xx_HAL_Driver/Inc/stm32f4xx_hal_dma_ex.h"
 2684              		.file 8 "Core/Inc/stm32f4xx_hal_conf.h"
ARM GAS  C:\Users\hanaj\AppData\Local\Temp\ccO9sAWH.s 			page 65

