ARM GAS  C:\Users\hanaj\AppData\Local\Temp\ccOrHUbU.s 			page 1


   1              		.cpu cortex-m4
   2              		.arch armv7e-m
   3              		.fpu fpv4-sp-d16
   4              		.eabi_attribute 27, 1
   5              		.eabi_attribute 28, 1
   6              		.eabi_attribute 20, 1
   7              		.eabi_attribute 21, 1
   8              		.eabi_attribute 23, 3
   9              		.eabi_attribute 24, 1
  10              		.eabi_attribute 25, 1
  11              		.eabi_attribute 26, 1
  12              		.eabi_attribute 30, 1
  13              		.eabi_attribute 34, 1
  14              		.eabi_attribute 18, 4
  15              		.file	"stm32f4xx_hal_dma.c"
  16              		.text
  17              	.Ltext0:
  18              		.cfi_sections	.debug_frame
  19              		.file 1 "Drivers/STM32F4xx_HAL_Driver/Src/stm32f4xx_hal_dma.c"
  20              		.section	.text.DMA_SetConfig,"ax",%progbits
  21              		.align	1
  22              		.syntax unified
  23              		.thumb
  24              		.thumb_func
  26              	DMA_SetConfig:
  27              	.LVL0:
  28              	.LFB251:
   1:Drivers/STM32F4xx_HAL_Driver/Src/stm32f4xx_hal_dma.c **** /**
   2:Drivers/STM32F4xx_HAL_Driver/Src/stm32f4xx_hal_dma.c ****   ******************************************************************************
   3:Drivers/STM32F4xx_HAL_Driver/Src/stm32f4xx_hal_dma.c ****   * @file    stm32f4xx_hal_dma.c
   4:Drivers/STM32F4xx_HAL_Driver/Src/stm32f4xx_hal_dma.c ****   * @author  MCD Application Team
   5:Drivers/STM32F4xx_HAL_Driver/Src/stm32f4xx_hal_dma.c ****   * @brief   DMA HAL module driver.
   6:Drivers/STM32F4xx_HAL_Driver/Src/stm32f4xx_hal_dma.c ****   *    
   7:Drivers/STM32F4xx_HAL_Driver/Src/stm32f4xx_hal_dma.c ****   *          This file provides firmware functions to manage the following 
   8:Drivers/STM32F4xx_HAL_Driver/Src/stm32f4xx_hal_dma.c ****   *          functionalities of the Direct Memory Access (DMA) peripheral:
   9:Drivers/STM32F4xx_HAL_Driver/Src/stm32f4xx_hal_dma.c ****   *           + Initialization and de-initialization functions
  10:Drivers/STM32F4xx_HAL_Driver/Src/stm32f4xx_hal_dma.c ****   *           + IO operation functions
  11:Drivers/STM32F4xx_HAL_Driver/Src/stm32f4xx_hal_dma.c ****   *           + Peripheral State and errors functions
  12:Drivers/STM32F4xx_HAL_Driver/Src/stm32f4xx_hal_dma.c ****   @verbatim     
  13:Drivers/STM32F4xx_HAL_Driver/Src/stm32f4xx_hal_dma.c ****   ==============================================================================
  14:Drivers/STM32F4xx_HAL_Driver/Src/stm32f4xx_hal_dma.c ****                         ##### How to use this driver #####
  15:Drivers/STM32F4xx_HAL_Driver/Src/stm32f4xx_hal_dma.c ****   ==============================================================================
  16:Drivers/STM32F4xx_HAL_Driver/Src/stm32f4xx_hal_dma.c ****   [..]
  17:Drivers/STM32F4xx_HAL_Driver/Src/stm32f4xx_hal_dma.c ****    (#) Enable and configure the peripheral to be connected to the DMA Stream
  18:Drivers/STM32F4xx_HAL_Driver/Src/stm32f4xx_hal_dma.c ****        (except for internal SRAM/FLASH memories: no initialization is 
  19:Drivers/STM32F4xx_HAL_Driver/Src/stm32f4xx_hal_dma.c ****        necessary) please refer to Reference manual for connection between peripherals
  20:Drivers/STM32F4xx_HAL_Driver/Src/stm32f4xx_hal_dma.c ****        and DMA requests.
  21:Drivers/STM32F4xx_HAL_Driver/Src/stm32f4xx_hal_dma.c **** 
  22:Drivers/STM32F4xx_HAL_Driver/Src/stm32f4xx_hal_dma.c ****    (#) For a given Stream, program the required configuration through the following parameters:
  23:Drivers/STM32F4xx_HAL_Driver/Src/stm32f4xx_hal_dma.c ****        Transfer Direction, Source and Destination data formats, 
  24:Drivers/STM32F4xx_HAL_Driver/Src/stm32f4xx_hal_dma.c ****        Circular, Normal or peripheral flow control mode, Stream Priority level, 
  25:Drivers/STM32F4xx_HAL_Driver/Src/stm32f4xx_hal_dma.c ****        Source and Destination Increment mode, FIFO mode and its Threshold (if needed), 
  26:Drivers/STM32F4xx_HAL_Driver/Src/stm32f4xx_hal_dma.c ****        Burst mode for Source and/or Destination (if needed) using HAL_DMA_Init() function.
  27:Drivers/STM32F4xx_HAL_Driver/Src/stm32f4xx_hal_dma.c **** 
  28:Drivers/STM32F4xx_HAL_Driver/Src/stm32f4xx_hal_dma.c ****    -@-   Prior to HAL_DMA_Init() the clock must be enabled for DMA through the following macros:
  29:Drivers/STM32F4xx_HAL_Driver/Src/stm32f4xx_hal_dma.c ****          __HAL_RCC_DMA1_CLK_ENABLE() or __HAL_RCC_DMA2_CLK_ENABLE().
  30:Drivers/STM32F4xx_HAL_Driver/Src/stm32f4xx_hal_dma.c **** 
ARM GAS  C:\Users\hanaj\AppData\Local\Temp\ccOrHUbU.s 			page 2


  31:Drivers/STM32F4xx_HAL_Driver/Src/stm32f4xx_hal_dma.c ****      *** Polling mode IO operation ***
  32:Drivers/STM32F4xx_HAL_Driver/Src/stm32f4xx_hal_dma.c ****      =================================
  33:Drivers/STM32F4xx_HAL_Driver/Src/stm32f4xx_hal_dma.c ****     [..]
  34:Drivers/STM32F4xx_HAL_Driver/Src/stm32f4xx_hal_dma.c ****           (+) Use HAL_DMA_Start() to start DMA transfer after the configuration of Source 
  35:Drivers/STM32F4xx_HAL_Driver/Src/stm32f4xx_hal_dma.c ****               address and destination address and the Length of data to be transferred.
  36:Drivers/STM32F4xx_HAL_Driver/Src/stm32f4xx_hal_dma.c ****           (+) Use HAL_DMA_PollForTransfer() to poll for the end of current transfer, in this  
  37:Drivers/STM32F4xx_HAL_Driver/Src/stm32f4xx_hal_dma.c ****               case a fixed Timeout can be configured by User depending from his application.
  38:Drivers/STM32F4xx_HAL_Driver/Src/stm32f4xx_hal_dma.c ****           (+) Use HAL_DMA_Abort() function to abort the current transfer.
  39:Drivers/STM32F4xx_HAL_Driver/Src/stm32f4xx_hal_dma.c **** 
  40:Drivers/STM32F4xx_HAL_Driver/Src/stm32f4xx_hal_dma.c ****      *** Interrupt mode IO operation ***
  41:Drivers/STM32F4xx_HAL_Driver/Src/stm32f4xx_hal_dma.c ****      ===================================
  42:Drivers/STM32F4xx_HAL_Driver/Src/stm32f4xx_hal_dma.c ****     [..]
  43:Drivers/STM32F4xx_HAL_Driver/Src/stm32f4xx_hal_dma.c ****           (+) Configure the DMA interrupt priority using HAL_NVIC_SetPriority()
  44:Drivers/STM32F4xx_HAL_Driver/Src/stm32f4xx_hal_dma.c ****           (+) Enable the DMA IRQ handler using HAL_NVIC_EnableIRQ() 
  45:Drivers/STM32F4xx_HAL_Driver/Src/stm32f4xx_hal_dma.c ****           (+) Use HAL_DMA_Start_IT() to start DMA transfer after the configuration of  
  46:Drivers/STM32F4xx_HAL_Driver/Src/stm32f4xx_hal_dma.c ****               Source address and destination address and the Length of data to be transferred. In t
  47:Drivers/STM32F4xx_HAL_Driver/Src/stm32f4xx_hal_dma.c ****               case the DMA interrupt is configured 
  48:Drivers/STM32F4xx_HAL_Driver/Src/stm32f4xx_hal_dma.c ****           (+) Use HAL_DMA_IRQHandler() called under DMA_IRQHandler() Interrupt subroutine
  49:Drivers/STM32F4xx_HAL_Driver/Src/stm32f4xx_hal_dma.c ****           (+) At the end of data transfer HAL_DMA_IRQHandler() function is executed and user can 
  50:Drivers/STM32F4xx_HAL_Driver/Src/stm32f4xx_hal_dma.c ****               add his own function by customization of function pointer XferCpltCallback and 
  51:Drivers/STM32F4xx_HAL_Driver/Src/stm32f4xx_hal_dma.c ****               XferErrorCallback (i.e a member of DMA handle structure).
  52:Drivers/STM32F4xx_HAL_Driver/Src/stm32f4xx_hal_dma.c ****     [..]
  53:Drivers/STM32F4xx_HAL_Driver/Src/stm32f4xx_hal_dma.c ****      (#) Use HAL_DMA_GetState() function to return the DMA state and HAL_DMA_GetError() in case of 
  54:Drivers/STM32F4xx_HAL_Driver/Src/stm32f4xx_hal_dma.c ****          detection.
  55:Drivers/STM32F4xx_HAL_Driver/Src/stm32f4xx_hal_dma.c **** 
  56:Drivers/STM32F4xx_HAL_Driver/Src/stm32f4xx_hal_dma.c ****      (#) Use HAL_DMA_Abort_IT() function to abort the current transfer
  57:Drivers/STM32F4xx_HAL_Driver/Src/stm32f4xx_hal_dma.c **** 
  58:Drivers/STM32F4xx_HAL_Driver/Src/stm32f4xx_hal_dma.c ****      -@-   In Memory-to-Memory transfer mode, Circular mode is not allowed.
  59:Drivers/STM32F4xx_HAL_Driver/Src/stm32f4xx_hal_dma.c **** 
  60:Drivers/STM32F4xx_HAL_Driver/Src/stm32f4xx_hal_dma.c ****      -@-   The FIFO is used mainly to reduce bus usage and to allow data packing/unpacking: it is
  61:Drivers/STM32F4xx_HAL_Driver/Src/stm32f4xx_hal_dma.c ****            possible to set different Data Sizes for the Peripheral and the Memory (ie. you can set
  62:Drivers/STM32F4xx_HAL_Driver/Src/stm32f4xx_hal_dma.c ****            Half-Word data size for the peripheral to access its data register and set Word data siz
  63:Drivers/STM32F4xx_HAL_Driver/Src/stm32f4xx_hal_dma.c ****            for the Memory to gain in access time. Each two half words will be packed and written in
  64:Drivers/STM32F4xx_HAL_Driver/Src/stm32f4xx_hal_dma.c ****            a single access to a Word in the Memory).
  65:Drivers/STM32F4xx_HAL_Driver/Src/stm32f4xx_hal_dma.c **** 
  66:Drivers/STM32F4xx_HAL_Driver/Src/stm32f4xx_hal_dma.c ****      -@-   When FIFO is disabled, it is not allowed to configure different Data Sizes for Source
  67:Drivers/STM32F4xx_HAL_Driver/Src/stm32f4xx_hal_dma.c ****            and Destination. In this case the Peripheral Data Size will be applied to both Source
  68:Drivers/STM32F4xx_HAL_Driver/Src/stm32f4xx_hal_dma.c ****            and Destination.
  69:Drivers/STM32F4xx_HAL_Driver/Src/stm32f4xx_hal_dma.c **** 
  70:Drivers/STM32F4xx_HAL_Driver/Src/stm32f4xx_hal_dma.c ****      *** DMA HAL driver macros list ***
  71:Drivers/STM32F4xx_HAL_Driver/Src/stm32f4xx_hal_dma.c ****      =============================================
  72:Drivers/STM32F4xx_HAL_Driver/Src/stm32f4xx_hal_dma.c ****      [..]
  73:Drivers/STM32F4xx_HAL_Driver/Src/stm32f4xx_hal_dma.c ****        Below the list of most used macros in DMA HAL driver.
  74:Drivers/STM32F4xx_HAL_Driver/Src/stm32f4xx_hal_dma.c ****        
  75:Drivers/STM32F4xx_HAL_Driver/Src/stm32f4xx_hal_dma.c ****       (+) __HAL_DMA_ENABLE: Enable the specified DMA Stream.
  76:Drivers/STM32F4xx_HAL_Driver/Src/stm32f4xx_hal_dma.c ****       (+) __HAL_DMA_DISABLE: Disable the specified DMA Stream.
  77:Drivers/STM32F4xx_HAL_Driver/Src/stm32f4xx_hal_dma.c ****       (+) __HAL_DMA_GET_IT_SOURCE: Check whether the specified DMA Stream interrupt has occurred or
  78:Drivers/STM32F4xx_HAL_Driver/Src/stm32f4xx_hal_dma.c **** 
  79:Drivers/STM32F4xx_HAL_Driver/Src/stm32f4xx_hal_dma.c ****      [..]
  80:Drivers/STM32F4xx_HAL_Driver/Src/stm32f4xx_hal_dma.c ****       (@) You can refer to the DMA HAL driver header file for more useful macros
  81:Drivers/STM32F4xx_HAL_Driver/Src/stm32f4xx_hal_dma.c **** 
  82:Drivers/STM32F4xx_HAL_Driver/Src/stm32f4xx_hal_dma.c ****   @endverbatim
  83:Drivers/STM32F4xx_HAL_Driver/Src/stm32f4xx_hal_dma.c ****   ******************************************************************************
  84:Drivers/STM32F4xx_HAL_Driver/Src/stm32f4xx_hal_dma.c ****   * @attention
  85:Drivers/STM32F4xx_HAL_Driver/Src/stm32f4xx_hal_dma.c ****   *
  86:Drivers/STM32F4xx_HAL_Driver/Src/stm32f4xx_hal_dma.c ****   * Copyright (c) 2017 STMicroelectronics.
  87:Drivers/STM32F4xx_HAL_Driver/Src/stm32f4xx_hal_dma.c ****   * All rights reserved.
ARM GAS  C:\Users\hanaj\AppData\Local\Temp\ccOrHUbU.s 			page 3


  88:Drivers/STM32F4xx_HAL_Driver/Src/stm32f4xx_hal_dma.c ****   *
  89:Drivers/STM32F4xx_HAL_Driver/Src/stm32f4xx_hal_dma.c ****   * This software is licensed under terms that can be found in the LICENSE file in
  90:Drivers/STM32F4xx_HAL_Driver/Src/stm32f4xx_hal_dma.c ****   * the root directory of this software component.
  91:Drivers/STM32F4xx_HAL_Driver/Src/stm32f4xx_hal_dma.c ****   * If no LICENSE file comes with this software, it is provided AS-IS.
  92:Drivers/STM32F4xx_HAL_Driver/Src/stm32f4xx_hal_dma.c ****   *
  93:Drivers/STM32F4xx_HAL_Driver/Src/stm32f4xx_hal_dma.c ****   ******************************************************************************
  94:Drivers/STM32F4xx_HAL_Driver/Src/stm32f4xx_hal_dma.c ****   */ 
  95:Drivers/STM32F4xx_HAL_Driver/Src/stm32f4xx_hal_dma.c **** 
  96:Drivers/STM32F4xx_HAL_Driver/Src/stm32f4xx_hal_dma.c **** /* Includes ------------------------------------------------------------------*/
  97:Drivers/STM32F4xx_HAL_Driver/Src/stm32f4xx_hal_dma.c **** #include "stm32f4xx_hal.h"
  98:Drivers/STM32F4xx_HAL_Driver/Src/stm32f4xx_hal_dma.c **** 
  99:Drivers/STM32F4xx_HAL_Driver/Src/stm32f4xx_hal_dma.c **** /** @addtogroup STM32F4xx_HAL_Driver
 100:Drivers/STM32F4xx_HAL_Driver/Src/stm32f4xx_hal_dma.c ****   * @{
 101:Drivers/STM32F4xx_HAL_Driver/Src/stm32f4xx_hal_dma.c ****   */
 102:Drivers/STM32F4xx_HAL_Driver/Src/stm32f4xx_hal_dma.c **** 
 103:Drivers/STM32F4xx_HAL_Driver/Src/stm32f4xx_hal_dma.c **** /** @defgroup DMA DMA
 104:Drivers/STM32F4xx_HAL_Driver/Src/stm32f4xx_hal_dma.c ****   * @brief DMA HAL module driver
 105:Drivers/STM32F4xx_HAL_Driver/Src/stm32f4xx_hal_dma.c ****   * @{
 106:Drivers/STM32F4xx_HAL_Driver/Src/stm32f4xx_hal_dma.c ****   */
 107:Drivers/STM32F4xx_HAL_Driver/Src/stm32f4xx_hal_dma.c **** 
 108:Drivers/STM32F4xx_HAL_Driver/Src/stm32f4xx_hal_dma.c **** #ifdef HAL_DMA_MODULE_ENABLED
 109:Drivers/STM32F4xx_HAL_Driver/Src/stm32f4xx_hal_dma.c **** 
 110:Drivers/STM32F4xx_HAL_Driver/Src/stm32f4xx_hal_dma.c **** /* Private types -------------------------------------------------------------*/
 111:Drivers/STM32F4xx_HAL_Driver/Src/stm32f4xx_hal_dma.c **** typedef struct
 112:Drivers/STM32F4xx_HAL_Driver/Src/stm32f4xx_hal_dma.c **** {
 113:Drivers/STM32F4xx_HAL_Driver/Src/stm32f4xx_hal_dma.c ****   __IO uint32_t ISR;   /*!< DMA interrupt status register */
 114:Drivers/STM32F4xx_HAL_Driver/Src/stm32f4xx_hal_dma.c ****   __IO uint32_t Reserved0;
 115:Drivers/STM32F4xx_HAL_Driver/Src/stm32f4xx_hal_dma.c ****   __IO uint32_t IFCR;  /*!< DMA interrupt flag clear register */
 116:Drivers/STM32F4xx_HAL_Driver/Src/stm32f4xx_hal_dma.c **** } DMA_Base_Registers;
 117:Drivers/STM32F4xx_HAL_Driver/Src/stm32f4xx_hal_dma.c **** 
 118:Drivers/STM32F4xx_HAL_Driver/Src/stm32f4xx_hal_dma.c **** /* Private variables ---------------------------------------------------------*/
 119:Drivers/STM32F4xx_HAL_Driver/Src/stm32f4xx_hal_dma.c **** /* Private constants ---------------------------------------------------------*/
 120:Drivers/STM32F4xx_HAL_Driver/Src/stm32f4xx_hal_dma.c **** /** @addtogroup DMA_Private_Constants
 121:Drivers/STM32F4xx_HAL_Driver/Src/stm32f4xx_hal_dma.c ****  * @{
 122:Drivers/STM32F4xx_HAL_Driver/Src/stm32f4xx_hal_dma.c ****  */
 123:Drivers/STM32F4xx_HAL_Driver/Src/stm32f4xx_hal_dma.c ****  #define HAL_TIMEOUT_DMA_ABORT    5U  /* 5 ms */
 124:Drivers/STM32F4xx_HAL_Driver/Src/stm32f4xx_hal_dma.c **** /**
 125:Drivers/STM32F4xx_HAL_Driver/Src/stm32f4xx_hal_dma.c ****   * @}
 126:Drivers/STM32F4xx_HAL_Driver/Src/stm32f4xx_hal_dma.c ****   */
 127:Drivers/STM32F4xx_HAL_Driver/Src/stm32f4xx_hal_dma.c **** /* Private macros ------------------------------------------------------------*/
 128:Drivers/STM32F4xx_HAL_Driver/Src/stm32f4xx_hal_dma.c **** /* Private functions ---------------------------------------------------------*/
 129:Drivers/STM32F4xx_HAL_Driver/Src/stm32f4xx_hal_dma.c **** /** @addtogroup DMA_Private_Functions
 130:Drivers/STM32F4xx_HAL_Driver/Src/stm32f4xx_hal_dma.c ****   * @{
 131:Drivers/STM32F4xx_HAL_Driver/Src/stm32f4xx_hal_dma.c ****   */
 132:Drivers/STM32F4xx_HAL_Driver/Src/stm32f4xx_hal_dma.c **** static void DMA_SetConfig(DMA_HandleTypeDef *hdma, uint32_t SrcAddress, uint32_t DstAddress, uint32
 133:Drivers/STM32F4xx_HAL_Driver/Src/stm32f4xx_hal_dma.c **** static uint32_t DMA_CalcBaseAndBitshift(DMA_HandleTypeDef *hdma);
 134:Drivers/STM32F4xx_HAL_Driver/Src/stm32f4xx_hal_dma.c **** static HAL_StatusTypeDef DMA_CheckFifoParam(DMA_HandleTypeDef *hdma);
 135:Drivers/STM32F4xx_HAL_Driver/Src/stm32f4xx_hal_dma.c **** 
 136:Drivers/STM32F4xx_HAL_Driver/Src/stm32f4xx_hal_dma.c **** /**
 137:Drivers/STM32F4xx_HAL_Driver/Src/stm32f4xx_hal_dma.c ****   * @}
 138:Drivers/STM32F4xx_HAL_Driver/Src/stm32f4xx_hal_dma.c ****   */  
 139:Drivers/STM32F4xx_HAL_Driver/Src/stm32f4xx_hal_dma.c **** 
 140:Drivers/STM32F4xx_HAL_Driver/Src/stm32f4xx_hal_dma.c **** /* Exported functions ---------------------------------------------------------*/
 141:Drivers/STM32F4xx_HAL_Driver/Src/stm32f4xx_hal_dma.c **** /** @addtogroup DMA_Exported_Functions
 142:Drivers/STM32F4xx_HAL_Driver/Src/stm32f4xx_hal_dma.c ****   * @{
 143:Drivers/STM32F4xx_HAL_Driver/Src/stm32f4xx_hal_dma.c ****   */
 144:Drivers/STM32F4xx_HAL_Driver/Src/stm32f4xx_hal_dma.c **** 
ARM GAS  C:\Users\hanaj\AppData\Local\Temp\ccOrHUbU.s 			page 4


 145:Drivers/STM32F4xx_HAL_Driver/Src/stm32f4xx_hal_dma.c **** /** @addtogroup DMA_Exported_Functions_Group1
 146:Drivers/STM32F4xx_HAL_Driver/Src/stm32f4xx_hal_dma.c ****   *
 147:Drivers/STM32F4xx_HAL_Driver/Src/stm32f4xx_hal_dma.c **** @verbatim
 148:Drivers/STM32F4xx_HAL_Driver/Src/stm32f4xx_hal_dma.c ****  ===============================================================================
 149:Drivers/STM32F4xx_HAL_Driver/Src/stm32f4xx_hal_dma.c ****              ##### Initialization and de-initialization functions  #####
 150:Drivers/STM32F4xx_HAL_Driver/Src/stm32f4xx_hal_dma.c ****  ===============================================================================
 151:Drivers/STM32F4xx_HAL_Driver/Src/stm32f4xx_hal_dma.c ****     [..]
 152:Drivers/STM32F4xx_HAL_Driver/Src/stm32f4xx_hal_dma.c ****     This section provides functions allowing to initialize the DMA Stream source
 153:Drivers/STM32F4xx_HAL_Driver/Src/stm32f4xx_hal_dma.c ****     and destination addresses, incrementation and data sizes, transfer direction, 
 154:Drivers/STM32F4xx_HAL_Driver/Src/stm32f4xx_hal_dma.c ****     circular/normal mode selection, memory-to-memory mode selection and Stream priority value.
 155:Drivers/STM32F4xx_HAL_Driver/Src/stm32f4xx_hal_dma.c ****     [..]
 156:Drivers/STM32F4xx_HAL_Driver/Src/stm32f4xx_hal_dma.c ****     The HAL_DMA_Init() function follows the DMA configuration procedures as described in
 157:Drivers/STM32F4xx_HAL_Driver/Src/stm32f4xx_hal_dma.c ****     reference manual.
 158:Drivers/STM32F4xx_HAL_Driver/Src/stm32f4xx_hal_dma.c **** 
 159:Drivers/STM32F4xx_HAL_Driver/Src/stm32f4xx_hal_dma.c **** @endverbatim
 160:Drivers/STM32F4xx_HAL_Driver/Src/stm32f4xx_hal_dma.c ****   * @{
 161:Drivers/STM32F4xx_HAL_Driver/Src/stm32f4xx_hal_dma.c ****   */
 162:Drivers/STM32F4xx_HAL_Driver/Src/stm32f4xx_hal_dma.c ****   
 163:Drivers/STM32F4xx_HAL_Driver/Src/stm32f4xx_hal_dma.c **** /**
 164:Drivers/STM32F4xx_HAL_Driver/Src/stm32f4xx_hal_dma.c ****   * @brief  Initialize the DMA according to the specified
 165:Drivers/STM32F4xx_HAL_Driver/Src/stm32f4xx_hal_dma.c ****   *         parameters in the DMA_InitTypeDef and create the associated handle.
 166:Drivers/STM32F4xx_HAL_Driver/Src/stm32f4xx_hal_dma.c ****   * @param  hdma Pointer to a DMA_HandleTypeDef structure that contains
 167:Drivers/STM32F4xx_HAL_Driver/Src/stm32f4xx_hal_dma.c ****   *               the configuration information for the specified DMA Stream.  
 168:Drivers/STM32F4xx_HAL_Driver/Src/stm32f4xx_hal_dma.c ****   * @retval HAL status
 169:Drivers/STM32F4xx_HAL_Driver/Src/stm32f4xx_hal_dma.c ****   */
 170:Drivers/STM32F4xx_HAL_Driver/Src/stm32f4xx_hal_dma.c **** HAL_StatusTypeDef HAL_DMA_Init(DMA_HandleTypeDef *hdma)
 171:Drivers/STM32F4xx_HAL_Driver/Src/stm32f4xx_hal_dma.c **** {
 172:Drivers/STM32F4xx_HAL_Driver/Src/stm32f4xx_hal_dma.c ****   uint32_t tmp = 0U;
 173:Drivers/STM32F4xx_HAL_Driver/Src/stm32f4xx_hal_dma.c ****   uint32_t tickstart = HAL_GetTick();
 174:Drivers/STM32F4xx_HAL_Driver/Src/stm32f4xx_hal_dma.c ****   DMA_Base_Registers *regs;
 175:Drivers/STM32F4xx_HAL_Driver/Src/stm32f4xx_hal_dma.c **** 
 176:Drivers/STM32F4xx_HAL_Driver/Src/stm32f4xx_hal_dma.c ****   /* Check the DMA peripheral state */
 177:Drivers/STM32F4xx_HAL_Driver/Src/stm32f4xx_hal_dma.c ****   if(hdma == NULL)
 178:Drivers/STM32F4xx_HAL_Driver/Src/stm32f4xx_hal_dma.c ****   {
 179:Drivers/STM32F4xx_HAL_Driver/Src/stm32f4xx_hal_dma.c ****     return HAL_ERROR;
 180:Drivers/STM32F4xx_HAL_Driver/Src/stm32f4xx_hal_dma.c ****   }
 181:Drivers/STM32F4xx_HAL_Driver/Src/stm32f4xx_hal_dma.c **** 
 182:Drivers/STM32F4xx_HAL_Driver/Src/stm32f4xx_hal_dma.c ****   /* Check the parameters */
 183:Drivers/STM32F4xx_HAL_Driver/Src/stm32f4xx_hal_dma.c ****   assert_param(IS_DMA_STREAM_ALL_INSTANCE(hdma->Instance));
 184:Drivers/STM32F4xx_HAL_Driver/Src/stm32f4xx_hal_dma.c ****   assert_param(IS_DMA_CHANNEL(hdma->Init.Channel));
 185:Drivers/STM32F4xx_HAL_Driver/Src/stm32f4xx_hal_dma.c ****   assert_param(IS_DMA_DIRECTION(hdma->Init.Direction));
 186:Drivers/STM32F4xx_HAL_Driver/Src/stm32f4xx_hal_dma.c ****   assert_param(IS_DMA_PERIPHERAL_INC_STATE(hdma->Init.PeriphInc));
 187:Drivers/STM32F4xx_HAL_Driver/Src/stm32f4xx_hal_dma.c ****   assert_param(IS_DMA_MEMORY_INC_STATE(hdma->Init.MemInc));
 188:Drivers/STM32F4xx_HAL_Driver/Src/stm32f4xx_hal_dma.c ****   assert_param(IS_DMA_PERIPHERAL_DATA_SIZE(hdma->Init.PeriphDataAlignment));
 189:Drivers/STM32F4xx_HAL_Driver/Src/stm32f4xx_hal_dma.c ****   assert_param(IS_DMA_MEMORY_DATA_SIZE(hdma->Init.MemDataAlignment));
 190:Drivers/STM32F4xx_HAL_Driver/Src/stm32f4xx_hal_dma.c ****   assert_param(IS_DMA_MODE(hdma->Init.Mode));
 191:Drivers/STM32F4xx_HAL_Driver/Src/stm32f4xx_hal_dma.c ****   assert_param(IS_DMA_PRIORITY(hdma->Init.Priority));
 192:Drivers/STM32F4xx_HAL_Driver/Src/stm32f4xx_hal_dma.c ****   assert_param(IS_DMA_FIFO_MODE_STATE(hdma->Init.FIFOMode));
 193:Drivers/STM32F4xx_HAL_Driver/Src/stm32f4xx_hal_dma.c ****   /* Check the memory burst, peripheral burst and FIFO threshold parameters only
 194:Drivers/STM32F4xx_HAL_Driver/Src/stm32f4xx_hal_dma.c ****      when FIFO mode is enabled */
 195:Drivers/STM32F4xx_HAL_Driver/Src/stm32f4xx_hal_dma.c ****   if(hdma->Init.FIFOMode != DMA_FIFOMODE_DISABLE)
 196:Drivers/STM32F4xx_HAL_Driver/Src/stm32f4xx_hal_dma.c ****   {
 197:Drivers/STM32F4xx_HAL_Driver/Src/stm32f4xx_hal_dma.c ****     assert_param(IS_DMA_FIFO_THRESHOLD(hdma->Init.FIFOThreshold));
 198:Drivers/STM32F4xx_HAL_Driver/Src/stm32f4xx_hal_dma.c ****     assert_param(IS_DMA_MEMORY_BURST(hdma->Init.MemBurst));
 199:Drivers/STM32F4xx_HAL_Driver/Src/stm32f4xx_hal_dma.c ****     assert_param(IS_DMA_PERIPHERAL_BURST(hdma->Init.PeriphBurst));
 200:Drivers/STM32F4xx_HAL_Driver/Src/stm32f4xx_hal_dma.c ****   }
 201:Drivers/STM32F4xx_HAL_Driver/Src/stm32f4xx_hal_dma.c **** 
ARM GAS  C:\Users\hanaj\AppData\Local\Temp\ccOrHUbU.s 			page 5


 202:Drivers/STM32F4xx_HAL_Driver/Src/stm32f4xx_hal_dma.c ****   /* Change DMA peripheral state */
 203:Drivers/STM32F4xx_HAL_Driver/Src/stm32f4xx_hal_dma.c ****   hdma->State = HAL_DMA_STATE_BUSY;
 204:Drivers/STM32F4xx_HAL_Driver/Src/stm32f4xx_hal_dma.c **** 
 205:Drivers/STM32F4xx_HAL_Driver/Src/stm32f4xx_hal_dma.c ****   /* Allocate lock resource */
 206:Drivers/STM32F4xx_HAL_Driver/Src/stm32f4xx_hal_dma.c ****   __HAL_UNLOCK(hdma);
 207:Drivers/STM32F4xx_HAL_Driver/Src/stm32f4xx_hal_dma.c ****   
 208:Drivers/STM32F4xx_HAL_Driver/Src/stm32f4xx_hal_dma.c ****   /* Disable the peripheral */
 209:Drivers/STM32F4xx_HAL_Driver/Src/stm32f4xx_hal_dma.c ****   __HAL_DMA_DISABLE(hdma);
 210:Drivers/STM32F4xx_HAL_Driver/Src/stm32f4xx_hal_dma.c ****   
 211:Drivers/STM32F4xx_HAL_Driver/Src/stm32f4xx_hal_dma.c ****   /* Check if the DMA Stream is effectively disabled */
 212:Drivers/STM32F4xx_HAL_Driver/Src/stm32f4xx_hal_dma.c ****   while((hdma->Instance->CR & DMA_SxCR_EN) != RESET)
 213:Drivers/STM32F4xx_HAL_Driver/Src/stm32f4xx_hal_dma.c ****   {
 214:Drivers/STM32F4xx_HAL_Driver/Src/stm32f4xx_hal_dma.c ****     /* Check for the Timeout */
 215:Drivers/STM32F4xx_HAL_Driver/Src/stm32f4xx_hal_dma.c ****     if((HAL_GetTick() - tickstart ) > HAL_TIMEOUT_DMA_ABORT)
 216:Drivers/STM32F4xx_HAL_Driver/Src/stm32f4xx_hal_dma.c ****     {
 217:Drivers/STM32F4xx_HAL_Driver/Src/stm32f4xx_hal_dma.c ****       /* Update error code */
 218:Drivers/STM32F4xx_HAL_Driver/Src/stm32f4xx_hal_dma.c ****       hdma->ErrorCode = HAL_DMA_ERROR_TIMEOUT;
 219:Drivers/STM32F4xx_HAL_Driver/Src/stm32f4xx_hal_dma.c ****       
 220:Drivers/STM32F4xx_HAL_Driver/Src/stm32f4xx_hal_dma.c ****       /* Change the DMA state */
 221:Drivers/STM32F4xx_HAL_Driver/Src/stm32f4xx_hal_dma.c ****       hdma->State = HAL_DMA_STATE_TIMEOUT;
 222:Drivers/STM32F4xx_HAL_Driver/Src/stm32f4xx_hal_dma.c ****       
 223:Drivers/STM32F4xx_HAL_Driver/Src/stm32f4xx_hal_dma.c ****       return HAL_TIMEOUT;
 224:Drivers/STM32F4xx_HAL_Driver/Src/stm32f4xx_hal_dma.c ****     }
 225:Drivers/STM32F4xx_HAL_Driver/Src/stm32f4xx_hal_dma.c ****   }
 226:Drivers/STM32F4xx_HAL_Driver/Src/stm32f4xx_hal_dma.c ****   
 227:Drivers/STM32F4xx_HAL_Driver/Src/stm32f4xx_hal_dma.c ****   /* Get the CR register value */
 228:Drivers/STM32F4xx_HAL_Driver/Src/stm32f4xx_hal_dma.c ****   tmp = hdma->Instance->CR;
 229:Drivers/STM32F4xx_HAL_Driver/Src/stm32f4xx_hal_dma.c **** 
 230:Drivers/STM32F4xx_HAL_Driver/Src/stm32f4xx_hal_dma.c ****   /* Clear CHSEL, MBURST, PBURST, PL, MSIZE, PSIZE, MINC, PINC, CIRC, DIR, CT and DBM bits */
 231:Drivers/STM32F4xx_HAL_Driver/Src/stm32f4xx_hal_dma.c ****   tmp &= ((uint32_t)~(DMA_SxCR_CHSEL | DMA_SxCR_MBURST | DMA_SxCR_PBURST | \
 232:Drivers/STM32F4xx_HAL_Driver/Src/stm32f4xx_hal_dma.c ****                       DMA_SxCR_PL    | DMA_SxCR_MSIZE  | DMA_SxCR_PSIZE  | \
 233:Drivers/STM32F4xx_HAL_Driver/Src/stm32f4xx_hal_dma.c ****                       DMA_SxCR_MINC  | DMA_SxCR_PINC   | DMA_SxCR_CIRC   | \
 234:Drivers/STM32F4xx_HAL_Driver/Src/stm32f4xx_hal_dma.c ****                       DMA_SxCR_DIR   | DMA_SxCR_CT     | DMA_SxCR_DBM));
 235:Drivers/STM32F4xx_HAL_Driver/Src/stm32f4xx_hal_dma.c **** 
 236:Drivers/STM32F4xx_HAL_Driver/Src/stm32f4xx_hal_dma.c ****   /* Prepare the DMA Stream configuration */
 237:Drivers/STM32F4xx_HAL_Driver/Src/stm32f4xx_hal_dma.c ****   tmp |=  hdma->Init.Channel             | hdma->Init.Direction        |
 238:Drivers/STM32F4xx_HAL_Driver/Src/stm32f4xx_hal_dma.c ****           hdma->Init.PeriphInc           | hdma->Init.MemInc           |
 239:Drivers/STM32F4xx_HAL_Driver/Src/stm32f4xx_hal_dma.c ****           hdma->Init.PeriphDataAlignment | hdma->Init.MemDataAlignment |
 240:Drivers/STM32F4xx_HAL_Driver/Src/stm32f4xx_hal_dma.c ****           hdma->Init.Mode                | hdma->Init.Priority;
 241:Drivers/STM32F4xx_HAL_Driver/Src/stm32f4xx_hal_dma.c **** 
 242:Drivers/STM32F4xx_HAL_Driver/Src/stm32f4xx_hal_dma.c ****   /* the Memory burst and peripheral burst are not used when the FIFO is disabled */
 243:Drivers/STM32F4xx_HAL_Driver/Src/stm32f4xx_hal_dma.c ****   if(hdma->Init.FIFOMode == DMA_FIFOMODE_ENABLE)
 244:Drivers/STM32F4xx_HAL_Driver/Src/stm32f4xx_hal_dma.c ****   {
 245:Drivers/STM32F4xx_HAL_Driver/Src/stm32f4xx_hal_dma.c ****     /* Get memory burst and peripheral burst */
 246:Drivers/STM32F4xx_HAL_Driver/Src/stm32f4xx_hal_dma.c ****     tmp |=  hdma->Init.MemBurst | hdma->Init.PeriphBurst;
 247:Drivers/STM32F4xx_HAL_Driver/Src/stm32f4xx_hal_dma.c ****   }
 248:Drivers/STM32F4xx_HAL_Driver/Src/stm32f4xx_hal_dma.c ****   
 249:Drivers/STM32F4xx_HAL_Driver/Src/stm32f4xx_hal_dma.c ****   /* Write to DMA Stream CR register */
 250:Drivers/STM32F4xx_HAL_Driver/Src/stm32f4xx_hal_dma.c ****   hdma->Instance->CR = tmp;  
 251:Drivers/STM32F4xx_HAL_Driver/Src/stm32f4xx_hal_dma.c **** 
 252:Drivers/STM32F4xx_HAL_Driver/Src/stm32f4xx_hal_dma.c ****   /* Get the FCR register value */
 253:Drivers/STM32F4xx_HAL_Driver/Src/stm32f4xx_hal_dma.c ****   tmp = hdma->Instance->FCR;
 254:Drivers/STM32F4xx_HAL_Driver/Src/stm32f4xx_hal_dma.c **** 
 255:Drivers/STM32F4xx_HAL_Driver/Src/stm32f4xx_hal_dma.c ****   /* Clear Direct mode and FIFO threshold bits */
 256:Drivers/STM32F4xx_HAL_Driver/Src/stm32f4xx_hal_dma.c ****   tmp &= (uint32_t)~(DMA_SxFCR_DMDIS | DMA_SxFCR_FTH);
 257:Drivers/STM32F4xx_HAL_Driver/Src/stm32f4xx_hal_dma.c **** 
 258:Drivers/STM32F4xx_HAL_Driver/Src/stm32f4xx_hal_dma.c ****   /* Prepare the DMA Stream FIFO configuration */
ARM GAS  C:\Users\hanaj\AppData\Local\Temp\ccOrHUbU.s 			page 6


 259:Drivers/STM32F4xx_HAL_Driver/Src/stm32f4xx_hal_dma.c ****   tmp |= hdma->Init.FIFOMode;
 260:Drivers/STM32F4xx_HAL_Driver/Src/stm32f4xx_hal_dma.c **** 
 261:Drivers/STM32F4xx_HAL_Driver/Src/stm32f4xx_hal_dma.c ****   /* The FIFO threshold is not used when the FIFO mode is disabled */
 262:Drivers/STM32F4xx_HAL_Driver/Src/stm32f4xx_hal_dma.c ****   if(hdma->Init.FIFOMode == DMA_FIFOMODE_ENABLE)
 263:Drivers/STM32F4xx_HAL_Driver/Src/stm32f4xx_hal_dma.c ****   {
 264:Drivers/STM32F4xx_HAL_Driver/Src/stm32f4xx_hal_dma.c ****     /* Get the FIFO threshold */
 265:Drivers/STM32F4xx_HAL_Driver/Src/stm32f4xx_hal_dma.c ****     tmp |= hdma->Init.FIFOThreshold;
 266:Drivers/STM32F4xx_HAL_Driver/Src/stm32f4xx_hal_dma.c ****     
 267:Drivers/STM32F4xx_HAL_Driver/Src/stm32f4xx_hal_dma.c ****     /* Check compatibility between FIFO threshold level and size of the memory burst */
 268:Drivers/STM32F4xx_HAL_Driver/Src/stm32f4xx_hal_dma.c ****     /* for INCR4, INCR8, INCR16 bursts */
 269:Drivers/STM32F4xx_HAL_Driver/Src/stm32f4xx_hal_dma.c ****     if (hdma->Init.MemBurst != DMA_MBURST_SINGLE)
 270:Drivers/STM32F4xx_HAL_Driver/Src/stm32f4xx_hal_dma.c ****     {
 271:Drivers/STM32F4xx_HAL_Driver/Src/stm32f4xx_hal_dma.c ****       if (DMA_CheckFifoParam(hdma) != HAL_OK)
 272:Drivers/STM32F4xx_HAL_Driver/Src/stm32f4xx_hal_dma.c ****       {
 273:Drivers/STM32F4xx_HAL_Driver/Src/stm32f4xx_hal_dma.c ****         /* Update error code */
 274:Drivers/STM32F4xx_HAL_Driver/Src/stm32f4xx_hal_dma.c ****         hdma->ErrorCode = HAL_DMA_ERROR_PARAM;
 275:Drivers/STM32F4xx_HAL_Driver/Src/stm32f4xx_hal_dma.c ****         
 276:Drivers/STM32F4xx_HAL_Driver/Src/stm32f4xx_hal_dma.c ****         /* Change the DMA state */
 277:Drivers/STM32F4xx_HAL_Driver/Src/stm32f4xx_hal_dma.c ****         hdma->State = HAL_DMA_STATE_READY;
 278:Drivers/STM32F4xx_HAL_Driver/Src/stm32f4xx_hal_dma.c ****         
 279:Drivers/STM32F4xx_HAL_Driver/Src/stm32f4xx_hal_dma.c ****         return HAL_ERROR; 
 280:Drivers/STM32F4xx_HAL_Driver/Src/stm32f4xx_hal_dma.c ****       }
 281:Drivers/STM32F4xx_HAL_Driver/Src/stm32f4xx_hal_dma.c ****     }
 282:Drivers/STM32F4xx_HAL_Driver/Src/stm32f4xx_hal_dma.c ****   }
 283:Drivers/STM32F4xx_HAL_Driver/Src/stm32f4xx_hal_dma.c ****   
 284:Drivers/STM32F4xx_HAL_Driver/Src/stm32f4xx_hal_dma.c ****   /* Write to DMA Stream FCR */
 285:Drivers/STM32F4xx_HAL_Driver/Src/stm32f4xx_hal_dma.c ****   hdma->Instance->FCR = tmp;
 286:Drivers/STM32F4xx_HAL_Driver/Src/stm32f4xx_hal_dma.c **** 
 287:Drivers/STM32F4xx_HAL_Driver/Src/stm32f4xx_hal_dma.c ****   /* Initialize StreamBaseAddress and StreamIndex parameters to be used to calculate
 288:Drivers/STM32F4xx_HAL_Driver/Src/stm32f4xx_hal_dma.c ****      DMA steam Base Address needed by HAL_DMA_IRQHandler() and HAL_DMA_PollForTransfer() */
 289:Drivers/STM32F4xx_HAL_Driver/Src/stm32f4xx_hal_dma.c ****   regs = (DMA_Base_Registers *)DMA_CalcBaseAndBitshift(hdma);
 290:Drivers/STM32F4xx_HAL_Driver/Src/stm32f4xx_hal_dma.c ****   
 291:Drivers/STM32F4xx_HAL_Driver/Src/stm32f4xx_hal_dma.c ****   /* Clear all interrupt flags */
 292:Drivers/STM32F4xx_HAL_Driver/Src/stm32f4xx_hal_dma.c ****   regs->IFCR = 0x3FU << hdma->StreamIndex;
 293:Drivers/STM32F4xx_HAL_Driver/Src/stm32f4xx_hal_dma.c **** 
 294:Drivers/STM32F4xx_HAL_Driver/Src/stm32f4xx_hal_dma.c ****   /* Initialize the error code */
 295:Drivers/STM32F4xx_HAL_Driver/Src/stm32f4xx_hal_dma.c ****   hdma->ErrorCode = HAL_DMA_ERROR_NONE;
 296:Drivers/STM32F4xx_HAL_Driver/Src/stm32f4xx_hal_dma.c ****                                                                                      
 297:Drivers/STM32F4xx_HAL_Driver/Src/stm32f4xx_hal_dma.c ****   /* Initialize the DMA state */
 298:Drivers/STM32F4xx_HAL_Driver/Src/stm32f4xx_hal_dma.c ****   hdma->State = HAL_DMA_STATE_READY;
 299:Drivers/STM32F4xx_HAL_Driver/Src/stm32f4xx_hal_dma.c **** 
 300:Drivers/STM32F4xx_HAL_Driver/Src/stm32f4xx_hal_dma.c ****   return HAL_OK;
 301:Drivers/STM32F4xx_HAL_Driver/Src/stm32f4xx_hal_dma.c **** }
 302:Drivers/STM32F4xx_HAL_Driver/Src/stm32f4xx_hal_dma.c **** 
 303:Drivers/STM32F4xx_HAL_Driver/Src/stm32f4xx_hal_dma.c **** /**
 304:Drivers/STM32F4xx_HAL_Driver/Src/stm32f4xx_hal_dma.c ****   * @brief  DeInitializes the DMA peripheral 
 305:Drivers/STM32F4xx_HAL_Driver/Src/stm32f4xx_hal_dma.c ****   * @param  hdma pointer to a DMA_HandleTypeDef structure that contains
 306:Drivers/STM32F4xx_HAL_Driver/Src/stm32f4xx_hal_dma.c ****   *               the configuration information for the specified DMA Stream.  
 307:Drivers/STM32F4xx_HAL_Driver/Src/stm32f4xx_hal_dma.c ****   * @retval HAL status
 308:Drivers/STM32F4xx_HAL_Driver/Src/stm32f4xx_hal_dma.c ****   */
 309:Drivers/STM32F4xx_HAL_Driver/Src/stm32f4xx_hal_dma.c **** HAL_StatusTypeDef HAL_DMA_DeInit(DMA_HandleTypeDef *hdma)
 310:Drivers/STM32F4xx_HAL_Driver/Src/stm32f4xx_hal_dma.c **** {
 311:Drivers/STM32F4xx_HAL_Driver/Src/stm32f4xx_hal_dma.c ****   DMA_Base_Registers *regs;
 312:Drivers/STM32F4xx_HAL_Driver/Src/stm32f4xx_hal_dma.c **** 
 313:Drivers/STM32F4xx_HAL_Driver/Src/stm32f4xx_hal_dma.c ****   /* Check the DMA peripheral state */
 314:Drivers/STM32F4xx_HAL_Driver/Src/stm32f4xx_hal_dma.c ****   if(hdma == NULL)
 315:Drivers/STM32F4xx_HAL_Driver/Src/stm32f4xx_hal_dma.c ****   {
ARM GAS  C:\Users\hanaj\AppData\Local\Temp\ccOrHUbU.s 			page 7


 316:Drivers/STM32F4xx_HAL_Driver/Src/stm32f4xx_hal_dma.c ****     return HAL_ERROR;
 317:Drivers/STM32F4xx_HAL_Driver/Src/stm32f4xx_hal_dma.c ****   }
 318:Drivers/STM32F4xx_HAL_Driver/Src/stm32f4xx_hal_dma.c ****   
 319:Drivers/STM32F4xx_HAL_Driver/Src/stm32f4xx_hal_dma.c ****   /* Check the DMA peripheral state */
 320:Drivers/STM32F4xx_HAL_Driver/Src/stm32f4xx_hal_dma.c ****   if(hdma->State == HAL_DMA_STATE_BUSY)
 321:Drivers/STM32F4xx_HAL_Driver/Src/stm32f4xx_hal_dma.c ****   {
 322:Drivers/STM32F4xx_HAL_Driver/Src/stm32f4xx_hal_dma.c ****     /* Return error status */
 323:Drivers/STM32F4xx_HAL_Driver/Src/stm32f4xx_hal_dma.c ****     return HAL_BUSY;
 324:Drivers/STM32F4xx_HAL_Driver/Src/stm32f4xx_hal_dma.c ****   }
 325:Drivers/STM32F4xx_HAL_Driver/Src/stm32f4xx_hal_dma.c **** 
 326:Drivers/STM32F4xx_HAL_Driver/Src/stm32f4xx_hal_dma.c ****   /* Check the parameters */
 327:Drivers/STM32F4xx_HAL_Driver/Src/stm32f4xx_hal_dma.c ****   assert_param(IS_DMA_STREAM_ALL_INSTANCE(hdma->Instance));
 328:Drivers/STM32F4xx_HAL_Driver/Src/stm32f4xx_hal_dma.c **** 
 329:Drivers/STM32F4xx_HAL_Driver/Src/stm32f4xx_hal_dma.c ****   /* Disable the selected DMA Streamx */
 330:Drivers/STM32F4xx_HAL_Driver/Src/stm32f4xx_hal_dma.c ****   __HAL_DMA_DISABLE(hdma);
 331:Drivers/STM32F4xx_HAL_Driver/Src/stm32f4xx_hal_dma.c **** 
 332:Drivers/STM32F4xx_HAL_Driver/Src/stm32f4xx_hal_dma.c ****   /* Reset DMA Streamx control register */
 333:Drivers/STM32F4xx_HAL_Driver/Src/stm32f4xx_hal_dma.c ****   hdma->Instance->CR   = 0U;
 334:Drivers/STM32F4xx_HAL_Driver/Src/stm32f4xx_hal_dma.c **** 
 335:Drivers/STM32F4xx_HAL_Driver/Src/stm32f4xx_hal_dma.c ****   /* Reset DMA Streamx number of data to transfer register */
 336:Drivers/STM32F4xx_HAL_Driver/Src/stm32f4xx_hal_dma.c ****   hdma->Instance->NDTR = 0U;
 337:Drivers/STM32F4xx_HAL_Driver/Src/stm32f4xx_hal_dma.c **** 
 338:Drivers/STM32F4xx_HAL_Driver/Src/stm32f4xx_hal_dma.c ****   /* Reset DMA Streamx peripheral address register */
 339:Drivers/STM32F4xx_HAL_Driver/Src/stm32f4xx_hal_dma.c ****   hdma->Instance->PAR  = 0U;
 340:Drivers/STM32F4xx_HAL_Driver/Src/stm32f4xx_hal_dma.c **** 
 341:Drivers/STM32F4xx_HAL_Driver/Src/stm32f4xx_hal_dma.c ****   /* Reset DMA Streamx memory 0 address register */
 342:Drivers/STM32F4xx_HAL_Driver/Src/stm32f4xx_hal_dma.c ****   hdma->Instance->M0AR = 0U;
 343:Drivers/STM32F4xx_HAL_Driver/Src/stm32f4xx_hal_dma.c ****   
 344:Drivers/STM32F4xx_HAL_Driver/Src/stm32f4xx_hal_dma.c ****   /* Reset DMA Streamx memory 1 address register */
 345:Drivers/STM32F4xx_HAL_Driver/Src/stm32f4xx_hal_dma.c ****   hdma->Instance->M1AR = 0U;
 346:Drivers/STM32F4xx_HAL_Driver/Src/stm32f4xx_hal_dma.c ****   
 347:Drivers/STM32F4xx_HAL_Driver/Src/stm32f4xx_hal_dma.c ****   /* Reset DMA Streamx FIFO control register */
 348:Drivers/STM32F4xx_HAL_Driver/Src/stm32f4xx_hal_dma.c ****   hdma->Instance->FCR  = 0x00000021U;
 349:Drivers/STM32F4xx_HAL_Driver/Src/stm32f4xx_hal_dma.c ****   
 350:Drivers/STM32F4xx_HAL_Driver/Src/stm32f4xx_hal_dma.c ****   /* Get DMA steam Base Address */  
 351:Drivers/STM32F4xx_HAL_Driver/Src/stm32f4xx_hal_dma.c ****   regs = (DMA_Base_Registers *)DMA_CalcBaseAndBitshift(hdma);
 352:Drivers/STM32F4xx_HAL_Driver/Src/stm32f4xx_hal_dma.c ****   
 353:Drivers/STM32F4xx_HAL_Driver/Src/stm32f4xx_hal_dma.c ****   /* Clean all callbacks */
 354:Drivers/STM32F4xx_HAL_Driver/Src/stm32f4xx_hal_dma.c ****   hdma->XferCpltCallback = NULL;
 355:Drivers/STM32F4xx_HAL_Driver/Src/stm32f4xx_hal_dma.c ****   hdma->XferHalfCpltCallback = NULL;
 356:Drivers/STM32F4xx_HAL_Driver/Src/stm32f4xx_hal_dma.c ****   hdma->XferM1CpltCallback = NULL;
 357:Drivers/STM32F4xx_HAL_Driver/Src/stm32f4xx_hal_dma.c ****   hdma->XferM1HalfCpltCallback = NULL;
 358:Drivers/STM32F4xx_HAL_Driver/Src/stm32f4xx_hal_dma.c ****   hdma->XferErrorCallback = NULL;
 359:Drivers/STM32F4xx_HAL_Driver/Src/stm32f4xx_hal_dma.c ****   hdma->XferAbortCallback = NULL;
 360:Drivers/STM32F4xx_HAL_Driver/Src/stm32f4xx_hal_dma.c **** 
 361:Drivers/STM32F4xx_HAL_Driver/Src/stm32f4xx_hal_dma.c ****   /* Clear all interrupt flags at correct offset within the register */
 362:Drivers/STM32F4xx_HAL_Driver/Src/stm32f4xx_hal_dma.c ****   regs->IFCR = 0x3FU << hdma->StreamIndex;
 363:Drivers/STM32F4xx_HAL_Driver/Src/stm32f4xx_hal_dma.c **** 
 364:Drivers/STM32F4xx_HAL_Driver/Src/stm32f4xx_hal_dma.c ****   /* Reset the error code */
 365:Drivers/STM32F4xx_HAL_Driver/Src/stm32f4xx_hal_dma.c ****   hdma->ErrorCode = HAL_DMA_ERROR_NONE;
 366:Drivers/STM32F4xx_HAL_Driver/Src/stm32f4xx_hal_dma.c **** 
 367:Drivers/STM32F4xx_HAL_Driver/Src/stm32f4xx_hal_dma.c ****   /* Reset the DMA state */
 368:Drivers/STM32F4xx_HAL_Driver/Src/stm32f4xx_hal_dma.c ****   hdma->State = HAL_DMA_STATE_RESET;
 369:Drivers/STM32F4xx_HAL_Driver/Src/stm32f4xx_hal_dma.c **** 
 370:Drivers/STM32F4xx_HAL_Driver/Src/stm32f4xx_hal_dma.c ****   /* Release Lock */
 371:Drivers/STM32F4xx_HAL_Driver/Src/stm32f4xx_hal_dma.c ****   __HAL_UNLOCK(hdma);
 372:Drivers/STM32F4xx_HAL_Driver/Src/stm32f4xx_hal_dma.c **** 
ARM GAS  C:\Users\hanaj\AppData\Local\Temp\ccOrHUbU.s 			page 8


 373:Drivers/STM32F4xx_HAL_Driver/Src/stm32f4xx_hal_dma.c ****   return HAL_OK;
 374:Drivers/STM32F4xx_HAL_Driver/Src/stm32f4xx_hal_dma.c **** }
 375:Drivers/STM32F4xx_HAL_Driver/Src/stm32f4xx_hal_dma.c **** 
 376:Drivers/STM32F4xx_HAL_Driver/Src/stm32f4xx_hal_dma.c **** /**
 377:Drivers/STM32F4xx_HAL_Driver/Src/stm32f4xx_hal_dma.c ****   * @}
 378:Drivers/STM32F4xx_HAL_Driver/Src/stm32f4xx_hal_dma.c ****   */
 379:Drivers/STM32F4xx_HAL_Driver/Src/stm32f4xx_hal_dma.c **** 
 380:Drivers/STM32F4xx_HAL_Driver/Src/stm32f4xx_hal_dma.c **** /** @addtogroup DMA_Exported_Functions_Group2
 381:Drivers/STM32F4xx_HAL_Driver/Src/stm32f4xx_hal_dma.c ****   *
 382:Drivers/STM32F4xx_HAL_Driver/Src/stm32f4xx_hal_dma.c **** @verbatim   
 383:Drivers/STM32F4xx_HAL_Driver/Src/stm32f4xx_hal_dma.c ****  ===============================================================================
 384:Drivers/STM32F4xx_HAL_Driver/Src/stm32f4xx_hal_dma.c ****                       #####  IO operation functions  #####
 385:Drivers/STM32F4xx_HAL_Driver/Src/stm32f4xx_hal_dma.c ****  ===============================================================================
 386:Drivers/STM32F4xx_HAL_Driver/Src/stm32f4xx_hal_dma.c ****     [..]  This section provides functions allowing to:
 387:Drivers/STM32F4xx_HAL_Driver/Src/stm32f4xx_hal_dma.c ****       (+) Configure the source, destination address and data length and Start DMA transfer
 388:Drivers/STM32F4xx_HAL_Driver/Src/stm32f4xx_hal_dma.c ****       (+) Configure the source, destination address and data length and 
 389:Drivers/STM32F4xx_HAL_Driver/Src/stm32f4xx_hal_dma.c ****           Start DMA transfer with interrupt
 390:Drivers/STM32F4xx_HAL_Driver/Src/stm32f4xx_hal_dma.c ****       (+) Abort DMA transfer
 391:Drivers/STM32F4xx_HAL_Driver/Src/stm32f4xx_hal_dma.c ****       (+) Poll for transfer complete
 392:Drivers/STM32F4xx_HAL_Driver/Src/stm32f4xx_hal_dma.c ****       (+) Handle DMA interrupt request  
 393:Drivers/STM32F4xx_HAL_Driver/Src/stm32f4xx_hal_dma.c **** 
 394:Drivers/STM32F4xx_HAL_Driver/Src/stm32f4xx_hal_dma.c **** @endverbatim
 395:Drivers/STM32F4xx_HAL_Driver/Src/stm32f4xx_hal_dma.c ****   * @{
 396:Drivers/STM32F4xx_HAL_Driver/Src/stm32f4xx_hal_dma.c ****   */
 397:Drivers/STM32F4xx_HAL_Driver/Src/stm32f4xx_hal_dma.c **** 
 398:Drivers/STM32F4xx_HAL_Driver/Src/stm32f4xx_hal_dma.c **** /**
 399:Drivers/STM32F4xx_HAL_Driver/Src/stm32f4xx_hal_dma.c ****   * @brief  Starts the DMA Transfer.
 400:Drivers/STM32F4xx_HAL_Driver/Src/stm32f4xx_hal_dma.c ****   * @param  hdma       pointer to a DMA_HandleTypeDef structure that contains
 401:Drivers/STM32F4xx_HAL_Driver/Src/stm32f4xx_hal_dma.c ****   *                     the configuration information for the specified DMA Stream.
 402:Drivers/STM32F4xx_HAL_Driver/Src/stm32f4xx_hal_dma.c ****   * @param  SrcAddress The source memory Buffer address
 403:Drivers/STM32F4xx_HAL_Driver/Src/stm32f4xx_hal_dma.c ****   * @param  DstAddress The destination memory Buffer address
 404:Drivers/STM32F4xx_HAL_Driver/Src/stm32f4xx_hal_dma.c ****   * @param  DataLength The length of data to be transferred from source to destination
 405:Drivers/STM32F4xx_HAL_Driver/Src/stm32f4xx_hal_dma.c ****   * @retval HAL status
 406:Drivers/STM32F4xx_HAL_Driver/Src/stm32f4xx_hal_dma.c ****   */
 407:Drivers/STM32F4xx_HAL_Driver/Src/stm32f4xx_hal_dma.c **** HAL_StatusTypeDef HAL_DMA_Start(DMA_HandleTypeDef *hdma, uint32_t SrcAddress, uint32_t DstAddress, 
 408:Drivers/STM32F4xx_HAL_Driver/Src/stm32f4xx_hal_dma.c **** {
 409:Drivers/STM32F4xx_HAL_Driver/Src/stm32f4xx_hal_dma.c ****   HAL_StatusTypeDef status = HAL_OK;
 410:Drivers/STM32F4xx_HAL_Driver/Src/stm32f4xx_hal_dma.c ****   
 411:Drivers/STM32F4xx_HAL_Driver/Src/stm32f4xx_hal_dma.c ****   /* Check the parameters */
 412:Drivers/STM32F4xx_HAL_Driver/Src/stm32f4xx_hal_dma.c ****   assert_param(IS_DMA_BUFFER_SIZE(DataLength));
 413:Drivers/STM32F4xx_HAL_Driver/Src/stm32f4xx_hal_dma.c **** 
 414:Drivers/STM32F4xx_HAL_Driver/Src/stm32f4xx_hal_dma.c ****   /* Process locked */
 415:Drivers/STM32F4xx_HAL_Driver/Src/stm32f4xx_hal_dma.c ****   __HAL_LOCK(hdma);
 416:Drivers/STM32F4xx_HAL_Driver/Src/stm32f4xx_hal_dma.c **** 
 417:Drivers/STM32F4xx_HAL_Driver/Src/stm32f4xx_hal_dma.c ****   if(HAL_DMA_STATE_READY == hdma->State)
 418:Drivers/STM32F4xx_HAL_Driver/Src/stm32f4xx_hal_dma.c ****   {
 419:Drivers/STM32F4xx_HAL_Driver/Src/stm32f4xx_hal_dma.c ****     /* Change DMA peripheral state */
 420:Drivers/STM32F4xx_HAL_Driver/Src/stm32f4xx_hal_dma.c ****     hdma->State = HAL_DMA_STATE_BUSY;
 421:Drivers/STM32F4xx_HAL_Driver/Src/stm32f4xx_hal_dma.c ****     
 422:Drivers/STM32F4xx_HAL_Driver/Src/stm32f4xx_hal_dma.c ****     /* Initialize the error code */
 423:Drivers/STM32F4xx_HAL_Driver/Src/stm32f4xx_hal_dma.c ****     hdma->ErrorCode = HAL_DMA_ERROR_NONE;
 424:Drivers/STM32F4xx_HAL_Driver/Src/stm32f4xx_hal_dma.c ****     
 425:Drivers/STM32F4xx_HAL_Driver/Src/stm32f4xx_hal_dma.c ****     /* Configure the source, destination address and the data length */
 426:Drivers/STM32F4xx_HAL_Driver/Src/stm32f4xx_hal_dma.c ****     DMA_SetConfig(hdma, SrcAddress, DstAddress, DataLength);
 427:Drivers/STM32F4xx_HAL_Driver/Src/stm32f4xx_hal_dma.c **** 
 428:Drivers/STM32F4xx_HAL_Driver/Src/stm32f4xx_hal_dma.c ****     /* Enable the Peripheral */
 429:Drivers/STM32F4xx_HAL_Driver/Src/stm32f4xx_hal_dma.c ****     __HAL_DMA_ENABLE(hdma);
ARM GAS  C:\Users\hanaj\AppData\Local\Temp\ccOrHUbU.s 			page 9


 430:Drivers/STM32F4xx_HAL_Driver/Src/stm32f4xx_hal_dma.c ****   }
 431:Drivers/STM32F4xx_HAL_Driver/Src/stm32f4xx_hal_dma.c ****   else
 432:Drivers/STM32F4xx_HAL_Driver/Src/stm32f4xx_hal_dma.c ****   {
 433:Drivers/STM32F4xx_HAL_Driver/Src/stm32f4xx_hal_dma.c ****     /* Process unlocked */
 434:Drivers/STM32F4xx_HAL_Driver/Src/stm32f4xx_hal_dma.c ****     __HAL_UNLOCK(hdma);
 435:Drivers/STM32F4xx_HAL_Driver/Src/stm32f4xx_hal_dma.c ****     
 436:Drivers/STM32F4xx_HAL_Driver/Src/stm32f4xx_hal_dma.c ****     /* Return error status */
 437:Drivers/STM32F4xx_HAL_Driver/Src/stm32f4xx_hal_dma.c ****     status = HAL_BUSY;
 438:Drivers/STM32F4xx_HAL_Driver/Src/stm32f4xx_hal_dma.c ****   } 
 439:Drivers/STM32F4xx_HAL_Driver/Src/stm32f4xx_hal_dma.c ****   return status; 
 440:Drivers/STM32F4xx_HAL_Driver/Src/stm32f4xx_hal_dma.c **** }
 441:Drivers/STM32F4xx_HAL_Driver/Src/stm32f4xx_hal_dma.c **** 
 442:Drivers/STM32F4xx_HAL_Driver/Src/stm32f4xx_hal_dma.c **** /**
 443:Drivers/STM32F4xx_HAL_Driver/Src/stm32f4xx_hal_dma.c ****   * @brief  Start the DMA Transfer with interrupt enabled.
 444:Drivers/STM32F4xx_HAL_Driver/Src/stm32f4xx_hal_dma.c ****   * @param  hdma       pointer to a DMA_HandleTypeDef structure that contains
 445:Drivers/STM32F4xx_HAL_Driver/Src/stm32f4xx_hal_dma.c ****   *                     the configuration information for the specified DMA Stream.  
 446:Drivers/STM32F4xx_HAL_Driver/Src/stm32f4xx_hal_dma.c ****   * @param  SrcAddress The source memory Buffer address
 447:Drivers/STM32F4xx_HAL_Driver/Src/stm32f4xx_hal_dma.c ****   * @param  DstAddress The destination memory Buffer address
 448:Drivers/STM32F4xx_HAL_Driver/Src/stm32f4xx_hal_dma.c ****   * @param  DataLength The length of data to be transferred from source to destination
 449:Drivers/STM32F4xx_HAL_Driver/Src/stm32f4xx_hal_dma.c ****   * @retval HAL status
 450:Drivers/STM32F4xx_HAL_Driver/Src/stm32f4xx_hal_dma.c ****   */
 451:Drivers/STM32F4xx_HAL_Driver/Src/stm32f4xx_hal_dma.c **** HAL_StatusTypeDef HAL_DMA_Start_IT(DMA_HandleTypeDef *hdma, uint32_t SrcAddress, uint32_t DstAddres
 452:Drivers/STM32F4xx_HAL_Driver/Src/stm32f4xx_hal_dma.c **** {
 453:Drivers/STM32F4xx_HAL_Driver/Src/stm32f4xx_hal_dma.c ****   HAL_StatusTypeDef status = HAL_OK;
 454:Drivers/STM32F4xx_HAL_Driver/Src/stm32f4xx_hal_dma.c **** 
 455:Drivers/STM32F4xx_HAL_Driver/Src/stm32f4xx_hal_dma.c ****   /* calculate DMA base and stream number */
 456:Drivers/STM32F4xx_HAL_Driver/Src/stm32f4xx_hal_dma.c ****   DMA_Base_Registers *regs = (DMA_Base_Registers *)hdma->StreamBaseAddress;
 457:Drivers/STM32F4xx_HAL_Driver/Src/stm32f4xx_hal_dma.c ****   
 458:Drivers/STM32F4xx_HAL_Driver/Src/stm32f4xx_hal_dma.c ****   /* Check the parameters */
 459:Drivers/STM32F4xx_HAL_Driver/Src/stm32f4xx_hal_dma.c ****   assert_param(IS_DMA_BUFFER_SIZE(DataLength));
 460:Drivers/STM32F4xx_HAL_Driver/Src/stm32f4xx_hal_dma.c ****  
 461:Drivers/STM32F4xx_HAL_Driver/Src/stm32f4xx_hal_dma.c ****   /* Process locked */
 462:Drivers/STM32F4xx_HAL_Driver/Src/stm32f4xx_hal_dma.c ****   __HAL_LOCK(hdma);
 463:Drivers/STM32F4xx_HAL_Driver/Src/stm32f4xx_hal_dma.c ****   
 464:Drivers/STM32F4xx_HAL_Driver/Src/stm32f4xx_hal_dma.c ****   if(HAL_DMA_STATE_READY == hdma->State)
 465:Drivers/STM32F4xx_HAL_Driver/Src/stm32f4xx_hal_dma.c ****   {
 466:Drivers/STM32F4xx_HAL_Driver/Src/stm32f4xx_hal_dma.c ****     /* Change DMA peripheral state */
 467:Drivers/STM32F4xx_HAL_Driver/Src/stm32f4xx_hal_dma.c ****     hdma->State = HAL_DMA_STATE_BUSY;
 468:Drivers/STM32F4xx_HAL_Driver/Src/stm32f4xx_hal_dma.c ****     
 469:Drivers/STM32F4xx_HAL_Driver/Src/stm32f4xx_hal_dma.c ****     /* Initialize the error code */
 470:Drivers/STM32F4xx_HAL_Driver/Src/stm32f4xx_hal_dma.c ****     hdma->ErrorCode = HAL_DMA_ERROR_NONE;
 471:Drivers/STM32F4xx_HAL_Driver/Src/stm32f4xx_hal_dma.c ****     
 472:Drivers/STM32F4xx_HAL_Driver/Src/stm32f4xx_hal_dma.c ****     /* Configure the source, destination address and the data length */
 473:Drivers/STM32F4xx_HAL_Driver/Src/stm32f4xx_hal_dma.c ****     DMA_SetConfig(hdma, SrcAddress, DstAddress, DataLength);
 474:Drivers/STM32F4xx_HAL_Driver/Src/stm32f4xx_hal_dma.c ****     
 475:Drivers/STM32F4xx_HAL_Driver/Src/stm32f4xx_hal_dma.c ****     /* Clear all interrupt flags at correct offset within the register */
 476:Drivers/STM32F4xx_HAL_Driver/Src/stm32f4xx_hal_dma.c ****     regs->IFCR = 0x3FU << hdma->StreamIndex;
 477:Drivers/STM32F4xx_HAL_Driver/Src/stm32f4xx_hal_dma.c ****     
 478:Drivers/STM32F4xx_HAL_Driver/Src/stm32f4xx_hal_dma.c ****     /* Enable Common interrupts*/
 479:Drivers/STM32F4xx_HAL_Driver/Src/stm32f4xx_hal_dma.c ****     hdma->Instance->CR  |= DMA_IT_TC | DMA_IT_TE | DMA_IT_DME;
 480:Drivers/STM32F4xx_HAL_Driver/Src/stm32f4xx_hal_dma.c ****     
 481:Drivers/STM32F4xx_HAL_Driver/Src/stm32f4xx_hal_dma.c ****     if(hdma->XferHalfCpltCallback != NULL)
 482:Drivers/STM32F4xx_HAL_Driver/Src/stm32f4xx_hal_dma.c ****     {
 483:Drivers/STM32F4xx_HAL_Driver/Src/stm32f4xx_hal_dma.c ****       hdma->Instance->CR  |= DMA_IT_HT;
 484:Drivers/STM32F4xx_HAL_Driver/Src/stm32f4xx_hal_dma.c ****     }
 485:Drivers/STM32F4xx_HAL_Driver/Src/stm32f4xx_hal_dma.c ****     
 486:Drivers/STM32F4xx_HAL_Driver/Src/stm32f4xx_hal_dma.c ****     /* Enable the Peripheral */
ARM GAS  C:\Users\hanaj\AppData\Local\Temp\ccOrHUbU.s 			page 10


 487:Drivers/STM32F4xx_HAL_Driver/Src/stm32f4xx_hal_dma.c ****     __HAL_DMA_ENABLE(hdma);
 488:Drivers/STM32F4xx_HAL_Driver/Src/stm32f4xx_hal_dma.c ****   }
 489:Drivers/STM32F4xx_HAL_Driver/Src/stm32f4xx_hal_dma.c ****   else
 490:Drivers/STM32F4xx_HAL_Driver/Src/stm32f4xx_hal_dma.c ****   {
 491:Drivers/STM32F4xx_HAL_Driver/Src/stm32f4xx_hal_dma.c ****     /* Process unlocked */
 492:Drivers/STM32F4xx_HAL_Driver/Src/stm32f4xx_hal_dma.c ****     __HAL_UNLOCK(hdma);	  
 493:Drivers/STM32F4xx_HAL_Driver/Src/stm32f4xx_hal_dma.c ****     
 494:Drivers/STM32F4xx_HAL_Driver/Src/stm32f4xx_hal_dma.c ****     /* Return error status */
 495:Drivers/STM32F4xx_HAL_Driver/Src/stm32f4xx_hal_dma.c ****     status = HAL_BUSY;
 496:Drivers/STM32F4xx_HAL_Driver/Src/stm32f4xx_hal_dma.c ****   }
 497:Drivers/STM32F4xx_HAL_Driver/Src/stm32f4xx_hal_dma.c ****   
 498:Drivers/STM32F4xx_HAL_Driver/Src/stm32f4xx_hal_dma.c ****   return status;
 499:Drivers/STM32F4xx_HAL_Driver/Src/stm32f4xx_hal_dma.c **** }
 500:Drivers/STM32F4xx_HAL_Driver/Src/stm32f4xx_hal_dma.c **** 
 501:Drivers/STM32F4xx_HAL_Driver/Src/stm32f4xx_hal_dma.c **** /**
 502:Drivers/STM32F4xx_HAL_Driver/Src/stm32f4xx_hal_dma.c ****   * @brief  Aborts the DMA Transfer.
 503:Drivers/STM32F4xx_HAL_Driver/Src/stm32f4xx_hal_dma.c ****   * @param  hdma   pointer to a DMA_HandleTypeDef structure that contains
 504:Drivers/STM32F4xx_HAL_Driver/Src/stm32f4xx_hal_dma.c ****   *                 the configuration information for the specified DMA Stream.
 505:Drivers/STM32F4xx_HAL_Driver/Src/stm32f4xx_hal_dma.c ****   *                   
 506:Drivers/STM32F4xx_HAL_Driver/Src/stm32f4xx_hal_dma.c ****   * @note  After disabling a DMA Stream, a check for wait until the DMA Stream is 
 507:Drivers/STM32F4xx_HAL_Driver/Src/stm32f4xx_hal_dma.c ****   *        effectively disabled is added. If a Stream is disabled 
 508:Drivers/STM32F4xx_HAL_Driver/Src/stm32f4xx_hal_dma.c ****   *        while a data transfer is ongoing, the current data will be transferred
 509:Drivers/STM32F4xx_HAL_Driver/Src/stm32f4xx_hal_dma.c ****   *        and the Stream will be effectively disabled only after the transfer of
 510:Drivers/STM32F4xx_HAL_Driver/Src/stm32f4xx_hal_dma.c ****   *        this single data is finished.  
 511:Drivers/STM32F4xx_HAL_Driver/Src/stm32f4xx_hal_dma.c ****   * @retval HAL status
 512:Drivers/STM32F4xx_HAL_Driver/Src/stm32f4xx_hal_dma.c ****   */
 513:Drivers/STM32F4xx_HAL_Driver/Src/stm32f4xx_hal_dma.c **** HAL_StatusTypeDef HAL_DMA_Abort(DMA_HandleTypeDef *hdma)
 514:Drivers/STM32F4xx_HAL_Driver/Src/stm32f4xx_hal_dma.c **** {
 515:Drivers/STM32F4xx_HAL_Driver/Src/stm32f4xx_hal_dma.c ****   /* calculate DMA base and stream number */
 516:Drivers/STM32F4xx_HAL_Driver/Src/stm32f4xx_hal_dma.c ****   DMA_Base_Registers *regs = (DMA_Base_Registers *)hdma->StreamBaseAddress;
 517:Drivers/STM32F4xx_HAL_Driver/Src/stm32f4xx_hal_dma.c ****   
 518:Drivers/STM32F4xx_HAL_Driver/Src/stm32f4xx_hal_dma.c ****   uint32_t tickstart = HAL_GetTick();
 519:Drivers/STM32F4xx_HAL_Driver/Src/stm32f4xx_hal_dma.c ****   
 520:Drivers/STM32F4xx_HAL_Driver/Src/stm32f4xx_hal_dma.c ****   if(hdma->State != HAL_DMA_STATE_BUSY)
 521:Drivers/STM32F4xx_HAL_Driver/Src/stm32f4xx_hal_dma.c ****   {
 522:Drivers/STM32F4xx_HAL_Driver/Src/stm32f4xx_hal_dma.c ****     hdma->ErrorCode = HAL_DMA_ERROR_NO_XFER;
 523:Drivers/STM32F4xx_HAL_Driver/Src/stm32f4xx_hal_dma.c ****     
 524:Drivers/STM32F4xx_HAL_Driver/Src/stm32f4xx_hal_dma.c ****     /* Process Unlocked */
 525:Drivers/STM32F4xx_HAL_Driver/Src/stm32f4xx_hal_dma.c ****     __HAL_UNLOCK(hdma);
 526:Drivers/STM32F4xx_HAL_Driver/Src/stm32f4xx_hal_dma.c ****     
 527:Drivers/STM32F4xx_HAL_Driver/Src/stm32f4xx_hal_dma.c ****     return HAL_ERROR;
 528:Drivers/STM32F4xx_HAL_Driver/Src/stm32f4xx_hal_dma.c ****   }
 529:Drivers/STM32F4xx_HAL_Driver/Src/stm32f4xx_hal_dma.c ****   else
 530:Drivers/STM32F4xx_HAL_Driver/Src/stm32f4xx_hal_dma.c ****   {
 531:Drivers/STM32F4xx_HAL_Driver/Src/stm32f4xx_hal_dma.c ****     /* Disable all the transfer interrupts */
 532:Drivers/STM32F4xx_HAL_Driver/Src/stm32f4xx_hal_dma.c ****     hdma->Instance->CR  &= ~(DMA_IT_TC | DMA_IT_TE | DMA_IT_DME);
 533:Drivers/STM32F4xx_HAL_Driver/Src/stm32f4xx_hal_dma.c ****     hdma->Instance->FCR &= ~(DMA_IT_FE);
 534:Drivers/STM32F4xx_HAL_Driver/Src/stm32f4xx_hal_dma.c ****     
 535:Drivers/STM32F4xx_HAL_Driver/Src/stm32f4xx_hal_dma.c ****     if((hdma->XferHalfCpltCallback != NULL) || (hdma->XferM1HalfCpltCallback != NULL))
 536:Drivers/STM32F4xx_HAL_Driver/Src/stm32f4xx_hal_dma.c ****     {
 537:Drivers/STM32F4xx_HAL_Driver/Src/stm32f4xx_hal_dma.c ****       hdma->Instance->CR  &= ~(DMA_IT_HT);
 538:Drivers/STM32F4xx_HAL_Driver/Src/stm32f4xx_hal_dma.c ****     }
 539:Drivers/STM32F4xx_HAL_Driver/Src/stm32f4xx_hal_dma.c ****     
 540:Drivers/STM32F4xx_HAL_Driver/Src/stm32f4xx_hal_dma.c ****     /* Disable the stream */
 541:Drivers/STM32F4xx_HAL_Driver/Src/stm32f4xx_hal_dma.c ****     __HAL_DMA_DISABLE(hdma);
 542:Drivers/STM32F4xx_HAL_Driver/Src/stm32f4xx_hal_dma.c ****     
 543:Drivers/STM32F4xx_HAL_Driver/Src/stm32f4xx_hal_dma.c ****     /* Check if the DMA Stream is effectively disabled */
ARM GAS  C:\Users\hanaj\AppData\Local\Temp\ccOrHUbU.s 			page 11


 544:Drivers/STM32F4xx_HAL_Driver/Src/stm32f4xx_hal_dma.c ****     while((hdma->Instance->CR & DMA_SxCR_EN) != RESET)
 545:Drivers/STM32F4xx_HAL_Driver/Src/stm32f4xx_hal_dma.c ****     {
 546:Drivers/STM32F4xx_HAL_Driver/Src/stm32f4xx_hal_dma.c ****       /* Check for the Timeout */
 547:Drivers/STM32F4xx_HAL_Driver/Src/stm32f4xx_hal_dma.c ****       if((HAL_GetTick() - tickstart ) > HAL_TIMEOUT_DMA_ABORT)
 548:Drivers/STM32F4xx_HAL_Driver/Src/stm32f4xx_hal_dma.c ****       {
 549:Drivers/STM32F4xx_HAL_Driver/Src/stm32f4xx_hal_dma.c ****         /* Update error code */
 550:Drivers/STM32F4xx_HAL_Driver/Src/stm32f4xx_hal_dma.c ****         hdma->ErrorCode = HAL_DMA_ERROR_TIMEOUT;
 551:Drivers/STM32F4xx_HAL_Driver/Src/stm32f4xx_hal_dma.c ****         
 552:Drivers/STM32F4xx_HAL_Driver/Src/stm32f4xx_hal_dma.c ****         /* Change the DMA state */
 553:Drivers/STM32F4xx_HAL_Driver/Src/stm32f4xx_hal_dma.c ****         hdma->State = HAL_DMA_STATE_TIMEOUT;
 554:Drivers/STM32F4xx_HAL_Driver/Src/stm32f4xx_hal_dma.c ****         
 555:Drivers/STM32F4xx_HAL_Driver/Src/stm32f4xx_hal_dma.c ****         /* Process Unlocked */
 556:Drivers/STM32F4xx_HAL_Driver/Src/stm32f4xx_hal_dma.c ****         __HAL_UNLOCK(hdma);
 557:Drivers/STM32F4xx_HAL_Driver/Src/stm32f4xx_hal_dma.c ****         
 558:Drivers/STM32F4xx_HAL_Driver/Src/stm32f4xx_hal_dma.c ****         return HAL_TIMEOUT;
 559:Drivers/STM32F4xx_HAL_Driver/Src/stm32f4xx_hal_dma.c ****       }
 560:Drivers/STM32F4xx_HAL_Driver/Src/stm32f4xx_hal_dma.c ****     }
 561:Drivers/STM32F4xx_HAL_Driver/Src/stm32f4xx_hal_dma.c ****     
 562:Drivers/STM32F4xx_HAL_Driver/Src/stm32f4xx_hal_dma.c ****     /* Clear all interrupt flags at correct offset within the register */
 563:Drivers/STM32F4xx_HAL_Driver/Src/stm32f4xx_hal_dma.c ****     regs->IFCR = 0x3FU << hdma->StreamIndex;
 564:Drivers/STM32F4xx_HAL_Driver/Src/stm32f4xx_hal_dma.c ****     
 565:Drivers/STM32F4xx_HAL_Driver/Src/stm32f4xx_hal_dma.c ****     /* Change the DMA state*/
 566:Drivers/STM32F4xx_HAL_Driver/Src/stm32f4xx_hal_dma.c ****     hdma->State = HAL_DMA_STATE_READY;
 567:Drivers/STM32F4xx_HAL_Driver/Src/stm32f4xx_hal_dma.c ****     
 568:Drivers/STM32F4xx_HAL_Driver/Src/stm32f4xx_hal_dma.c ****     /* Process Unlocked */
 569:Drivers/STM32F4xx_HAL_Driver/Src/stm32f4xx_hal_dma.c ****     __HAL_UNLOCK(hdma);
 570:Drivers/STM32F4xx_HAL_Driver/Src/stm32f4xx_hal_dma.c ****   }
 571:Drivers/STM32F4xx_HAL_Driver/Src/stm32f4xx_hal_dma.c ****   return HAL_OK;
 572:Drivers/STM32F4xx_HAL_Driver/Src/stm32f4xx_hal_dma.c **** }
 573:Drivers/STM32F4xx_HAL_Driver/Src/stm32f4xx_hal_dma.c **** 
 574:Drivers/STM32F4xx_HAL_Driver/Src/stm32f4xx_hal_dma.c **** /**
 575:Drivers/STM32F4xx_HAL_Driver/Src/stm32f4xx_hal_dma.c ****   * @brief  Aborts the DMA Transfer in Interrupt mode.
 576:Drivers/STM32F4xx_HAL_Driver/Src/stm32f4xx_hal_dma.c ****   * @param  hdma   pointer to a DMA_HandleTypeDef structure that contains
 577:Drivers/STM32F4xx_HAL_Driver/Src/stm32f4xx_hal_dma.c ****   *                 the configuration information for the specified DMA Stream.
 578:Drivers/STM32F4xx_HAL_Driver/Src/stm32f4xx_hal_dma.c ****   * @retval HAL status
 579:Drivers/STM32F4xx_HAL_Driver/Src/stm32f4xx_hal_dma.c ****   */
 580:Drivers/STM32F4xx_HAL_Driver/Src/stm32f4xx_hal_dma.c **** HAL_StatusTypeDef HAL_DMA_Abort_IT(DMA_HandleTypeDef *hdma)
 581:Drivers/STM32F4xx_HAL_Driver/Src/stm32f4xx_hal_dma.c **** {
 582:Drivers/STM32F4xx_HAL_Driver/Src/stm32f4xx_hal_dma.c ****   if(hdma->State != HAL_DMA_STATE_BUSY)
 583:Drivers/STM32F4xx_HAL_Driver/Src/stm32f4xx_hal_dma.c ****   {
 584:Drivers/STM32F4xx_HAL_Driver/Src/stm32f4xx_hal_dma.c ****     hdma->ErrorCode = HAL_DMA_ERROR_NO_XFER;
 585:Drivers/STM32F4xx_HAL_Driver/Src/stm32f4xx_hal_dma.c ****     return HAL_ERROR;
 586:Drivers/STM32F4xx_HAL_Driver/Src/stm32f4xx_hal_dma.c ****   }
 587:Drivers/STM32F4xx_HAL_Driver/Src/stm32f4xx_hal_dma.c ****   else
 588:Drivers/STM32F4xx_HAL_Driver/Src/stm32f4xx_hal_dma.c ****   {
 589:Drivers/STM32F4xx_HAL_Driver/Src/stm32f4xx_hal_dma.c ****     /* Set Abort State  */
 590:Drivers/STM32F4xx_HAL_Driver/Src/stm32f4xx_hal_dma.c ****     hdma->State = HAL_DMA_STATE_ABORT;
 591:Drivers/STM32F4xx_HAL_Driver/Src/stm32f4xx_hal_dma.c ****     
 592:Drivers/STM32F4xx_HAL_Driver/Src/stm32f4xx_hal_dma.c ****     /* Disable the stream */
 593:Drivers/STM32F4xx_HAL_Driver/Src/stm32f4xx_hal_dma.c ****     __HAL_DMA_DISABLE(hdma);
 594:Drivers/STM32F4xx_HAL_Driver/Src/stm32f4xx_hal_dma.c ****   }
 595:Drivers/STM32F4xx_HAL_Driver/Src/stm32f4xx_hal_dma.c **** 
 596:Drivers/STM32F4xx_HAL_Driver/Src/stm32f4xx_hal_dma.c ****   return HAL_OK;
 597:Drivers/STM32F4xx_HAL_Driver/Src/stm32f4xx_hal_dma.c **** }
 598:Drivers/STM32F4xx_HAL_Driver/Src/stm32f4xx_hal_dma.c **** 
 599:Drivers/STM32F4xx_HAL_Driver/Src/stm32f4xx_hal_dma.c **** /**
 600:Drivers/STM32F4xx_HAL_Driver/Src/stm32f4xx_hal_dma.c ****   * @brief  Polling for transfer complete.
ARM GAS  C:\Users\hanaj\AppData\Local\Temp\ccOrHUbU.s 			page 12


 601:Drivers/STM32F4xx_HAL_Driver/Src/stm32f4xx_hal_dma.c ****   * @param  hdma          pointer to a DMA_HandleTypeDef structure that contains
 602:Drivers/STM32F4xx_HAL_Driver/Src/stm32f4xx_hal_dma.c ****   *                        the configuration information for the specified DMA Stream.
 603:Drivers/STM32F4xx_HAL_Driver/Src/stm32f4xx_hal_dma.c ****   * @param  CompleteLevel Specifies the DMA level complete.
 604:Drivers/STM32F4xx_HAL_Driver/Src/stm32f4xx_hal_dma.c ****   * @note   The polling mode is kept in this version for legacy. it is recommended to use the IT mo
 605:Drivers/STM32F4xx_HAL_Driver/Src/stm32f4xx_hal_dma.c ****   *         This model could be used for debug purpose.
 606:Drivers/STM32F4xx_HAL_Driver/Src/stm32f4xx_hal_dma.c ****   * @note   The HAL_DMA_PollForTransfer API cannot be used in circular and double buffering mode (a
 607:Drivers/STM32F4xx_HAL_Driver/Src/stm32f4xx_hal_dma.c ****   * @param  Timeout       Timeout duration.
 608:Drivers/STM32F4xx_HAL_Driver/Src/stm32f4xx_hal_dma.c ****   * @retval HAL status
 609:Drivers/STM32F4xx_HAL_Driver/Src/stm32f4xx_hal_dma.c ****   */
 610:Drivers/STM32F4xx_HAL_Driver/Src/stm32f4xx_hal_dma.c **** HAL_StatusTypeDef HAL_DMA_PollForTransfer(DMA_HandleTypeDef *hdma, HAL_DMA_LevelCompleteTypeDef Com
 611:Drivers/STM32F4xx_HAL_Driver/Src/stm32f4xx_hal_dma.c **** {
 612:Drivers/STM32F4xx_HAL_Driver/Src/stm32f4xx_hal_dma.c ****   HAL_StatusTypeDef status = HAL_OK; 
 613:Drivers/STM32F4xx_HAL_Driver/Src/stm32f4xx_hal_dma.c ****   uint32_t mask_cpltlevel;
 614:Drivers/STM32F4xx_HAL_Driver/Src/stm32f4xx_hal_dma.c ****   uint32_t tickstart = HAL_GetTick(); 
 615:Drivers/STM32F4xx_HAL_Driver/Src/stm32f4xx_hal_dma.c ****   uint32_t tmpisr;
 616:Drivers/STM32F4xx_HAL_Driver/Src/stm32f4xx_hal_dma.c ****   
 617:Drivers/STM32F4xx_HAL_Driver/Src/stm32f4xx_hal_dma.c ****   /* calculate DMA base and stream number */
 618:Drivers/STM32F4xx_HAL_Driver/Src/stm32f4xx_hal_dma.c ****   DMA_Base_Registers *regs;
 619:Drivers/STM32F4xx_HAL_Driver/Src/stm32f4xx_hal_dma.c **** 
 620:Drivers/STM32F4xx_HAL_Driver/Src/stm32f4xx_hal_dma.c ****   if(HAL_DMA_STATE_BUSY != hdma->State)
 621:Drivers/STM32F4xx_HAL_Driver/Src/stm32f4xx_hal_dma.c ****   {
 622:Drivers/STM32F4xx_HAL_Driver/Src/stm32f4xx_hal_dma.c ****     /* No transfer ongoing */
 623:Drivers/STM32F4xx_HAL_Driver/Src/stm32f4xx_hal_dma.c ****     hdma->ErrorCode = HAL_DMA_ERROR_NO_XFER;
 624:Drivers/STM32F4xx_HAL_Driver/Src/stm32f4xx_hal_dma.c ****     __HAL_UNLOCK(hdma);
 625:Drivers/STM32F4xx_HAL_Driver/Src/stm32f4xx_hal_dma.c ****     return HAL_ERROR;
 626:Drivers/STM32F4xx_HAL_Driver/Src/stm32f4xx_hal_dma.c ****   }
 627:Drivers/STM32F4xx_HAL_Driver/Src/stm32f4xx_hal_dma.c **** 
 628:Drivers/STM32F4xx_HAL_Driver/Src/stm32f4xx_hal_dma.c ****   /* Polling mode not supported in circular mode and double buffering mode */
 629:Drivers/STM32F4xx_HAL_Driver/Src/stm32f4xx_hal_dma.c ****   if ((hdma->Instance->CR & DMA_SxCR_CIRC) != RESET)
 630:Drivers/STM32F4xx_HAL_Driver/Src/stm32f4xx_hal_dma.c ****   {
 631:Drivers/STM32F4xx_HAL_Driver/Src/stm32f4xx_hal_dma.c ****     hdma->ErrorCode = HAL_DMA_ERROR_NOT_SUPPORTED;
 632:Drivers/STM32F4xx_HAL_Driver/Src/stm32f4xx_hal_dma.c ****     return HAL_ERROR;
 633:Drivers/STM32F4xx_HAL_Driver/Src/stm32f4xx_hal_dma.c ****   }
 634:Drivers/STM32F4xx_HAL_Driver/Src/stm32f4xx_hal_dma.c ****   
 635:Drivers/STM32F4xx_HAL_Driver/Src/stm32f4xx_hal_dma.c ****   /* Get the level transfer complete flag */
 636:Drivers/STM32F4xx_HAL_Driver/Src/stm32f4xx_hal_dma.c ****   if(CompleteLevel == HAL_DMA_FULL_TRANSFER)
 637:Drivers/STM32F4xx_HAL_Driver/Src/stm32f4xx_hal_dma.c ****   {
 638:Drivers/STM32F4xx_HAL_Driver/Src/stm32f4xx_hal_dma.c ****     /* Transfer Complete flag */
 639:Drivers/STM32F4xx_HAL_Driver/Src/stm32f4xx_hal_dma.c ****     mask_cpltlevel = DMA_FLAG_TCIF0_4 << hdma->StreamIndex;
 640:Drivers/STM32F4xx_HAL_Driver/Src/stm32f4xx_hal_dma.c ****   }
 641:Drivers/STM32F4xx_HAL_Driver/Src/stm32f4xx_hal_dma.c ****   else
 642:Drivers/STM32F4xx_HAL_Driver/Src/stm32f4xx_hal_dma.c ****   {
 643:Drivers/STM32F4xx_HAL_Driver/Src/stm32f4xx_hal_dma.c ****     /* Half Transfer Complete flag */
 644:Drivers/STM32F4xx_HAL_Driver/Src/stm32f4xx_hal_dma.c ****     mask_cpltlevel = DMA_FLAG_HTIF0_4 << hdma->StreamIndex;
 645:Drivers/STM32F4xx_HAL_Driver/Src/stm32f4xx_hal_dma.c ****   }
 646:Drivers/STM32F4xx_HAL_Driver/Src/stm32f4xx_hal_dma.c ****   
 647:Drivers/STM32F4xx_HAL_Driver/Src/stm32f4xx_hal_dma.c ****   regs = (DMA_Base_Registers *)hdma->StreamBaseAddress;
 648:Drivers/STM32F4xx_HAL_Driver/Src/stm32f4xx_hal_dma.c ****   tmpisr = regs->ISR;
 649:Drivers/STM32F4xx_HAL_Driver/Src/stm32f4xx_hal_dma.c ****   
 650:Drivers/STM32F4xx_HAL_Driver/Src/stm32f4xx_hal_dma.c ****   while(((tmpisr & mask_cpltlevel) == RESET) && ((hdma->ErrorCode & HAL_DMA_ERROR_TE) == RESET))
 651:Drivers/STM32F4xx_HAL_Driver/Src/stm32f4xx_hal_dma.c ****   {
 652:Drivers/STM32F4xx_HAL_Driver/Src/stm32f4xx_hal_dma.c ****     /* Check for the Timeout (Not applicable in circular mode)*/
 653:Drivers/STM32F4xx_HAL_Driver/Src/stm32f4xx_hal_dma.c ****     if(Timeout != HAL_MAX_DELAY)
 654:Drivers/STM32F4xx_HAL_Driver/Src/stm32f4xx_hal_dma.c ****     {
 655:Drivers/STM32F4xx_HAL_Driver/Src/stm32f4xx_hal_dma.c ****       if((Timeout == 0U)||((HAL_GetTick() - tickstart ) > Timeout))
 656:Drivers/STM32F4xx_HAL_Driver/Src/stm32f4xx_hal_dma.c ****       {
 657:Drivers/STM32F4xx_HAL_Driver/Src/stm32f4xx_hal_dma.c ****         /* Update error code */
ARM GAS  C:\Users\hanaj\AppData\Local\Temp\ccOrHUbU.s 			page 13


 658:Drivers/STM32F4xx_HAL_Driver/Src/stm32f4xx_hal_dma.c ****         hdma->ErrorCode = HAL_DMA_ERROR_TIMEOUT;
 659:Drivers/STM32F4xx_HAL_Driver/Src/stm32f4xx_hal_dma.c ****         
 660:Drivers/STM32F4xx_HAL_Driver/Src/stm32f4xx_hal_dma.c ****         /* Change the DMA state */
 661:Drivers/STM32F4xx_HAL_Driver/Src/stm32f4xx_hal_dma.c ****         hdma->State = HAL_DMA_STATE_READY;
 662:Drivers/STM32F4xx_HAL_Driver/Src/stm32f4xx_hal_dma.c ****         
 663:Drivers/STM32F4xx_HAL_Driver/Src/stm32f4xx_hal_dma.c ****         /* Process Unlocked */
 664:Drivers/STM32F4xx_HAL_Driver/Src/stm32f4xx_hal_dma.c ****         __HAL_UNLOCK(hdma);
 665:Drivers/STM32F4xx_HAL_Driver/Src/stm32f4xx_hal_dma.c ****         
 666:Drivers/STM32F4xx_HAL_Driver/Src/stm32f4xx_hal_dma.c ****         return HAL_TIMEOUT;
 667:Drivers/STM32F4xx_HAL_Driver/Src/stm32f4xx_hal_dma.c ****       }
 668:Drivers/STM32F4xx_HAL_Driver/Src/stm32f4xx_hal_dma.c ****     }
 669:Drivers/STM32F4xx_HAL_Driver/Src/stm32f4xx_hal_dma.c **** 
 670:Drivers/STM32F4xx_HAL_Driver/Src/stm32f4xx_hal_dma.c ****     /* Get the ISR register value */
 671:Drivers/STM32F4xx_HAL_Driver/Src/stm32f4xx_hal_dma.c ****     tmpisr = regs->ISR;
 672:Drivers/STM32F4xx_HAL_Driver/Src/stm32f4xx_hal_dma.c **** 
 673:Drivers/STM32F4xx_HAL_Driver/Src/stm32f4xx_hal_dma.c ****     if((tmpisr & (DMA_FLAG_TEIF0_4 << hdma->StreamIndex)) != RESET)
 674:Drivers/STM32F4xx_HAL_Driver/Src/stm32f4xx_hal_dma.c ****     {
 675:Drivers/STM32F4xx_HAL_Driver/Src/stm32f4xx_hal_dma.c ****       /* Update error code */
 676:Drivers/STM32F4xx_HAL_Driver/Src/stm32f4xx_hal_dma.c ****       hdma->ErrorCode |= HAL_DMA_ERROR_TE;
 677:Drivers/STM32F4xx_HAL_Driver/Src/stm32f4xx_hal_dma.c ****       
 678:Drivers/STM32F4xx_HAL_Driver/Src/stm32f4xx_hal_dma.c ****       /* Clear the transfer error flag */
 679:Drivers/STM32F4xx_HAL_Driver/Src/stm32f4xx_hal_dma.c ****       regs->IFCR = DMA_FLAG_TEIF0_4 << hdma->StreamIndex;
 680:Drivers/STM32F4xx_HAL_Driver/Src/stm32f4xx_hal_dma.c ****     }
 681:Drivers/STM32F4xx_HAL_Driver/Src/stm32f4xx_hal_dma.c ****     
 682:Drivers/STM32F4xx_HAL_Driver/Src/stm32f4xx_hal_dma.c ****     if((tmpisr & (DMA_FLAG_FEIF0_4 << hdma->StreamIndex)) != RESET)
 683:Drivers/STM32F4xx_HAL_Driver/Src/stm32f4xx_hal_dma.c ****     {
 684:Drivers/STM32F4xx_HAL_Driver/Src/stm32f4xx_hal_dma.c ****       /* Update error code */
 685:Drivers/STM32F4xx_HAL_Driver/Src/stm32f4xx_hal_dma.c ****       hdma->ErrorCode |= HAL_DMA_ERROR_FE;
 686:Drivers/STM32F4xx_HAL_Driver/Src/stm32f4xx_hal_dma.c ****       
 687:Drivers/STM32F4xx_HAL_Driver/Src/stm32f4xx_hal_dma.c ****       /* Clear the FIFO error flag */
 688:Drivers/STM32F4xx_HAL_Driver/Src/stm32f4xx_hal_dma.c ****       regs->IFCR = DMA_FLAG_FEIF0_4 << hdma->StreamIndex;
 689:Drivers/STM32F4xx_HAL_Driver/Src/stm32f4xx_hal_dma.c ****     }
 690:Drivers/STM32F4xx_HAL_Driver/Src/stm32f4xx_hal_dma.c ****     
 691:Drivers/STM32F4xx_HAL_Driver/Src/stm32f4xx_hal_dma.c ****     if((tmpisr & (DMA_FLAG_DMEIF0_4 << hdma->StreamIndex)) != RESET)
 692:Drivers/STM32F4xx_HAL_Driver/Src/stm32f4xx_hal_dma.c ****     {
 693:Drivers/STM32F4xx_HAL_Driver/Src/stm32f4xx_hal_dma.c ****       /* Update error code */
 694:Drivers/STM32F4xx_HAL_Driver/Src/stm32f4xx_hal_dma.c ****       hdma->ErrorCode |= HAL_DMA_ERROR_DME;
 695:Drivers/STM32F4xx_HAL_Driver/Src/stm32f4xx_hal_dma.c ****       
 696:Drivers/STM32F4xx_HAL_Driver/Src/stm32f4xx_hal_dma.c ****       /* Clear the Direct Mode error flag */
 697:Drivers/STM32F4xx_HAL_Driver/Src/stm32f4xx_hal_dma.c ****       regs->IFCR = DMA_FLAG_DMEIF0_4 << hdma->StreamIndex;
 698:Drivers/STM32F4xx_HAL_Driver/Src/stm32f4xx_hal_dma.c ****     }
 699:Drivers/STM32F4xx_HAL_Driver/Src/stm32f4xx_hal_dma.c ****   }
 700:Drivers/STM32F4xx_HAL_Driver/Src/stm32f4xx_hal_dma.c ****   
 701:Drivers/STM32F4xx_HAL_Driver/Src/stm32f4xx_hal_dma.c ****   if(hdma->ErrorCode != HAL_DMA_ERROR_NONE)
 702:Drivers/STM32F4xx_HAL_Driver/Src/stm32f4xx_hal_dma.c ****   {
 703:Drivers/STM32F4xx_HAL_Driver/Src/stm32f4xx_hal_dma.c ****     if((hdma->ErrorCode & HAL_DMA_ERROR_TE) != RESET)
 704:Drivers/STM32F4xx_HAL_Driver/Src/stm32f4xx_hal_dma.c ****     {
 705:Drivers/STM32F4xx_HAL_Driver/Src/stm32f4xx_hal_dma.c ****       HAL_DMA_Abort(hdma);
 706:Drivers/STM32F4xx_HAL_Driver/Src/stm32f4xx_hal_dma.c ****     
 707:Drivers/STM32F4xx_HAL_Driver/Src/stm32f4xx_hal_dma.c ****       /* Clear the half transfer and transfer complete flags */
 708:Drivers/STM32F4xx_HAL_Driver/Src/stm32f4xx_hal_dma.c ****       regs->IFCR = (DMA_FLAG_HTIF0_4 | DMA_FLAG_TCIF0_4) << hdma->StreamIndex;
 709:Drivers/STM32F4xx_HAL_Driver/Src/stm32f4xx_hal_dma.c ****     
 710:Drivers/STM32F4xx_HAL_Driver/Src/stm32f4xx_hal_dma.c ****       /* Change the DMA state */
 711:Drivers/STM32F4xx_HAL_Driver/Src/stm32f4xx_hal_dma.c ****       hdma->State= HAL_DMA_STATE_READY;
 712:Drivers/STM32F4xx_HAL_Driver/Src/stm32f4xx_hal_dma.c **** 
 713:Drivers/STM32F4xx_HAL_Driver/Src/stm32f4xx_hal_dma.c ****       /* Process Unlocked */
 714:Drivers/STM32F4xx_HAL_Driver/Src/stm32f4xx_hal_dma.c ****       __HAL_UNLOCK(hdma);
ARM GAS  C:\Users\hanaj\AppData\Local\Temp\ccOrHUbU.s 			page 14


 715:Drivers/STM32F4xx_HAL_Driver/Src/stm32f4xx_hal_dma.c **** 
 716:Drivers/STM32F4xx_HAL_Driver/Src/stm32f4xx_hal_dma.c ****       return HAL_ERROR;
 717:Drivers/STM32F4xx_HAL_Driver/Src/stm32f4xx_hal_dma.c ****    }
 718:Drivers/STM32F4xx_HAL_Driver/Src/stm32f4xx_hal_dma.c ****   }
 719:Drivers/STM32F4xx_HAL_Driver/Src/stm32f4xx_hal_dma.c ****   
 720:Drivers/STM32F4xx_HAL_Driver/Src/stm32f4xx_hal_dma.c ****   /* Get the level transfer complete flag */
 721:Drivers/STM32F4xx_HAL_Driver/Src/stm32f4xx_hal_dma.c ****   if(CompleteLevel == HAL_DMA_FULL_TRANSFER)
 722:Drivers/STM32F4xx_HAL_Driver/Src/stm32f4xx_hal_dma.c ****   {
 723:Drivers/STM32F4xx_HAL_Driver/Src/stm32f4xx_hal_dma.c ****     /* Clear the half transfer and transfer complete flags */
 724:Drivers/STM32F4xx_HAL_Driver/Src/stm32f4xx_hal_dma.c ****     regs->IFCR = (DMA_FLAG_HTIF0_4 | DMA_FLAG_TCIF0_4) << hdma->StreamIndex;
 725:Drivers/STM32F4xx_HAL_Driver/Src/stm32f4xx_hal_dma.c ****     
 726:Drivers/STM32F4xx_HAL_Driver/Src/stm32f4xx_hal_dma.c ****     hdma->State = HAL_DMA_STATE_READY;
 727:Drivers/STM32F4xx_HAL_Driver/Src/stm32f4xx_hal_dma.c ****     
 728:Drivers/STM32F4xx_HAL_Driver/Src/stm32f4xx_hal_dma.c ****     /* Process Unlocked */
 729:Drivers/STM32F4xx_HAL_Driver/Src/stm32f4xx_hal_dma.c ****     __HAL_UNLOCK(hdma);
 730:Drivers/STM32F4xx_HAL_Driver/Src/stm32f4xx_hal_dma.c ****   }
 731:Drivers/STM32F4xx_HAL_Driver/Src/stm32f4xx_hal_dma.c ****   else
 732:Drivers/STM32F4xx_HAL_Driver/Src/stm32f4xx_hal_dma.c ****   {
 733:Drivers/STM32F4xx_HAL_Driver/Src/stm32f4xx_hal_dma.c ****     /* Clear the half transfer and transfer complete flags */
 734:Drivers/STM32F4xx_HAL_Driver/Src/stm32f4xx_hal_dma.c ****     regs->IFCR = (DMA_FLAG_HTIF0_4) << hdma->StreamIndex;
 735:Drivers/STM32F4xx_HAL_Driver/Src/stm32f4xx_hal_dma.c ****   }
 736:Drivers/STM32F4xx_HAL_Driver/Src/stm32f4xx_hal_dma.c ****   
 737:Drivers/STM32F4xx_HAL_Driver/Src/stm32f4xx_hal_dma.c ****   return status;
 738:Drivers/STM32F4xx_HAL_Driver/Src/stm32f4xx_hal_dma.c **** }
 739:Drivers/STM32F4xx_HAL_Driver/Src/stm32f4xx_hal_dma.c **** 
 740:Drivers/STM32F4xx_HAL_Driver/Src/stm32f4xx_hal_dma.c **** /**
 741:Drivers/STM32F4xx_HAL_Driver/Src/stm32f4xx_hal_dma.c ****   * @brief  Handles DMA interrupt request.
 742:Drivers/STM32F4xx_HAL_Driver/Src/stm32f4xx_hal_dma.c ****   * @param  hdma pointer to a DMA_HandleTypeDef structure that contains
 743:Drivers/STM32F4xx_HAL_Driver/Src/stm32f4xx_hal_dma.c ****   *               the configuration information for the specified DMA Stream.  
 744:Drivers/STM32F4xx_HAL_Driver/Src/stm32f4xx_hal_dma.c ****   * @retval None
 745:Drivers/STM32F4xx_HAL_Driver/Src/stm32f4xx_hal_dma.c ****   */
 746:Drivers/STM32F4xx_HAL_Driver/Src/stm32f4xx_hal_dma.c **** void HAL_DMA_IRQHandler(DMA_HandleTypeDef *hdma)
 747:Drivers/STM32F4xx_HAL_Driver/Src/stm32f4xx_hal_dma.c **** {
 748:Drivers/STM32F4xx_HAL_Driver/Src/stm32f4xx_hal_dma.c ****   uint32_t tmpisr;
 749:Drivers/STM32F4xx_HAL_Driver/Src/stm32f4xx_hal_dma.c ****   __IO uint32_t count = 0U;
 750:Drivers/STM32F4xx_HAL_Driver/Src/stm32f4xx_hal_dma.c ****   uint32_t timeout = SystemCoreClock / 9600U;
 751:Drivers/STM32F4xx_HAL_Driver/Src/stm32f4xx_hal_dma.c **** 
 752:Drivers/STM32F4xx_HAL_Driver/Src/stm32f4xx_hal_dma.c ****   /* calculate DMA base and stream number */
 753:Drivers/STM32F4xx_HAL_Driver/Src/stm32f4xx_hal_dma.c ****   DMA_Base_Registers *regs = (DMA_Base_Registers *)hdma->StreamBaseAddress;
 754:Drivers/STM32F4xx_HAL_Driver/Src/stm32f4xx_hal_dma.c **** 
 755:Drivers/STM32F4xx_HAL_Driver/Src/stm32f4xx_hal_dma.c ****   tmpisr = regs->ISR;
 756:Drivers/STM32F4xx_HAL_Driver/Src/stm32f4xx_hal_dma.c **** 
 757:Drivers/STM32F4xx_HAL_Driver/Src/stm32f4xx_hal_dma.c ****   /* Transfer Error Interrupt management ***************************************/
 758:Drivers/STM32F4xx_HAL_Driver/Src/stm32f4xx_hal_dma.c ****   if ((tmpisr & (DMA_FLAG_TEIF0_4 << hdma->StreamIndex)) != RESET)
 759:Drivers/STM32F4xx_HAL_Driver/Src/stm32f4xx_hal_dma.c ****   {
 760:Drivers/STM32F4xx_HAL_Driver/Src/stm32f4xx_hal_dma.c ****     if(__HAL_DMA_GET_IT_SOURCE(hdma, DMA_IT_TE) != RESET)
 761:Drivers/STM32F4xx_HAL_Driver/Src/stm32f4xx_hal_dma.c ****     {
 762:Drivers/STM32F4xx_HAL_Driver/Src/stm32f4xx_hal_dma.c ****       /* Disable the transfer error interrupt */
 763:Drivers/STM32F4xx_HAL_Driver/Src/stm32f4xx_hal_dma.c ****       hdma->Instance->CR  &= ~(DMA_IT_TE);
 764:Drivers/STM32F4xx_HAL_Driver/Src/stm32f4xx_hal_dma.c ****       
 765:Drivers/STM32F4xx_HAL_Driver/Src/stm32f4xx_hal_dma.c ****       /* Clear the transfer error flag */
 766:Drivers/STM32F4xx_HAL_Driver/Src/stm32f4xx_hal_dma.c ****       regs->IFCR = DMA_FLAG_TEIF0_4 << hdma->StreamIndex;
 767:Drivers/STM32F4xx_HAL_Driver/Src/stm32f4xx_hal_dma.c ****       
 768:Drivers/STM32F4xx_HAL_Driver/Src/stm32f4xx_hal_dma.c ****       /* Update error code */
 769:Drivers/STM32F4xx_HAL_Driver/Src/stm32f4xx_hal_dma.c ****       hdma->ErrorCode |= HAL_DMA_ERROR_TE;
 770:Drivers/STM32F4xx_HAL_Driver/Src/stm32f4xx_hal_dma.c ****     }
 771:Drivers/STM32F4xx_HAL_Driver/Src/stm32f4xx_hal_dma.c ****   }
ARM GAS  C:\Users\hanaj\AppData\Local\Temp\ccOrHUbU.s 			page 15


 772:Drivers/STM32F4xx_HAL_Driver/Src/stm32f4xx_hal_dma.c ****   /* FIFO Error Interrupt management ******************************************/
 773:Drivers/STM32F4xx_HAL_Driver/Src/stm32f4xx_hal_dma.c ****   if ((tmpisr & (DMA_FLAG_FEIF0_4 << hdma->StreamIndex)) != RESET)
 774:Drivers/STM32F4xx_HAL_Driver/Src/stm32f4xx_hal_dma.c ****   {
 775:Drivers/STM32F4xx_HAL_Driver/Src/stm32f4xx_hal_dma.c ****     if(__HAL_DMA_GET_IT_SOURCE(hdma, DMA_IT_FE) != RESET)
 776:Drivers/STM32F4xx_HAL_Driver/Src/stm32f4xx_hal_dma.c ****     {
 777:Drivers/STM32F4xx_HAL_Driver/Src/stm32f4xx_hal_dma.c ****       /* Clear the FIFO error flag */
 778:Drivers/STM32F4xx_HAL_Driver/Src/stm32f4xx_hal_dma.c ****       regs->IFCR = DMA_FLAG_FEIF0_4 << hdma->StreamIndex;
 779:Drivers/STM32F4xx_HAL_Driver/Src/stm32f4xx_hal_dma.c **** 
 780:Drivers/STM32F4xx_HAL_Driver/Src/stm32f4xx_hal_dma.c ****       /* Update error code */
 781:Drivers/STM32F4xx_HAL_Driver/Src/stm32f4xx_hal_dma.c ****       hdma->ErrorCode |= HAL_DMA_ERROR_FE;
 782:Drivers/STM32F4xx_HAL_Driver/Src/stm32f4xx_hal_dma.c ****     }
 783:Drivers/STM32F4xx_HAL_Driver/Src/stm32f4xx_hal_dma.c ****   }
 784:Drivers/STM32F4xx_HAL_Driver/Src/stm32f4xx_hal_dma.c ****   /* Direct Mode Error Interrupt management ***********************************/
 785:Drivers/STM32F4xx_HAL_Driver/Src/stm32f4xx_hal_dma.c ****   if ((tmpisr & (DMA_FLAG_DMEIF0_4 << hdma->StreamIndex)) != RESET)
 786:Drivers/STM32F4xx_HAL_Driver/Src/stm32f4xx_hal_dma.c ****   {
 787:Drivers/STM32F4xx_HAL_Driver/Src/stm32f4xx_hal_dma.c ****     if(__HAL_DMA_GET_IT_SOURCE(hdma, DMA_IT_DME) != RESET)
 788:Drivers/STM32F4xx_HAL_Driver/Src/stm32f4xx_hal_dma.c ****     {
 789:Drivers/STM32F4xx_HAL_Driver/Src/stm32f4xx_hal_dma.c ****       /* Clear the direct mode error flag */
 790:Drivers/STM32F4xx_HAL_Driver/Src/stm32f4xx_hal_dma.c ****       regs->IFCR = DMA_FLAG_DMEIF0_4 << hdma->StreamIndex;
 791:Drivers/STM32F4xx_HAL_Driver/Src/stm32f4xx_hal_dma.c **** 
 792:Drivers/STM32F4xx_HAL_Driver/Src/stm32f4xx_hal_dma.c ****       /* Update error code */
 793:Drivers/STM32F4xx_HAL_Driver/Src/stm32f4xx_hal_dma.c ****       hdma->ErrorCode |= HAL_DMA_ERROR_DME;
 794:Drivers/STM32F4xx_HAL_Driver/Src/stm32f4xx_hal_dma.c ****     }
 795:Drivers/STM32F4xx_HAL_Driver/Src/stm32f4xx_hal_dma.c ****   }
 796:Drivers/STM32F4xx_HAL_Driver/Src/stm32f4xx_hal_dma.c ****   /* Half Transfer Complete Interrupt management ******************************/
 797:Drivers/STM32F4xx_HAL_Driver/Src/stm32f4xx_hal_dma.c ****   if ((tmpisr & (DMA_FLAG_HTIF0_4 << hdma->StreamIndex)) != RESET)
 798:Drivers/STM32F4xx_HAL_Driver/Src/stm32f4xx_hal_dma.c ****   {
 799:Drivers/STM32F4xx_HAL_Driver/Src/stm32f4xx_hal_dma.c ****     if(__HAL_DMA_GET_IT_SOURCE(hdma, DMA_IT_HT) != RESET)
 800:Drivers/STM32F4xx_HAL_Driver/Src/stm32f4xx_hal_dma.c ****     {
 801:Drivers/STM32F4xx_HAL_Driver/Src/stm32f4xx_hal_dma.c ****       /* Clear the half transfer complete flag */
 802:Drivers/STM32F4xx_HAL_Driver/Src/stm32f4xx_hal_dma.c ****       regs->IFCR = DMA_FLAG_HTIF0_4 << hdma->StreamIndex;
 803:Drivers/STM32F4xx_HAL_Driver/Src/stm32f4xx_hal_dma.c ****       
 804:Drivers/STM32F4xx_HAL_Driver/Src/stm32f4xx_hal_dma.c ****       /* Multi_Buffering mode enabled */
 805:Drivers/STM32F4xx_HAL_Driver/Src/stm32f4xx_hal_dma.c ****       if(((hdma->Instance->CR) & (uint32_t)(DMA_SxCR_DBM)) != RESET)
 806:Drivers/STM32F4xx_HAL_Driver/Src/stm32f4xx_hal_dma.c ****       {
 807:Drivers/STM32F4xx_HAL_Driver/Src/stm32f4xx_hal_dma.c ****         /* Current memory buffer used is Memory 0 */
 808:Drivers/STM32F4xx_HAL_Driver/Src/stm32f4xx_hal_dma.c ****         if((hdma->Instance->CR & DMA_SxCR_CT) == RESET)
 809:Drivers/STM32F4xx_HAL_Driver/Src/stm32f4xx_hal_dma.c ****         {
 810:Drivers/STM32F4xx_HAL_Driver/Src/stm32f4xx_hal_dma.c ****           if(hdma->XferHalfCpltCallback != NULL)
 811:Drivers/STM32F4xx_HAL_Driver/Src/stm32f4xx_hal_dma.c ****           {
 812:Drivers/STM32F4xx_HAL_Driver/Src/stm32f4xx_hal_dma.c ****             /* Half transfer callback */
 813:Drivers/STM32F4xx_HAL_Driver/Src/stm32f4xx_hal_dma.c ****             hdma->XferHalfCpltCallback(hdma);
 814:Drivers/STM32F4xx_HAL_Driver/Src/stm32f4xx_hal_dma.c ****           }
 815:Drivers/STM32F4xx_HAL_Driver/Src/stm32f4xx_hal_dma.c ****         }
 816:Drivers/STM32F4xx_HAL_Driver/Src/stm32f4xx_hal_dma.c ****         /* Current memory buffer used is Memory 1 */
 817:Drivers/STM32F4xx_HAL_Driver/Src/stm32f4xx_hal_dma.c ****         else
 818:Drivers/STM32F4xx_HAL_Driver/Src/stm32f4xx_hal_dma.c ****         {
 819:Drivers/STM32F4xx_HAL_Driver/Src/stm32f4xx_hal_dma.c ****           if(hdma->XferM1HalfCpltCallback != NULL)
 820:Drivers/STM32F4xx_HAL_Driver/Src/stm32f4xx_hal_dma.c ****           {
 821:Drivers/STM32F4xx_HAL_Driver/Src/stm32f4xx_hal_dma.c ****             /* Half transfer callback */
 822:Drivers/STM32F4xx_HAL_Driver/Src/stm32f4xx_hal_dma.c ****             hdma->XferM1HalfCpltCallback(hdma);
 823:Drivers/STM32F4xx_HAL_Driver/Src/stm32f4xx_hal_dma.c ****           }
 824:Drivers/STM32F4xx_HAL_Driver/Src/stm32f4xx_hal_dma.c ****         }
 825:Drivers/STM32F4xx_HAL_Driver/Src/stm32f4xx_hal_dma.c ****       }
 826:Drivers/STM32F4xx_HAL_Driver/Src/stm32f4xx_hal_dma.c ****       else
 827:Drivers/STM32F4xx_HAL_Driver/Src/stm32f4xx_hal_dma.c ****       {
 828:Drivers/STM32F4xx_HAL_Driver/Src/stm32f4xx_hal_dma.c ****         /* Disable the half transfer interrupt if the DMA mode is not CIRCULAR */
ARM GAS  C:\Users\hanaj\AppData\Local\Temp\ccOrHUbU.s 			page 16


 829:Drivers/STM32F4xx_HAL_Driver/Src/stm32f4xx_hal_dma.c ****         if((hdma->Instance->CR & DMA_SxCR_CIRC) == RESET)
 830:Drivers/STM32F4xx_HAL_Driver/Src/stm32f4xx_hal_dma.c ****         {
 831:Drivers/STM32F4xx_HAL_Driver/Src/stm32f4xx_hal_dma.c ****           /* Disable the half transfer interrupt */
 832:Drivers/STM32F4xx_HAL_Driver/Src/stm32f4xx_hal_dma.c ****           hdma->Instance->CR  &= ~(DMA_IT_HT);
 833:Drivers/STM32F4xx_HAL_Driver/Src/stm32f4xx_hal_dma.c ****         }
 834:Drivers/STM32F4xx_HAL_Driver/Src/stm32f4xx_hal_dma.c ****         
 835:Drivers/STM32F4xx_HAL_Driver/Src/stm32f4xx_hal_dma.c ****         if(hdma->XferHalfCpltCallback != NULL)
 836:Drivers/STM32F4xx_HAL_Driver/Src/stm32f4xx_hal_dma.c ****         {
 837:Drivers/STM32F4xx_HAL_Driver/Src/stm32f4xx_hal_dma.c ****           /* Half transfer callback */
 838:Drivers/STM32F4xx_HAL_Driver/Src/stm32f4xx_hal_dma.c ****           hdma->XferHalfCpltCallback(hdma);
 839:Drivers/STM32F4xx_HAL_Driver/Src/stm32f4xx_hal_dma.c ****         }
 840:Drivers/STM32F4xx_HAL_Driver/Src/stm32f4xx_hal_dma.c ****       }
 841:Drivers/STM32F4xx_HAL_Driver/Src/stm32f4xx_hal_dma.c ****     }
 842:Drivers/STM32F4xx_HAL_Driver/Src/stm32f4xx_hal_dma.c ****   }
 843:Drivers/STM32F4xx_HAL_Driver/Src/stm32f4xx_hal_dma.c ****   /* Transfer Complete Interrupt management ***********************************/
 844:Drivers/STM32F4xx_HAL_Driver/Src/stm32f4xx_hal_dma.c ****   if ((tmpisr & (DMA_FLAG_TCIF0_4 << hdma->StreamIndex)) != RESET)
 845:Drivers/STM32F4xx_HAL_Driver/Src/stm32f4xx_hal_dma.c ****   {
 846:Drivers/STM32F4xx_HAL_Driver/Src/stm32f4xx_hal_dma.c ****     if(__HAL_DMA_GET_IT_SOURCE(hdma, DMA_IT_TC) != RESET)
 847:Drivers/STM32F4xx_HAL_Driver/Src/stm32f4xx_hal_dma.c ****     {
 848:Drivers/STM32F4xx_HAL_Driver/Src/stm32f4xx_hal_dma.c ****       /* Clear the transfer complete flag */
 849:Drivers/STM32F4xx_HAL_Driver/Src/stm32f4xx_hal_dma.c ****       regs->IFCR = DMA_FLAG_TCIF0_4 << hdma->StreamIndex;
 850:Drivers/STM32F4xx_HAL_Driver/Src/stm32f4xx_hal_dma.c ****       
 851:Drivers/STM32F4xx_HAL_Driver/Src/stm32f4xx_hal_dma.c ****       if(HAL_DMA_STATE_ABORT == hdma->State)
 852:Drivers/STM32F4xx_HAL_Driver/Src/stm32f4xx_hal_dma.c ****       {
 853:Drivers/STM32F4xx_HAL_Driver/Src/stm32f4xx_hal_dma.c ****         /* Disable all the transfer interrupts */
 854:Drivers/STM32F4xx_HAL_Driver/Src/stm32f4xx_hal_dma.c ****         hdma->Instance->CR  &= ~(DMA_IT_TC | DMA_IT_TE | DMA_IT_DME);
 855:Drivers/STM32F4xx_HAL_Driver/Src/stm32f4xx_hal_dma.c ****         hdma->Instance->FCR &= ~(DMA_IT_FE);
 856:Drivers/STM32F4xx_HAL_Driver/Src/stm32f4xx_hal_dma.c ****         
 857:Drivers/STM32F4xx_HAL_Driver/Src/stm32f4xx_hal_dma.c ****         if((hdma->XferHalfCpltCallback != NULL) || (hdma->XferM1HalfCpltCallback != NULL))
 858:Drivers/STM32F4xx_HAL_Driver/Src/stm32f4xx_hal_dma.c ****         {
 859:Drivers/STM32F4xx_HAL_Driver/Src/stm32f4xx_hal_dma.c ****           hdma->Instance->CR  &= ~(DMA_IT_HT);
 860:Drivers/STM32F4xx_HAL_Driver/Src/stm32f4xx_hal_dma.c ****         }
 861:Drivers/STM32F4xx_HAL_Driver/Src/stm32f4xx_hal_dma.c **** 
 862:Drivers/STM32F4xx_HAL_Driver/Src/stm32f4xx_hal_dma.c ****         /* Clear all interrupt flags at correct offset within the register */
 863:Drivers/STM32F4xx_HAL_Driver/Src/stm32f4xx_hal_dma.c ****         regs->IFCR = 0x3FU << hdma->StreamIndex;
 864:Drivers/STM32F4xx_HAL_Driver/Src/stm32f4xx_hal_dma.c **** 
 865:Drivers/STM32F4xx_HAL_Driver/Src/stm32f4xx_hal_dma.c ****         /* Change the DMA state */
 866:Drivers/STM32F4xx_HAL_Driver/Src/stm32f4xx_hal_dma.c ****         hdma->State = HAL_DMA_STATE_READY;
 867:Drivers/STM32F4xx_HAL_Driver/Src/stm32f4xx_hal_dma.c **** 
 868:Drivers/STM32F4xx_HAL_Driver/Src/stm32f4xx_hal_dma.c ****         /* Process Unlocked */
 869:Drivers/STM32F4xx_HAL_Driver/Src/stm32f4xx_hal_dma.c ****         __HAL_UNLOCK(hdma);
 870:Drivers/STM32F4xx_HAL_Driver/Src/stm32f4xx_hal_dma.c **** 
 871:Drivers/STM32F4xx_HAL_Driver/Src/stm32f4xx_hal_dma.c ****         if(hdma->XferAbortCallback != NULL)
 872:Drivers/STM32F4xx_HAL_Driver/Src/stm32f4xx_hal_dma.c ****         {
 873:Drivers/STM32F4xx_HAL_Driver/Src/stm32f4xx_hal_dma.c ****           hdma->XferAbortCallback(hdma);
 874:Drivers/STM32F4xx_HAL_Driver/Src/stm32f4xx_hal_dma.c ****         }
 875:Drivers/STM32F4xx_HAL_Driver/Src/stm32f4xx_hal_dma.c ****         return;
 876:Drivers/STM32F4xx_HAL_Driver/Src/stm32f4xx_hal_dma.c ****       }
 877:Drivers/STM32F4xx_HAL_Driver/Src/stm32f4xx_hal_dma.c **** 
 878:Drivers/STM32F4xx_HAL_Driver/Src/stm32f4xx_hal_dma.c ****       if(((hdma->Instance->CR) & (uint32_t)(DMA_SxCR_DBM)) != RESET)
 879:Drivers/STM32F4xx_HAL_Driver/Src/stm32f4xx_hal_dma.c ****       {
 880:Drivers/STM32F4xx_HAL_Driver/Src/stm32f4xx_hal_dma.c ****         /* Current memory buffer used is Memory 0 */
 881:Drivers/STM32F4xx_HAL_Driver/Src/stm32f4xx_hal_dma.c ****         if((hdma->Instance->CR & DMA_SxCR_CT) == RESET)
 882:Drivers/STM32F4xx_HAL_Driver/Src/stm32f4xx_hal_dma.c ****         {
 883:Drivers/STM32F4xx_HAL_Driver/Src/stm32f4xx_hal_dma.c ****           if(hdma->XferM1CpltCallback != NULL)
 884:Drivers/STM32F4xx_HAL_Driver/Src/stm32f4xx_hal_dma.c ****           {
 885:Drivers/STM32F4xx_HAL_Driver/Src/stm32f4xx_hal_dma.c ****             /* Transfer complete Callback for memory1 */
ARM GAS  C:\Users\hanaj\AppData\Local\Temp\ccOrHUbU.s 			page 17


 886:Drivers/STM32F4xx_HAL_Driver/Src/stm32f4xx_hal_dma.c ****             hdma->XferM1CpltCallback(hdma);
 887:Drivers/STM32F4xx_HAL_Driver/Src/stm32f4xx_hal_dma.c ****           }
 888:Drivers/STM32F4xx_HAL_Driver/Src/stm32f4xx_hal_dma.c ****         }
 889:Drivers/STM32F4xx_HAL_Driver/Src/stm32f4xx_hal_dma.c ****         /* Current memory buffer used is Memory 1 */
 890:Drivers/STM32F4xx_HAL_Driver/Src/stm32f4xx_hal_dma.c ****         else
 891:Drivers/STM32F4xx_HAL_Driver/Src/stm32f4xx_hal_dma.c ****         {
 892:Drivers/STM32F4xx_HAL_Driver/Src/stm32f4xx_hal_dma.c ****           if(hdma->XferCpltCallback != NULL)
 893:Drivers/STM32F4xx_HAL_Driver/Src/stm32f4xx_hal_dma.c ****           {
 894:Drivers/STM32F4xx_HAL_Driver/Src/stm32f4xx_hal_dma.c ****             /* Transfer complete Callback for memory0 */
 895:Drivers/STM32F4xx_HAL_Driver/Src/stm32f4xx_hal_dma.c ****             hdma->XferCpltCallback(hdma);
 896:Drivers/STM32F4xx_HAL_Driver/Src/stm32f4xx_hal_dma.c ****           }
 897:Drivers/STM32F4xx_HAL_Driver/Src/stm32f4xx_hal_dma.c ****         }
 898:Drivers/STM32F4xx_HAL_Driver/Src/stm32f4xx_hal_dma.c ****       }
 899:Drivers/STM32F4xx_HAL_Driver/Src/stm32f4xx_hal_dma.c ****       /* Disable the transfer complete interrupt if the DMA mode is not CIRCULAR */
 900:Drivers/STM32F4xx_HAL_Driver/Src/stm32f4xx_hal_dma.c ****       else
 901:Drivers/STM32F4xx_HAL_Driver/Src/stm32f4xx_hal_dma.c ****       {
 902:Drivers/STM32F4xx_HAL_Driver/Src/stm32f4xx_hal_dma.c ****         if((hdma->Instance->CR & DMA_SxCR_CIRC) == RESET)
 903:Drivers/STM32F4xx_HAL_Driver/Src/stm32f4xx_hal_dma.c ****         {
 904:Drivers/STM32F4xx_HAL_Driver/Src/stm32f4xx_hal_dma.c ****           /* Disable the transfer complete interrupt */
 905:Drivers/STM32F4xx_HAL_Driver/Src/stm32f4xx_hal_dma.c ****           hdma->Instance->CR  &= ~(DMA_IT_TC);
 906:Drivers/STM32F4xx_HAL_Driver/Src/stm32f4xx_hal_dma.c **** 
 907:Drivers/STM32F4xx_HAL_Driver/Src/stm32f4xx_hal_dma.c ****           /* Change the DMA state */
 908:Drivers/STM32F4xx_HAL_Driver/Src/stm32f4xx_hal_dma.c ****           hdma->State = HAL_DMA_STATE_READY;
 909:Drivers/STM32F4xx_HAL_Driver/Src/stm32f4xx_hal_dma.c **** 
 910:Drivers/STM32F4xx_HAL_Driver/Src/stm32f4xx_hal_dma.c ****           /* Process Unlocked */
 911:Drivers/STM32F4xx_HAL_Driver/Src/stm32f4xx_hal_dma.c ****           __HAL_UNLOCK(hdma);
 912:Drivers/STM32F4xx_HAL_Driver/Src/stm32f4xx_hal_dma.c ****         }
 913:Drivers/STM32F4xx_HAL_Driver/Src/stm32f4xx_hal_dma.c **** 
 914:Drivers/STM32F4xx_HAL_Driver/Src/stm32f4xx_hal_dma.c ****         if(hdma->XferCpltCallback != NULL)
 915:Drivers/STM32F4xx_HAL_Driver/Src/stm32f4xx_hal_dma.c ****         {
 916:Drivers/STM32F4xx_HAL_Driver/Src/stm32f4xx_hal_dma.c ****           /* Transfer complete callback */
 917:Drivers/STM32F4xx_HAL_Driver/Src/stm32f4xx_hal_dma.c ****           hdma->XferCpltCallback(hdma);
 918:Drivers/STM32F4xx_HAL_Driver/Src/stm32f4xx_hal_dma.c ****         }
 919:Drivers/STM32F4xx_HAL_Driver/Src/stm32f4xx_hal_dma.c ****       }
 920:Drivers/STM32F4xx_HAL_Driver/Src/stm32f4xx_hal_dma.c ****     }
 921:Drivers/STM32F4xx_HAL_Driver/Src/stm32f4xx_hal_dma.c ****   }
 922:Drivers/STM32F4xx_HAL_Driver/Src/stm32f4xx_hal_dma.c ****   
 923:Drivers/STM32F4xx_HAL_Driver/Src/stm32f4xx_hal_dma.c ****   /* manage error case */
 924:Drivers/STM32F4xx_HAL_Driver/Src/stm32f4xx_hal_dma.c ****   if(hdma->ErrorCode != HAL_DMA_ERROR_NONE)
 925:Drivers/STM32F4xx_HAL_Driver/Src/stm32f4xx_hal_dma.c ****   {
 926:Drivers/STM32F4xx_HAL_Driver/Src/stm32f4xx_hal_dma.c ****     if((hdma->ErrorCode & HAL_DMA_ERROR_TE) != RESET)
 927:Drivers/STM32F4xx_HAL_Driver/Src/stm32f4xx_hal_dma.c ****     {
 928:Drivers/STM32F4xx_HAL_Driver/Src/stm32f4xx_hal_dma.c ****       hdma->State = HAL_DMA_STATE_ABORT;
 929:Drivers/STM32F4xx_HAL_Driver/Src/stm32f4xx_hal_dma.c **** 
 930:Drivers/STM32F4xx_HAL_Driver/Src/stm32f4xx_hal_dma.c ****       /* Disable the stream */
 931:Drivers/STM32F4xx_HAL_Driver/Src/stm32f4xx_hal_dma.c ****       __HAL_DMA_DISABLE(hdma);
 932:Drivers/STM32F4xx_HAL_Driver/Src/stm32f4xx_hal_dma.c **** 
 933:Drivers/STM32F4xx_HAL_Driver/Src/stm32f4xx_hal_dma.c ****       do
 934:Drivers/STM32F4xx_HAL_Driver/Src/stm32f4xx_hal_dma.c ****       {
 935:Drivers/STM32F4xx_HAL_Driver/Src/stm32f4xx_hal_dma.c ****         if (++count > timeout)
 936:Drivers/STM32F4xx_HAL_Driver/Src/stm32f4xx_hal_dma.c ****         {
 937:Drivers/STM32F4xx_HAL_Driver/Src/stm32f4xx_hal_dma.c ****           break;
 938:Drivers/STM32F4xx_HAL_Driver/Src/stm32f4xx_hal_dma.c ****         }
 939:Drivers/STM32F4xx_HAL_Driver/Src/stm32f4xx_hal_dma.c ****       }
 940:Drivers/STM32F4xx_HAL_Driver/Src/stm32f4xx_hal_dma.c ****       while((hdma->Instance->CR & DMA_SxCR_EN) != RESET);
 941:Drivers/STM32F4xx_HAL_Driver/Src/stm32f4xx_hal_dma.c **** 
 942:Drivers/STM32F4xx_HAL_Driver/Src/stm32f4xx_hal_dma.c ****       /* Change the DMA state */
ARM GAS  C:\Users\hanaj\AppData\Local\Temp\ccOrHUbU.s 			page 18


 943:Drivers/STM32F4xx_HAL_Driver/Src/stm32f4xx_hal_dma.c ****       hdma->State = HAL_DMA_STATE_READY;
 944:Drivers/STM32F4xx_HAL_Driver/Src/stm32f4xx_hal_dma.c **** 
 945:Drivers/STM32F4xx_HAL_Driver/Src/stm32f4xx_hal_dma.c ****       /* Process Unlocked */
 946:Drivers/STM32F4xx_HAL_Driver/Src/stm32f4xx_hal_dma.c ****       __HAL_UNLOCK(hdma);
 947:Drivers/STM32F4xx_HAL_Driver/Src/stm32f4xx_hal_dma.c ****     }
 948:Drivers/STM32F4xx_HAL_Driver/Src/stm32f4xx_hal_dma.c **** 
 949:Drivers/STM32F4xx_HAL_Driver/Src/stm32f4xx_hal_dma.c ****     if(hdma->XferErrorCallback != NULL)
 950:Drivers/STM32F4xx_HAL_Driver/Src/stm32f4xx_hal_dma.c ****     {
 951:Drivers/STM32F4xx_HAL_Driver/Src/stm32f4xx_hal_dma.c ****       /* Transfer error callback */
 952:Drivers/STM32F4xx_HAL_Driver/Src/stm32f4xx_hal_dma.c ****       hdma->XferErrorCallback(hdma);
 953:Drivers/STM32F4xx_HAL_Driver/Src/stm32f4xx_hal_dma.c ****     }
 954:Drivers/STM32F4xx_HAL_Driver/Src/stm32f4xx_hal_dma.c ****   }
 955:Drivers/STM32F4xx_HAL_Driver/Src/stm32f4xx_hal_dma.c **** }
 956:Drivers/STM32F4xx_HAL_Driver/Src/stm32f4xx_hal_dma.c **** 
 957:Drivers/STM32F4xx_HAL_Driver/Src/stm32f4xx_hal_dma.c **** /**
 958:Drivers/STM32F4xx_HAL_Driver/Src/stm32f4xx_hal_dma.c ****   * @brief  Register callbacks
 959:Drivers/STM32F4xx_HAL_Driver/Src/stm32f4xx_hal_dma.c ****   * @param  hdma                 pointer to a DMA_HandleTypeDef structure that contains
 960:Drivers/STM32F4xx_HAL_Driver/Src/stm32f4xx_hal_dma.c ****   *                               the configuration information for the specified DMA Stream.
 961:Drivers/STM32F4xx_HAL_Driver/Src/stm32f4xx_hal_dma.c ****   * @param  CallbackID           User Callback identifier
 962:Drivers/STM32F4xx_HAL_Driver/Src/stm32f4xx_hal_dma.c ****   *                               a DMA_HandleTypeDef structure as parameter.
 963:Drivers/STM32F4xx_HAL_Driver/Src/stm32f4xx_hal_dma.c ****   * @param  pCallback            pointer to private callback function which has pointer to 
 964:Drivers/STM32F4xx_HAL_Driver/Src/stm32f4xx_hal_dma.c ****   *                               a DMA_HandleTypeDef structure as parameter.
 965:Drivers/STM32F4xx_HAL_Driver/Src/stm32f4xx_hal_dma.c ****   * @retval HAL status
 966:Drivers/STM32F4xx_HAL_Driver/Src/stm32f4xx_hal_dma.c ****   */                      
 967:Drivers/STM32F4xx_HAL_Driver/Src/stm32f4xx_hal_dma.c **** HAL_StatusTypeDef HAL_DMA_RegisterCallback(DMA_HandleTypeDef *hdma, HAL_DMA_CallbackIDTypeDef Callb
 968:Drivers/STM32F4xx_HAL_Driver/Src/stm32f4xx_hal_dma.c **** {
 969:Drivers/STM32F4xx_HAL_Driver/Src/stm32f4xx_hal_dma.c **** 
 970:Drivers/STM32F4xx_HAL_Driver/Src/stm32f4xx_hal_dma.c ****   HAL_StatusTypeDef status = HAL_OK;
 971:Drivers/STM32F4xx_HAL_Driver/Src/stm32f4xx_hal_dma.c **** 
 972:Drivers/STM32F4xx_HAL_Driver/Src/stm32f4xx_hal_dma.c ****   /* Process locked */
 973:Drivers/STM32F4xx_HAL_Driver/Src/stm32f4xx_hal_dma.c ****   __HAL_LOCK(hdma);
 974:Drivers/STM32F4xx_HAL_Driver/Src/stm32f4xx_hal_dma.c **** 
 975:Drivers/STM32F4xx_HAL_Driver/Src/stm32f4xx_hal_dma.c ****   if(HAL_DMA_STATE_READY == hdma->State)
 976:Drivers/STM32F4xx_HAL_Driver/Src/stm32f4xx_hal_dma.c ****   {
 977:Drivers/STM32F4xx_HAL_Driver/Src/stm32f4xx_hal_dma.c ****     switch (CallbackID)
 978:Drivers/STM32F4xx_HAL_Driver/Src/stm32f4xx_hal_dma.c ****     {
 979:Drivers/STM32F4xx_HAL_Driver/Src/stm32f4xx_hal_dma.c ****     case  HAL_DMA_XFER_CPLT_CB_ID:
 980:Drivers/STM32F4xx_HAL_Driver/Src/stm32f4xx_hal_dma.c ****       hdma->XferCpltCallback = pCallback;
 981:Drivers/STM32F4xx_HAL_Driver/Src/stm32f4xx_hal_dma.c ****       break;
 982:Drivers/STM32F4xx_HAL_Driver/Src/stm32f4xx_hal_dma.c **** 
 983:Drivers/STM32F4xx_HAL_Driver/Src/stm32f4xx_hal_dma.c ****     case  HAL_DMA_XFER_HALFCPLT_CB_ID:
 984:Drivers/STM32F4xx_HAL_Driver/Src/stm32f4xx_hal_dma.c ****       hdma->XferHalfCpltCallback = pCallback;
 985:Drivers/STM32F4xx_HAL_Driver/Src/stm32f4xx_hal_dma.c ****       break;
 986:Drivers/STM32F4xx_HAL_Driver/Src/stm32f4xx_hal_dma.c **** 
 987:Drivers/STM32F4xx_HAL_Driver/Src/stm32f4xx_hal_dma.c ****     case  HAL_DMA_XFER_M1CPLT_CB_ID:
 988:Drivers/STM32F4xx_HAL_Driver/Src/stm32f4xx_hal_dma.c ****       hdma->XferM1CpltCallback = pCallback;
 989:Drivers/STM32F4xx_HAL_Driver/Src/stm32f4xx_hal_dma.c ****       break;
 990:Drivers/STM32F4xx_HAL_Driver/Src/stm32f4xx_hal_dma.c **** 
 991:Drivers/STM32F4xx_HAL_Driver/Src/stm32f4xx_hal_dma.c ****     case  HAL_DMA_XFER_M1HALFCPLT_CB_ID:
 992:Drivers/STM32F4xx_HAL_Driver/Src/stm32f4xx_hal_dma.c ****       hdma->XferM1HalfCpltCallback = pCallback;
 993:Drivers/STM32F4xx_HAL_Driver/Src/stm32f4xx_hal_dma.c ****       break;
 994:Drivers/STM32F4xx_HAL_Driver/Src/stm32f4xx_hal_dma.c **** 
 995:Drivers/STM32F4xx_HAL_Driver/Src/stm32f4xx_hal_dma.c ****     case  HAL_DMA_XFER_ERROR_CB_ID:
 996:Drivers/STM32F4xx_HAL_Driver/Src/stm32f4xx_hal_dma.c ****       hdma->XferErrorCallback = pCallback;
 997:Drivers/STM32F4xx_HAL_Driver/Src/stm32f4xx_hal_dma.c ****       break;
 998:Drivers/STM32F4xx_HAL_Driver/Src/stm32f4xx_hal_dma.c **** 
 999:Drivers/STM32F4xx_HAL_Driver/Src/stm32f4xx_hal_dma.c ****     case  HAL_DMA_XFER_ABORT_CB_ID:
ARM GAS  C:\Users\hanaj\AppData\Local\Temp\ccOrHUbU.s 			page 19


1000:Drivers/STM32F4xx_HAL_Driver/Src/stm32f4xx_hal_dma.c ****       hdma->XferAbortCallback = pCallback;
1001:Drivers/STM32F4xx_HAL_Driver/Src/stm32f4xx_hal_dma.c ****       break;
1002:Drivers/STM32F4xx_HAL_Driver/Src/stm32f4xx_hal_dma.c **** 
1003:Drivers/STM32F4xx_HAL_Driver/Src/stm32f4xx_hal_dma.c ****     default:
1004:Drivers/STM32F4xx_HAL_Driver/Src/stm32f4xx_hal_dma.c ****       /* Return error status */
1005:Drivers/STM32F4xx_HAL_Driver/Src/stm32f4xx_hal_dma.c ****       status =  HAL_ERROR;
1006:Drivers/STM32F4xx_HAL_Driver/Src/stm32f4xx_hal_dma.c ****       break;
1007:Drivers/STM32F4xx_HAL_Driver/Src/stm32f4xx_hal_dma.c ****     }
1008:Drivers/STM32F4xx_HAL_Driver/Src/stm32f4xx_hal_dma.c ****   }
1009:Drivers/STM32F4xx_HAL_Driver/Src/stm32f4xx_hal_dma.c ****   else
1010:Drivers/STM32F4xx_HAL_Driver/Src/stm32f4xx_hal_dma.c ****   {
1011:Drivers/STM32F4xx_HAL_Driver/Src/stm32f4xx_hal_dma.c ****     /* Return error status */
1012:Drivers/STM32F4xx_HAL_Driver/Src/stm32f4xx_hal_dma.c ****     status =  HAL_ERROR;
1013:Drivers/STM32F4xx_HAL_Driver/Src/stm32f4xx_hal_dma.c ****   }
1014:Drivers/STM32F4xx_HAL_Driver/Src/stm32f4xx_hal_dma.c **** 
1015:Drivers/STM32F4xx_HAL_Driver/Src/stm32f4xx_hal_dma.c ****   /* Release Lock */
1016:Drivers/STM32F4xx_HAL_Driver/Src/stm32f4xx_hal_dma.c ****   __HAL_UNLOCK(hdma);
1017:Drivers/STM32F4xx_HAL_Driver/Src/stm32f4xx_hal_dma.c ****   
1018:Drivers/STM32F4xx_HAL_Driver/Src/stm32f4xx_hal_dma.c ****   return status;
1019:Drivers/STM32F4xx_HAL_Driver/Src/stm32f4xx_hal_dma.c **** }
1020:Drivers/STM32F4xx_HAL_Driver/Src/stm32f4xx_hal_dma.c **** 
1021:Drivers/STM32F4xx_HAL_Driver/Src/stm32f4xx_hal_dma.c **** /**
1022:Drivers/STM32F4xx_HAL_Driver/Src/stm32f4xx_hal_dma.c ****   * @brief  UnRegister callbacks
1023:Drivers/STM32F4xx_HAL_Driver/Src/stm32f4xx_hal_dma.c ****   * @param  hdma                 pointer to a DMA_HandleTypeDef structure that contains
1024:Drivers/STM32F4xx_HAL_Driver/Src/stm32f4xx_hal_dma.c ****   *                               the configuration information for the specified DMA Stream.
1025:Drivers/STM32F4xx_HAL_Driver/Src/stm32f4xx_hal_dma.c ****   * @param  CallbackID           User Callback identifier
1026:Drivers/STM32F4xx_HAL_Driver/Src/stm32f4xx_hal_dma.c ****   *                               a HAL_DMA_CallbackIDTypeDef ENUM as parameter.
1027:Drivers/STM32F4xx_HAL_Driver/Src/stm32f4xx_hal_dma.c ****   * @retval HAL status
1028:Drivers/STM32F4xx_HAL_Driver/Src/stm32f4xx_hal_dma.c ****   */              
1029:Drivers/STM32F4xx_HAL_Driver/Src/stm32f4xx_hal_dma.c **** HAL_StatusTypeDef HAL_DMA_UnRegisterCallback(DMA_HandleTypeDef *hdma, HAL_DMA_CallbackIDTypeDef Cal
1030:Drivers/STM32F4xx_HAL_Driver/Src/stm32f4xx_hal_dma.c **** {
1031:Drivers/STM32F4xx_HAL_Driver/Src/stm32f4xx_hal_dma.c ****   HAL_StatusTypeDef status = HAL_OK;
1032:Drivers/STM32F4xx_HAL_Driver/Src/stm32f4xx_hal_dma.c ****   
1033:Drivers/STM32F4xx_HAL_Driver/Src/stm32f4xx_hal_dma.c ****   /* Process locked */
1034:Drivers/STM32F4xx_HAL_Driver/Src/stm32f4xx_hal_dma.c ****   __HAL_LOCK(hdma);
1035:Drivers/STM32F4xx_HAL_Driver/Src/stm32f4xx_hal_dma.c ****   
1036:Drivers/STM32F4xx_HAL_Driver/Src/stm32f4xx_hal_dma.c ****   if(HAL_DMA_STATE_READY == hdma->State)
1037:Drivers/STM32F4xx_HAL_Driver/Src/stm32f4xx_hal_dma.c ****   {
1038:Drivers/STM32F4xx_HAL_Driver/Src/stm32f4xx_hal_dma.c ****     switch (CallbackID)
1039:Drivers/STM32F4xx_HAL_Driver/Src/stm32f4xx_hal_dma.c ****     {
1040:Drivers/STM32F4xx_HAL_Driver/Src/stm32f4xx_hal_dma.c ****     case  HAL_DMA_XFER_CPLT_CB_ID:
1041:Drivers/STM32F4xx_HAL_Driver/Src/stm32f4xx_hal_dma.c ****       hdma->XferCpltCallback = NULL;
1042:Drivers/STM32F4xx_HAL_Driver/Src/stm32f4xx_hal_dma.c ****       break;
1043:Drivers/STM32F4xx_HAL_Driver/Src/stm32f4xx_hal_dma.c ****       
1044:Drivers/STM32F4xx_HAL_Driver/Src/stm32f4xx_hal_dma.c ****     case  HAL_DMA_XFER_HALFCPLT_CB_ID:
1045:Drivers/STM32F4xx_HAL_Driver/Src/stm32f4xx_hal_dma.c ****       hdma->XferHalfCpltCallback = NULL;
1046:Drivers/STM32F4xx_HAL_Driver/Src/stm32f4xx_hal_dma.c ****       break;
1047:Drivers/STM32F4xx_HAL_Driver/Src/stm32f4xx_hal_dma.c ****       
1048:Drivers/STM32F4xx_HAL_Driver/Src/stm32f4xx_hal_dma.c ****     case  HAL_DMA_XFER_M1CPLT_CB_ID:
1049:Drivers/STM32F4xx_HAL_Driver/Src/stm32f4xx_hal_dma.c ****       hdma->XferM1CpltCallback = NULL;
1050:Drivers/STM32F4xx_HAL_Driver/Src/stm32f4xx_hal_dma.c ****       break;
1051:Drivers/STM32F4xx_HAL_Driver/Src/stm32f4xx_hal_dma.c ****       
1052:Drivers/STM32F4xx_HAL_Driver/Src/stm32f4xx_hal_dma.c ****     case  HAL_DMA_XFER_M1HALFCPLT_CB_ID:
1053:Drivers/STM32F4xx_HAL_Driver/Src/stm32f4xx_hal_dma.c ****       hdma->XferM1HalfCpltCallback = NULL;
1054:Drivers/STM32F4xx_HAL_Driver/Src/stm32f4xx_hal_dma.c ****       break;
1055:Drivers/STM32F4xx_HAL_Driver/Src/stm32f4xx_hal_dma.c ****       
1056:Drivers/STM32F4xx_HAL_Driver/Src/stm32f4xx_hal_dma.c ****     case  HAL_DMA_XFER_ERROR_CB_ID:
ARM GAS  C:\Users\hanaj\AppData\Local\Temp\ccOrHUbU.s 			page 20


1057:Drivers/STM32F4xx_HAL_Driver/Src/stm32f4xx_hal_dma.c ****       hdma->XferErrorCallback = NULL;
1058:Drivers/STM32F4xx_HAL_Driver/Src/stm32f4xx_hal_dma.c ****       break;
1059:Drivers/STM32F4xx_HAL_Driver/Src/stm32f4xx_hal_dma.c ****       
1060:Drivers/STM32F4xx_HAL_Driver/Src/stm32f4xx_hal_dma.c ****     case  HAL_DMA_XFER_ABORT_CB_ID:
1061:Drivers/STM32F4xx_HAL_Driver/Src/stm32f4xx_hal_dma.c ****       hdma->XferAbortCallback = NULL;
1062:Drivers/STM32F4xx_HAL_Driver/Src/stm32f4xx_hal_dma.c ****       break; 
1063:Drivers/STM32F4xx_HAL_Driver/Src/stm32f4xx_hal_dma.c ****       
1064:Drivers/STM32F4xx_HAL_Driver/Src/stm32f4xx_hal_dma.c ****     case   HAL_DMA_XFER_ALL_CB_ID:
1065:Drivers/STM32F4xx_HAL_Driver/Src/stm32f4xx_hal_dma.c ****       hdma->XferCpltCallback = NULL;
1066:Drivers/STM32F4xx_HAL_Driver/Src/stm32f4xx_hal_dma.c ****       hdma->XferHalfCpltCallback = NULL;
1067:Drivers/STM32F4xx_HAL_Driver/Src/stm32f4xx_hal_dma.c ****       hdma->XferM1CpltCallback = NULL;
1068:Drivers/STM32F4xx_HAL_Driver/Src/stm32f4xx_hal_dma.c ****       hdma->XferM1HalfCpltCallback = NULL;
1069:Drivers/STM32F4xx_HAL_Driver/Src/stm32f4xx_hal_dma.c ****       hdma->XferErrorCallback = NULL;
1070:Drivers/STM32F4xx_HAL_Driver/Src/stm32f4xx_hal_dma.c ****       hdma->XferAbortCallback = NULL;
1071:Drivers/STM32F4xx_HAL_Driver/Src/stm32f4xx_hal_dma.c ****       break; 
1072:Drivers/STM32F4xx_HAL_Driver/Src/stm32f4xx_hal_dma.c ****       
1073:Drivers/STM32F4xx_HAL_Driver/Src/stm32f4xx_hal_dma.c ****     default:
1074:Drivers/STM32F4xx_HAL_Driver/Src/stm32f4xx_hal_dma.c ****       status = HAL_ERROR;
1075:Drivers/STM32F4xx_HAL_Driver/Src/stm32f4xx_hal_dma.c ****       break;
1076:Drivers/STM32F4xx_HAL_Driver/Src/stm32f4xx_hal_dma.c ****     }
1077:Drivers/STM32F4xx_HAL_Driver/Src/stm32f4xx_hal_dma.c ****   }
1078:Drivers/STM32F4xx_HAL_Driver/Src/stm32f4xx_hal_dma.c ****   else
1079:Drivers/STM32F4xx_HAL_Driver/Src/stm32f4xx_hal_dma.c ****   {
1080:Drivers/STM32F4xx_HAL_Driver/Src/stm32f4xx_hal_dma.c ****     status = HAL_ERROR;
1081:Drivers/STM32F4xx_HAL_Driver/Src/stm32f4xx_hal_dma.c ****   }
1082:Drivers/STM32F4xx_HAL_Driver/Src/stm32f4xx_hal_dma.c ****   
1083:Drivers/STM32F4xx_HAL_Driver/Src/stm32f4xx_hal_dma.c ****   /* Release Lock */
1084:Drivers/STM32F4xx_HAL_Driver/Src/stm32f4xx_hal_dma.c ****   __HAL_UNLOCK(hdma);
1085:Drivers/STM32F4xx_HAL_Driver/Src/stm32f4xx_hal_dma.c ****   
1086:Drivers/STM32F4xx_HAL_Driver/Src/stm32f4xx_hal_dma.c ****   return status;
1087:Drivers/STM32F4xx_HAL_Driver/Src/stm32f4xx_hal_dma.c **** }
1088:Drivers/STM32F4xx_HAL_Driver/Src/stm32f4xx_hal_dma.c **** 
1089:Drivers/STM32F4xx_HAL_Driver/Src/stm32f4xx_hal_dma.c **** /**
1090:Drivers/STM32F4xx_HAL_Driver/Src/stm32f4xx_hal_dma.c ****   * @}
1091:Drivers/STM32F4xx_HAL_Driver/Src/stm32f4xx_hal_dma.c ****   */
1092:Drivers/STM32F4xx_HAL_Driver/Src/stm32f4xx_hal_dma.c **** 
1093:Drivers/STM32F4xx_HAL_Driver/Src/stm32f4xx_hal_dma.c **** /** @addtogroup DMA_Exported_Functions_Group3
1094:Drivers/STM32F4xx_HAL_Driver/Src/stm32f4xx_hal_dma.c ****   *
1095:Drivers/STM32F4xx_HAL_Driver/Src/stm32f4xx_hal_dma.c **** @verbatim
1096:Drivers/STM32F4xx_HAL_Driver/Src/stm32f4xx_hal_dma.c ****  ===============================================================================
1097:Drivers/STM32F4xx_HAL_Driver/Src/stm32f4xx_hal_dma.c ****                     ##### State and Errors functions #####
1098:Drivers/STM32F4xx_HAL_Driver/Src/stm32f4xx_hal_dma.c ****  ===============================================================================
1099:Drivers/STM32F4xx_HAL_Driver/Src/stm32f4xx_hal_dma.c ****     [..]
1100:Drivers/STM32F4xx_HAL_Driver/Src/stm32f4xx_hal_dma.c ****     This subsection provides functions allowing to
1101:Drivers/STM32F4xx_HAL_Driver/Src/stm32f4xx_hal_dma.c ****       (+) Check the DMA state
1102:Drivers/STM32F4xx_HAL_Driver/Src/stm32f4xx_hal_dma.c ****       (+) Get error code
1103:Drivers/STM32F4xx_HAL_Driver/Src/stm32f4xx_hal_dma.c **** 
1104:Drivers/STM32F4xx_HAL_Driver/Src/stm32f4xx_hal_dma.c **** @endverbatim
1105:Drivers/STM32F4xx_HAL_Driver/Src/stm32f4xx_hal_dma.c ****   * @{
1106:Drivers/STM32F4xx_HAL_Driver/Src/stm32f4xx_hal_dma.c ****   */
1107:Drivers/STM32F4xx_HAL_Driver/Src/stm32f4xx_hal_dma.c **** 
1108:Drivers/STM32F4xx_HAL_Driver/Src/stm32f4xx_hal_dma.c **** /**
1109:Drivers/STM32F4xx_HAL_Driver/Src/stm32f4xx_hal_dma.c ****   * @brief  Returns the DMA state.
1110:Drivers/STM32F4xx_HAL_Driver/Src/stm32f4xx_hal_dma.c ****   * @param  hdma pointer to a DMA_HandleTypeDef structure that contains
1111:Drivers/STM32F4xx_HAL_Driver/Src/stm32f4xx_hal_dma.c ****   *               the configuration information for the specified DMA Stream.
1112:Drivers/STM32F4xx_HAL_Driver/Src/stm32f4xx_hal_dma.c ****   * @retval HAL state
1113:Drivers/STM32F4xx_HAL_Driver/Src/stm32f4xx_hal_dma.c ****   */
ARM GAS  C:\Users\hanaj\AppData\Local\Temp\ccOrHUbU.s 			page 21


1114:Drivers/STM32F4xx_HAL_Driver/Src/stm32f4xx_hal_dma.c **** HAL_DMA_StateTypeDef HAL_DMA_GetState(DMA_HandleTypeDef *hdma)
1115:Drivers/STM32F4xx_HAL_Driver/Src/stm32f4xx_hal_dma.c **** {
1116:Drivers/STM32F4xx_HAL_Driver/Src/stm32f4xx_hal_dma.c ****   return hdma->State;
1117:Drivers/STM32F4xx_HAL_Driver/Src/stm32f4xx_hal_dma.c **** }
1118:Drivers/STM32F4xx_HAL_Driver/Src/stm32f4xx_hal_dma.c **** 
1119:Drivers/STM32F4xx_HAL_Driver/Src/stm32f4xx_hal_dma.c **** /**
1120:Drivers/STM32F4xx_HAL_Driver/Src/stm32f4xx_hal_dma.c ****   * @brief  Return the DMA error code
1121:Drivers/STM32F4xx_HAL_Driver/Src/stm32f4xx_hal_dma.c ****   * @param  hdma  pointer to a DMA_HandleTypeDef structure that contains
1122:Drivers/STM32F4xx_HAL_Driver/Src/stm32f4xx_hal_dma.c ****   *              the configuration information for the specified DMA Stream.
1123:Drivers/STM32F4xx_HAL_Driver/Src/stm32f4xx_hal_dma.c ****   * @retval DMA Error Code
1124:Drivers/STM32F4xx_HAL_Driver/Src/stm32f4xx_hal_dma.c ****   */
1125:Drivers/STM32F4xx_HAL_Driver/Src/stm32f4xx_hal_dma.c **** uint32_t HAL_DMA_GetError(DMA_HandleTypeDef *hdma)
1126:Drivers/STM32F4xx_HAL_Driver/Src/stm32f4xx_hal_dma.c **** {
1127:Drivers/STM32F4xx_HAL_Driver/Src/stm32f4xx_hal_dma.c ****   return hdma->ErrorCode;
1128:Drivers/STM32F4xx_HAL_Driver/Src/stm32f4xx_hal_dma.c **** }
1129:Drivers/STM32F4xx_HAL_Driver/Src/stm32f4xx_hal_dma.c **** 
1130:Drivers/STM32F4xx_HAL_Driver/Src/stm32f4xx_hal_dma.c **** /**
1131:Drivers/STM32F4xx_HAL_Driver/Src/stm32f4xx_hal_dma.c ****   * @}
1132:Drivers/STM32F4xx_HAL_Driver/Src/stm32f4xx_hal_dma.c ****   */
1133:Drivers/STM32F4xx_HAL_Driver/Src/stm32f4xx_hal_dma.c **** 
1134:Drivers/STM32F4xx_HAL_Driver/Src/stm32f4xx_hal_dma.c **** /**
1135:Drivers/STM32F4xx_HAL_Driver/Src/stm32f4xx_hal_dma.c ****   * @}
1136:Drivers/STM32F4xx_HAL_Driver/Src/stm32f4xx_hal_dma.c ****   */
1137:Drivers/STM32F4xx_HAL_Driver/Src/stm32f4xx_hal_dma.c **** 
1138:Drivers/STM32F4xx_HAL_Driver/Src/stm32f4xx_hal_dma.c **** /** @addtogroup DMA_Private_Functions
1139:Drivers/STM32F4xx_HAL_Driver/Src/stm32f4xx_hal_dma.c ****   * @{
1140:Drivers/STM32F4xx_HAL_Driver/Src/stm32f4xx_hal_dma.c ****   */
1141:Drivers/STM32F4xx_HAL_Driver/Src/stm32f4xx_hal_dma.c **** 
1142:Drivers/STM32F4xx_HAL_Driver/Src/stm32f4xx_hal_dma.c **** /**
1143:Drivers/STM32F4xx_HAL_Driver/Src/stm32f4xx_hal_dma.c ****   * @brief  Sets the DMA Transfer parameter.
1144:Drivers/STM32F4xx_HAL_Driver/Src/stm32f4xx_hal_dma.c ****   * @param  hdma       pointer to a DMA_HandleTypeDef structure that contains
1145:Drivers/STM32F4xx_HAL_Driver/Src/stm32f4xx_hal_dma.c ****   *                     the configuration information for the specified DMA Stream.
1146:Drivers/STM32F4xx_HAL_Driver/Src/stm32f4xx_hal_dma.c ****   * @param  SrcAddress The source memory Buffer address
1147:Drivers/STM32F4xx_HAL_Driver/Src/stm32f4xx_hal_dma.c ****   * @param  DstAddress The destination memory Buffer address
1148:Drivers/STM32F4xx_HAL_Driver/Src/stm32f4xx_hal_dma.c ****   * @param  DataLength The length of data to be transferred from source to destination
1149:Drivers/STM32F4xx_HAL_Driver/Src/stm32f4xx_hal_dma.c ****   * @retval HAL status
1150:Drivers/STM32F4xx_HAL_Driver/Src/stm32f4xx_hal_dma.c ****   */
1151:Drivers/STM32F4xx_HAL_Driver/Src/stm32f4xx_hal_dma.c **** static void DMA_SetConfig(DMA_HandleTypeDef *hdma, uint32_t SrcAddress, uint32_t DstAddress, uint32
1152:Drivers/STM32F4xx_HAL_Driver/Src/stm32f4xx_hal_dma.c **** {
  29              		.loc 1 1152 1 view -0
  30              		.cfi_startproc
  31              		@ args = 0, pretend = 0, frame = 0
  32              		@ frame_needed = 0, uses_anonymous_args = 0
  33              		@ link register save eliminated.
  34              		.loc 1 1152 1 is_stmt 0 view .LVU1
  35 0000 30B4     		push	{r4, r5}
  36              	.LCFI0:
  37              		.cfi_def_cfa_offset 8
  38              		.cfi_offset 4, -8
  39              		.cfi_offset 5, -4
1153:Drivers/STM32F4xx_HAL_Driver/Src/stm32f4xx_hal_dma.c ****   /* Clear DBM bit */
1154:Drivers/STM32F4xx_HAL_Driver/Src/stm32f4xx_hal_dma.c ****   hdma->Instance->CR &= (uint32_t)(~DMA_SxCR_DBM);
  40              		.loc 1 1154 3 is_stmt 1 view .LVU2
  41              		.loc 1 1154 7 is_stmt 0 view .LVU3
  42 0002 0568     		ldr	r5, [r0]
  43              		.loc 1 1154 17 view .LVU4
  44 0004 2C68     		ldr	r4, [r5]
ARM GAS  C:\Users\hanaj\AppData\Local\Temp\ccOrHUbU.s 			page 22


  45              		.loc 1 1154 22 view .LVU5
  46 0006 24F48024 		bic	r4, r4, #262144
  47 000a 2C60     		str	r4, [r5]
1155:Drivers/STM32F4xx_HAL_Driver/Src/stm32f4xx_hal_dma.c **** 
1156:Drivers/STM32F4xx_HAL_Driver/Src/stm32f4xx_hal_dma.c ****   /* Configure DMA Stream data length */
1157:Drivers/STM32F4xx_HAL_Driver/Src/stm32f4xx_hal_dma.c ****   hdma->Instance->NDTR = DataLength;
  48              		.loc 1 1157 3 is_stmt 1 view .LVU6
  49              		.loc 1 1157 7 is_stmt 0 view .LVU7
  50 000c 0468     		ldr	r4, [r0]
  51              		.loc 1 1157 24 view .LVU8
  52 000e 6360     		str	r3, [r4, #4]
1158:Drivers/STM32F4xx_HAL_Driver/Src/stm32f4xx_hal_dma.c **** 
1159:Drivers/STM32F4xx_HAL_Driver/Src/stm32f4xx_hal_dma.c ****   /* Memory to Peripheral */
1160:Drivers/STM32F4xx_HAL_Driver/Src/stm32f4xx_hal_dma.c ****   if((hdma->Init.Direction) == DMA_MEMORY_TO_PERIPH)
  53              		.loc 1 1160 3 is_stmt 1 view .LVU9
  54              		.loc 1 1160 17 is_stmt 0 view .LVU10
  55 0010 8368     		ldr	r3, [r0, #8]
  56              	.LVL1:
  57              		.loc 1 1160 5 view .LVU11
  58 0012 402B     		cmp	r3, #64
  59 0014 05D0     		beq	.L5
1161:Drivers/STM32F4xx_HAL_Driver/Src/stm32f4xx_hal_dma.c ****   {
1162:Drivers/STM32F4xx_HAL_Driver/Src/stm32f4xx_hal_dma.c ****     /* Configure DMA Stream destination address */
1163:Drivers/STM32F4xx_HAL_Driver/Src/stm32f4xx_hal_dma.c ****     hdma->Instance->PAR = DstAddress;
1164:Drivers/STM32F4xx_HAL_Driver/Src/stm32f4xx_hal_dma.c **** 
1165:Drivers/STM32F4xx_HAL_Driver/Src/stm32f4xx_hal_dma.c ****     /* Configure DMA Stream source address */
1166:Drivers/STM32F4xx_HAL_Driver/Src/stm32f4xx_hal_dma.c ****     hdma->Instance->M0AR = SrcAddress;
1167:Drivers/STM32F4xx_HAL_Driver/Src/stm32f4xx_hal_dma.c ****   }
1168:Drivers/STM32F4xx_HAL_Driver/Src/stm32f4xx_hal_dma.c ****   /* Peripheral to Memory */
1169:Drivers/STM32F4xx_HAL_Driver/Src/stm32f4xx_hal_dma.c ****   else
1170:Drivers/STM32F4xx_HAL_Driver/Src/stm32f4xx_hal_dma.c ****   {
1171:Drivers/STM32F4xx_HAL_Driver/Src/stm32f4xx_hal_dma.c ****     /* Configure DMA Stream source address */
1172:Drivers/STM32F4xx_HAL_Driver/Src/stm32f4xx_hal_dma.c ****     hdma->Instance->PAR = SrcAddress;
  60              		.loc 1 1172 5 is_stmt 1 view .LVU12
  61              		.loc 1 1172 9 is_stmt 0 view .LVU13
  62 0016 0368     		ldr	r3, [r0]
  63              		.loc 1 1172 25 view .LVU14
  64 0018 9960     		str	r1, [r3, #8]
  65              	.LVL2:
1173:Drivers/STM32F4xx_HAL_Driver/Src/stm32f4xx_hal_dma.c **** 
1174:Drivers/STM32F4xx_HAL_Driver/Src/stm32f4xx_hal_dma.c ****     /* Configure DMA Stream destination address */
1175:Drivers/STM32F4xx_HAL_Driver/Src/stm32f4xx_hal_dma.c ****     hdma->Instance->M0AR = DstAddress;
  66              		.loc 1 1175 5 is_stmt 1 view .LVU15
  67              		.loc 1 1175 9 is_stmt 0 view .LVU16
  68 001a 0368     		ldr	r3, [r0]
  69              		.loc 1 1175 26 view .LVU17
  70 001c DA60     		str	r2, [r3, #12]
  71              	.L1:
1176:Drivers/STM32F4xx_HAL_Driver/Src/stm32f4xx_hal_dma.c ****   }
1177:Drivers/STM32F4xx_HAL_Driver/Src/stm32f4xx_hal_dma.c **** }
  72              		.loc 1 1177 1 view .LVU18
  73 001e 30BC     		pop	{r4, r5}
  74              	.LCFI1:
  75              		.cfi_remember_state
  76              		.cfi_restore 5
  77              		.cfi_restore 4
  78              		.cfi_def_cfa_offset 0
ARM GAS  C:\Users\hanaj\AppData\Local\Temp\ccOrHUbU.s 			page 23


  79 0020 7047     		bx	lr
  80              	.LVL3:
  81              	.L5:
  82              	.LCFI2:
  83              		.cfi_restore_state
1163:Drivers/STM32F4xx_HAL_Driver/Src/stm32f4xx_hal_dma.c **** 
  84              		.loc 1 1163 5 is_stmt 1 view .LVU19
1163:Drivers/STM32F4xx_HAL_Driver/Src/stm32f4xx_hal_dma.c **** 
  85              		.loc 1 1163 9 is_stmt 0 view .LVU20
  86 0022 0368     		ldr	r3, [r0]
1163:Drivers/STM32F4xx_HAL_Driver/Src/stm32f4xx_hal_dma.c **** 
  87              		.loc 1 1163 25 view .LVU21
  88 0024 9A60     		str	r2, [r3, #8]
  89              	.LVL4:
1166:Drivers/STM32F4xx_HAL_Driver/Src/stm32f4xx_hal_dma.c ****   }
  90              		.loc 1 1166 5 is_stmt 1 view .LVU22
1166:Drivers/STM32F4xx_HAL_Driver/Src/stm32f4xx_hal_dma.c ****   }
  91              		.loc 1 1166 9 is_stmt 0 view .LVU23
  92 0026 0368     		ldr	r3, [r0]
1166:Drivers/STM32F4xx_HAL_Driver/Src/stm32f4xx_hal_dma.c ****   }
  93              		.loc 1 1166 26 view .LVU24
  94 0028 D960     		str	r1, [r3, #12]
  95 002a F8E7     		b	.L1
  96              		.cfi_endproc
  97              	.LFE251:
  99              		.section	.text.DMA_CalcBaseAndBitshift,"ax",%progbits
 100              		.align	1
 101              		.syntax unified
 102              		.thumb
 103              		.thumb_func
 105              	DMA_CalcBaseAndBitshift:
 106              	.LVL5:
 107              	.LFB252:
1178:Drivers/STM32F4xx_HAL_Driver/Src/stm32f4xx_hal_dma.c **** 
1179:Drivers/STM32F4xx_HAL_Driver/Src/stm32f4xx_hal_dma.c **** /**
1180:Drivers/STM32F4xx_HAL_Driver/Src/stm32f4xx_hal_dma.c ****   * @brief  Returns the DMA Stream base address depending on stream number
1181:Drivers/STM32F4xx_HAL_Driver/Src/stm32f4xx_hal_dma.c ****   * @param  hdma       pointer to a DMA_HandleTypeDef structure that contains
1182:Drivers/STM32F4xx_HAL_Driver/Src/stm32f4xx_hal_dma.c ****   *                     the configuration information for the specified DMA Stream. 
1183:Drivers/STM32F4xx_HAL_Driver/Src/stm32f4xx_hal_dma.c ****   * @retval Stream base address
1184:Drivers/STM32F4xx_HAL_Driver/Src/stm32f4xx_hal_dma.c ****   */
1185:Drivers/STM32F4xx_HAL_Driver/Src/stm32f4xx_hal_dma.c **** static uint32_t DMA_CalcBaseAndBitshift(DMA_HandleTypeDef *hdma)
1186:Drivers/STM32F4xx_HAL_Driver/Src/stm32f4xx_hal_dma.c **** {
 108              		.loc 1 1186 1 is_stmt 1 view -0
 109              		.cfi_startproc
 110              		@ args = 0, pretend = 0, frame = 0
 111              		@ frame_needed = 0, uses_anonymous_args = 0
 112              		@ link register save eliminated.
 113              		.loc 1 1186 1 is_stmt 0 view .LVU26
 114 0000 10B4     		push	{r4}
 115              	.LCFI3:
 116              		.cfi_def_cfa_offset 4
 117              		.cfi_offset 4, -4
1187:Drivers/STM32F4xx_HAL_Driver/Src/stm32f4xx_hal_dma.c ****   uint32_t stream_number = (((uint32_t)hdma->Instance & 0xFFU) - 16U) / 24U;
 118              		.loc 1 1187 3 is_stmt 1 view .LVU27
 119              		.loc 1 1187 44 is_stmt 0 view .LVU28
 120 0002 0368     		ldr	r3, [r0]
 121              		.loc 1 1187 55 view .LVU29
ARM GAS  C:\Users\hanaj\AppData\Local\Temp\ccOrHUbU.s 			page 24


 122 0004 D9B2     		uxtb	r1, r3
 123              		.loc 1 1187 64 view .LVU30
 124 0006 1039     		subs	r1, r1, #16
 125              		.loc 1 1187 12 view .LVU31
 126 0008 0A4A     		ldr	r2, .L10
 127 000a A2FB0142 		umull	r4, r2, r2, r1
 128 000e 1209     		lsrs	r2, r2, #4
 129              	.LVL6:
1188:Drivers/STM32F4xx_HAL_Driver/Src/stm32f4xx_hal_dma.c ****   
1189:Drivers/STM32F4xx_HAL_Driver/Src/stm32f4xx_hal_dma.c ****   /* lookup table for necessary bitshift of flags within status registers */
1190:Drivers/STM32F4xx_HAL_Driver/Src/stm32f4xx_hal_dma.c ****   static const uint8_t flagBitshiftOffset[8U] = {0U, 6U, 16U, 22U, 0U, 6U, 16U, 22U};
 130              		.loc 1 1190 3 is_stmt 1 view .LVU32
1191:Drivers/STM32F4xx_HAL_Driver/Src/stm32f4xx_hal_dma.c ****   hdma->StreamIndex = flagBitshiftOffset[stream_number];
 131              		.loc 1 1191 3 view .LVU33
 132              		.loc 1 1191 41 is_stmt 0 view .LVU34
 133 0010 094C     		ldr	r4, .L10+4
 134 0012 A25C     		ldrb	r2, [r4, r2]	@ zero_extendqisi2
 135              	.LVL7:
 136              		.loc 1 1191 21 view .LVU35
 137 0014 C265     		str	r2, [r0, #92]
1192:Drivers/STM32F4xx_HAL_Driver/Src/stm32f4xx_hal_dma.c ****   
1193:Drivers/STM32F4xx_HAL_Driver/Src/stm32f4xx_hal_dma.c ****   if (stream_number > 3U)
 138              		.loc 1 1193 3 is_stmt 1 view .LVU36
 139              		.loc 1 1193 6 is_stmt 0 view .LVU37
 140 0016 5F29     		cmp	r1, #95
 141 0018 07D9     		bls	.L7
1194:Drivers/STM32F4xx_HAL_Driver/Src/stm32f4xx_hal_dma.c ****   {
1195:Drivers/STM32F4xx_HAL_Driver/Src/stm32f4xx_hal_dma.c ****     /* return pointer to HISR and HIFCR */
1196:Drivers/STM32F4xx_HAL_Driver/Src/stm32f4xx_hal_dma.c ****     hdma->StreamBaseAddress = (((uint32_t)hdma->Instance & (uint32_t)(~0x3FFU)) + 4U);
 142              		.loc 1 1196 5 is_stmt 1 view .LVU38
 143              		.loc 1 1196 58 is_stmt 0 view .LVU39
 144 001a 6FF30903 		bfc	r3, #0, #10
 145              		.loc 1 1196 81 view .LVU40
 146 001e 0433     		adds	r3, r3, #4
 147              		.loc 1 1196 29 view .LVU41
 148 0020 8365     		str	r3, [r0, #88]
 149              	.L8:
1197:Drivers/STM32F4xx_HAL_Driver/Src/stm32f4xx_hal_dma.c ****   }
1198:Drivers/STM32F4xx_HAL_Driver/Src/stm32f4xx_hal_dma.c ****   else
1199:Drivers/STM32F4xx_HAL_Driver/Src/stm32f4xx_hal_dma.c ****   {
1200:Drivers/STM32F4xx_HAL_Driver/Src/stm32f4xx_hal_dma.c ****     /* return pointer to LISR and LIFCR */
1201:Drivers/STM32F4xx_HAL_Driver/Src/stm32f4xx_hal_dma.c ****     hdma->StreamBaseAddress = ((uint32_t)hdma->Instance & (uint32_t)(~0x3FFU));
1202:Drivers/STM32F4xx_HAL_Driver/Src/stm32f4xx_hal_dma.c ****   }
1203:Drivers/STM32F4xx_HAL_Driver/Src/stm32f4xx_hal_dma.c ****   
1204:Drivers/STM32F4xx_HAL_Driver/Src/stm32f4xx_hal_dma.c ****   return hdma->StreamBaseAddress;
 150              		.loc 1 1204 3 is_stmt 1 view .LVU42
1205:Drivers/STM32F4xx_HAL_Driver/Src/stm32f4xx_hal_dma.c **** }
 151              		.loc 1 1205 1 is_stmt 0 view .LVU43
 152 0022 806D     		ldr	r0, [r0, #88]
 153              	.LVL8:
 154              		.loc 1 1205 1 view .LVU44
 155 0024 5DF8044B 		ldr	r4, [sp], #4
 156              	.LCFI4:
 157              		.cfi_remember_state
 158              		.cfi_restore 4
 159              		.cfi_def_cfa_offset 0
 160 0028 7047     		bx	lr
ARM GAS  C:\Users\hanaj\AppData\Local\Temp\ccOrHUbU.s 			page 25


 161              	.LVL9:
 162              	.L7:
 163              	.LCFI5:
 164              		.cfi_restore_state
1201:Drivers/STM32F4xx_HAL_Driver/Src/stm32f4xx_hal_dma.c ****   }
 165              		.loc 1 1201 5 is_stmt 1 view .LVU45
1201:Drivers/STM32F4xx_HAL_Driver/Src/stm32f4xx_hal_dma.c ****   }
 166              		.loc 1 1201 57 is_stmt 0 view .LVU46
 167 002a 6FF30903 		bfc	r3, #0, #10
1201:Drivers/STM32F4xx_HAL_Driver/Src/stm32f4xx_hal_dma.c ****   }
 168              		.loc 1 1201 29 view .LVU47
 169 002e 8365     		str	r3, [r0, #88]
 170 0030 F7E7     		b	.L8
 171              	.L11:
 172 0032 00BF     		.align	2
 173              	.L10:
 174 0034 ABAAAAAA 		.word	-1431655765
 175 0038 00000000 		.word	flagBitshiftOffset.0
 176              		.cfi_endproc
 177              	.LFE252:
 179              		.section	.text.DMA_CheckFifoParam,"ax",%progbits
 180              		.align	1
 181              		.syntax unified
 182              		.thumb
 183              		.thumb_func
 185              	DMA_CheckFifoParam:
 186              	.LVL10:
 187              	.LFB253:
1206:Drivers/STM32F4xx_HAL_Driver/Src/stm32f4xx_hal_dma.c **** 
1207:Drivers/STM32F4xx_HAL_Driver/Src/stm32f4xx_hal_dma.c **** /**
1208:Drivers/STM32F4xx_HAL_Driver/Src/stm32f4xx_hal_dma.c ****   * @brief  Check compatibility between FIFO threshold level and size of the memory burst
1209:Drivers/STM32F4xx_HAL_Driver/Src/stm32f4xx_hal_dma.c ****   * @param  hdma       pointer to a DMA_HandleTypeDef structure that contains
1210:Drivers/STM32F4xx_HAL_Driver/Src/stm32f4xx_hal_dma.c ****   *                     the configuration information for the specified DMA Stream. 
1211:Drivers/STM32F4xx_HAL_Driver/Src/stm32f4xx_hal_dma.c ****   * @retval HAL status
1212:Drivers/STM32F4xx_HAL_Driver/Src/stm32f4xx_hal_dma.c ****   */
1213:Drivers/STM32F4xx_HAL_Driver/Src/stm32f4xx_hal_dma.c **** static HAL_StatusTypeDef DMA_CheckFifoParam(DMA_HandleTypeDef *hdma)
1214:Drivers/STM32F4xx_HAL_Driver/Src/stm32f4xx_hal_dma.c **** {
 188              		.loc 1 1214 1 is_stmt 1 view -0
 189              		.cfi_startproc
 190              		@ args = 0, pretend = 0, frame = 0
 191              		@ frame_needed = 0, uses_anonymous_args = 0
 192              		@ link register save eliminated.
1215:Drivers/STM32F4xx_HAL_Driver/Src/stm32f4xx_hal_dma.c ****   HAL_StatusTypeDef status = HAL_OK;
 193              		.loc 1 1215 3 view .LVU49
1216:Drivers/STM32F4xx_HAL_Driver/Src/stm32f4xx_hal_dma.c ****   uint32_t tmp = hdma->Init.FIFOThreshold;
 194              		.loc 1 1216 3 view .LVU50
 195              		.loc 1 1216 12 is_stmt 0 view .LVU51
 196 0000 836A     		ldr	r3, [r0, #40]
 197              	.LVL11:
1217:Drivers/STM32F4xx_HAL_Driver/Src/stm32f4xx_hal_dma.c ****   
1218:Drivers/STM32F4xx_HAL_Driver/Src/stm32f4xx_hal_dma.c ****   /* Memory Data size equal to Byte */
1219:Drivers/STM32F4xx_HAL_Driver/Src/stm32f4xx_hal_dma.c ****   if(hdma->Init.MemDataAlignment == DMA_MDATAALIGN_BYTE)
 198              		.loc 1 1219 3 is_stmt 1 view .LVU52
 199              		.loc 1 1219 16 is_stmt 0 view .LVU53
 200 0002 8269     		ldr	r2, [r0, #24]
 201              		.loc 1 1219 5 view .LVU54
 202 0004 92B9     		cbnz	r2, .L13
ARM GAS  C:\Users\hanaj\AppData\Local\Temp\ccOrHUbU.s 			page 26


1220:Drivers/STM32F4xx_HAL_Driver/Src/stm32f4xx_hal_dma.c ****   {
1221:Drivers/STM32F4xx_HAL_Driver/Src/stm32f4xx_hal_dma.c ****     switch (tmp)
 203              		.loc 1 1221 5 is_stmt 1 view .LVU55
 204 0006 012B     		cmp	r3, #1
 205 0008 0AD0     		beq	.L14
 206 000a 022B     		cmp	r3, #2
 207 000c 02D0     		beq	.L15
 208 000e 0BB1     		cbz	r3, .L15
 209 0010 0020     		movs	r0, #0
 210              	.LVL12:
 211              		.loc 1 1221 5 is_stmt 0 view .LVU56
 212 0012 7047     		bx	lr
 213              	.LVL13:
 214              	.L15:
1222:Drivers/STM32F4xx_HAL_Driver/Src/stm32f4xx_hal_dma.c ****     {
1223:Drivers/STM32F4xx_HAL_Driver/Src/stm32f4xx_hal_dma.c ****     case DMA_FIFO_THRESHOLD_1QUARTERFULL:
1224:Drivers/STM32F4xx_HAL_Driver/Src/stm32f4xx_hal_dma.c ****     case DMA_FIFO_THRESHOLD_3QUARTERSFULL:
1225:Drivers/STM32F4xx_HAL_Driver/Src/stm32f4xx_hal_dma.c ****       if ((hdma->Init.MemBurst & DMA_SxCR_MBURST_1) == DMA_SxCR_MBURST_1)
 215              		.loc 1 1225 7 is_stmt 1 view .LVU57
 216              		.loc 1 1225 22 is_stmt 0 view .LVU58
 217 0014 C36A     		ldr	r3, [r0, #44]
 218              	.LVL14:
 219              		.loc 1 1225 10 view .LVU59
 220 0016 13F0807F 		tst	r3, #16777216
 221 001a 28D1     		bne	.L23
1215:Drivers/STM32F4xx_HAL_Driver/Src/stm32f4xx_hal_dma.c ****   uint32_t tmp = hdma->Init.FIFOThreshold;
 222              		.loc 1 1215 21 view .LVU60
 223 001c 0020     		movs	r0, #0
 224              	.LVL15:
1215:Drivers/STM32F4xx_HAL_Driver/Src/stm32f4xx_hal_dma.c ****   uint32_t tmp = hdma->Init.FIFOThreshold;
 225              		.loc 1 1215 21 view .LVU61
 226 001e 7047     		bx	lr
 227              	.LVL16:
 228              	.L14:
1226:Drivers/STM32F4xx_HAL_Driver/Src/stm32f4xx_hal_dma.c ****       {
1227:Drivers/STM32F4xx_HAL_Driver/Src/stm32f4xx_hal_dma.c ****         status = HAL_ERROR;
1228:Drivers/STM32F4xx_HAL_Driver/Src/stm32f4xx_hal_dma.c ****       }
1229:Drivers/STM32F4xx_HAL_Driver/Src/stm32f4xx_hal_dma.c ****       break;
1230:Drivers/STM32F4xx_HAL_Driver/Src/stm32f4xx_hal_dma.c ****     case DMA_FIFO_THRESHOLD_HALFFULL:
1231:Drivers/STM32F4xx_HAL_Driver/Src/stm32f4xx_hal_dma.c ****       if (hdma->Init.MemBurst == DMA_MBURST_INC16)
 229              		.loc 1 1231 7 is_stmt 1 view .LVU62
 230              		.loc 1 1231 21 is_stmt 0 view .LVU63
 231 0020 C36A     		ldr	r3, [r0, #44]
 232              	.LVL17:
 233              		.loc 1 1231 10 view .LVU64
 234 0022 B3F1C07F 		cmp	r3, #25165824
 235 0026 24D0     		beq	.L24
1215:Drivers/STM32F4xx_HAL_Driver/Src/stm32f4xx_hal_dma.c ****   uint32_t tmp = hdma->Init.FIFOThreshold;
 236              		.loc 1 1215 21 view .LVU65
 237 0028 0020     		movs	r0, #0
 238              	.LVL18:
1215:Drivers/STM32F4xx_HAL_Driver/Src/stm32f4xx_hal_dma.c ****   uint32_t tmp = hdma->Init.FIFOThreshold;
 239              		.loc 1 1215 21 view .LVU66
 240 002a 7047     		bx	lr
 241              	.LVL19:
 242              	.L13:
1232:Drivers/STM32F4xx_HAL_Driver/Src/stm32f4xx_hal_dma.c ****       {
ARM GAS  C:\Users\hanaj\AppData\Local\Temp\ccOrHUbU.s 			page 27


1233:Drivers/STM32F4xx_HAL_Driver/Src/stm32f4xx_hal_dma.c ****         status = HAL_ERROR;
1234:Drivers/STM32F4xx_HAL_Driver/Src/stm32f4xx_hal_dma.c ****       }
1235:Drivers/STM32F4xx_HAL_Driver/Src/stm32f4xx_hal_dma.c ****       break;
1236:Drivers/STM32F4xx_HAL_Driver/Src/stm32f4xx_hal_dma.c ****     case DMA_FIFO_THRESHOLD_FULL:
1237:Drivers/STM32F4xx_HAL_Driver/Src/stm32f4xx_hal_dma.c ****       break;
1238:Drivers/STM32F4xx_HAL_Driver/Src/stm32f4xx_hal_dma.c ****     default:
1239:Drivers/STM32F4xx_HAL_Driver/Src/stm32f4xx_hal_dma.c ****       break;
1240:Drivers/STM32F4xx_HAL_Driver/Src/stm32f4xx_hal_dma.c ****     }
1241:Drivers/STM32F4xx_HAL_Driver/Src/stm32f4xx_hal_dma.c ****   }
1242:Drivers/STM32F4xx_HAL_Driver/Src/stm32f4xx_hal_dma.c ****   
1243:Drivers/STM32F4xx_HAL_Driver/Src/stm32f4xx_hal_dma.c ****   /* Memory Data size equal to Half-Word */
1244:Drivers/STM32F4xx_HAL_Driver/Src/stm32f4xx_hal_dma.c ****   else if (hdma->Init.MemDataAlignment == DMA_MDATAALIGN_HALFWORD)
 243              		.loc 1 1244 8 is_stmt 1 view .LVU67
 244              		.loc 1 1244 11 is_stmt 0 view .LVU68
 245 002c B2F5005F 		cmp	r2, #8192
 246 0030 09D0     		beq	.L31
1245:Drivers/STM32F4xx_HAL_Driver/Src/stm32f4xx_hal_dma.c ****   {
1246:Drivers/STM32F4xx_HAL_Driver/Src/stm32f4xx_hal_dma.c ****     switch (tmp)
1247:Drivers/STM32F4xx_HAL_Driver/Src/stm32f4xx_hal_dma.c ****     {
1248:Drivers/STM32F4xx_HAL_Driver/Src/stm32f4xx_hal_dma.c ****     case DMA_FIFO_THRESHOLD_1QUARTERFULL:
1249:Drivers/STM32F4xx_HAL_Driver/Src/stm32f4xx_hal_dma.c ****     case DMA_FIFO_THRESHOLD_3QUARTERSFULL:
1250:Drivers/STM32F4xx_HAL_Driver/Src/stm32f4xx_hal_dma.c ****       status = HAL_ERROR;
1251:Drivers/STM32F4xx_HAL_Driver/Src/stm32f4xx_hal_dma.c ****       break;
1252:Drivers/STM32F4xx_HAL_Driver/Src/stm32f4xx_hal_dma.c ****     case DMA_FIFO_THRESHOLD_HALFFULL:
1253:Drivers/STM32F4xx_HAL_Driver/Src/stm32f4xx_hal_dma.c ****       if ((hdma->Init.MemBurst & DMA_SxCR_MBURST_1) == DMA_SxCR_MBURST_1)
1254:Drivers/STM32F4xx_HAL_Driver/Src/stm32f4xx_hal_dma.c ****       {
1255:Drivers/STM32F4xx_HAL_Driver/Src/stm32f4xx_hal_dma.c ****         status = HAL_ERROR;
1256:Drivers/STM32F4xx_HAL_Driver/Src/stm32f4xx_hal_dma.c ****       }
1257:Drivers/STM32F4xx_HAL_Driver/Src/stm32f4xx_hal_dma.c ****       break;
1258:Drivers/STM32F4xx_HAL_Driver/Src/stm32f4xx_hal_dma.c ****     case DMA_FIFO_THRESHOLD_FULL:
1259:Drivers/STM32F4xx_HAL_Driver/Src/stm32f4xx_hal_dma.c ****       if (hdma->Init.MemBurst == DMA_MBURST_INC16)
1260:Drivers/STM32F4xx_HAL_Driver/Src/stm32f4xx_hal_dma.c ****       {
1261:Drivers/STM32F4xx_HAL_Driver/Src/stm32f4xx_hal_dma.c ****         status = HAL_ERROR;
1262:Drivers/STM32F4xx_HAL_Driver/Src/stm32f4xx_hal_dma.c ****       }
1263:Drivers/STM32F4xx_HAL_Driver/Src/stm32f4xx_hal_dma.c ****       break;   
1264:Drivers/STM32F4xx_HAL_Driver/Src/stm32f4xx_hal_dma.c ****     default:
1265:Drivers/STM32F4xx_HAL_Driver/Src/stm32f4xx_hal_dma.c ****       break;
1266:Drivers/STM32F4xx_HAL_Driver/Src/stm32f4xx_hal_dma.c ****     }
1267:Drivers/STM32F4xx_HAL_Driver/Src/stm32f4xx_hal_dma.c ****   }
1268:Drivers/STM32F4xx_HAL_Driver/Src/stm32f4xx_hal_dma.c ****   
1269:Drivers/STM32F4xx_HAL_Driver/Src/stm32f4xx_hal_dma.c ****   /* Memory Data size equal to Word */
1270:Drivers/STM32F4xx_HAL_Driver/Src/stm32f4xx_hal_dma.c ****   else
1271:Drivers/STM32F4xx_HAL_Driver/Src/stm32f4xx_hal_dma.c ****   {
1272:Drivers/STM32F4xx_HAL_Driver/Src/stm32f4xx_hal_dma.c ****     switch (tmp)
 247              		.loc 1 1272 5 is_stmt 1 view .LVU69
 248 0032 022B     		cmp	r3, #2
 249 0034 25D9     		bls	.L28
 250 0036 032B     		cmp	r3, #3
 251 0038 25D1     		bne	.L29
1273:Drivers/STM32F4xx_HAL_Driver/Src/stm32f4xx_hal_dma.c ****     {
1274:Drivers/STM32F4xx_HAL_Driver/Src/stm32f4xx_hal_dma.c ****     case DMA_FIFO_THRESHOLD_1QUARTERFULL:
1275:Drivers/STM32F4xx_HAL_Driver/Src/stm32f4xx_hal_dma.c ****     case DMA_FIFO_THRESHOLD_HALFFULL:
1276:Drivers/STM32F4xx_HAL_Driver/Src/stm32f4xx_hal_dma.c ****     case DMA_FIFO_THRESHOLD_3QUARTERSFULL:
1277:Drivers/STM32F4xx_HAL_Driver/Src/stm32f4xx_hal_dma.c ****       status = HAL_ERROR;
1278:Drivers/STM32F4xx_HAL_Driver/Src/stm32f4xx_hal_dma.c ****       break;
1279:Drivers/STM32F4xx_HAL_Driver/Src/stm32f4xx_hal_dma.c ****     case DMA_FIFO_THRESHOLD_FULL:
1280:Drivers/STM32F4xx_HAL_Driver/Src/stm32f4xx_hal_dma.c ****       if ((hdma->Init.MemBurst & DMA_SxCR_MBURST_1) == DMA_SxCR_MBURST_1)
ARM GAS  C:\Users\hanaj\AppData\Local\Temp\ccOrHUbU.s 			page 28


 252              		.loc 1 1280 7 view .LVU70
 253              		.loc 1 1280 22 is_stmt 0 view .LVU71
 254 003a C36A     		ldr	r3, [r0, #44]
 255              	.LVL20:
 256              		.loc 1 1280 10 view .LVU72
 257 003c 13F0807F 		tst	r3, #16777216
 258 0040 23D1     		bne	.L30
1215:Drivers/STM32F4xx_HAL_Driver/Src/stm32f4xx_hal_dma.c ****   uint32_t tmp = hdma->Init.FIFOThreshold;
 259              		.loc 1 1215 21 view .LVU73
 260 0042 0020     		movs	r0, #0
 261              	.LVL21:
1215:Drivers/STM32F4xx_HAL_Driver/Src/stm32f4xx_hal_dma.c ****   uint32_t tmp = hdma->Init.FIFOThreshold;
 262              		.loc 1 1215 21 view .LVU74
 263 0044 7047     		bx	lr
 264              	.LVL22:
 265              	.L31:
1246:Drivers/STM32F4xx_HAL_Driver/Src/stm32f4xx_hal_dma.c ****     {
 266              		.loc 1 1246 5 is_stmt 1 view .LVU75
 267 0046 032B     		cmp	r3, #3
 268 0048 03D8     		bhi	.L18
 269 004a DFE803F0 		tbb	[pc, r3]
 270              	.L20:
 271 004e 14       		.byte	(.L25-.L20)/2
 272 004f 04       		.byte	(.L21-.L20)/2
 273 0050 14       		.byte	(.L25-.L20)/2
 274 0051 0A       		.byte	(.L19-.L20)/2
 275              		.p2align 1
 276              	.L18:
 277 0052 0020     		movs	r0, #0
 278              	.LVL23:
1246:Drivers/STM32F4xx_HAL_Driver/Src/stm32f4xx_hal_dma.c ****     {
 279              		.loc 1 1246 5 is_stmt 0 view .LVU76
 280 0054 7047     		bx	lr
 281              	.LVL24:
 282              	.L21:
1253:Drivers/STM32F4xx_HAL_Driver/Src/stm32f4xx_hal_dma.c ****       {
 283              		.loc 1 1253 7 is_stmt 1 view .LVU77
1253:Drivers/STM32F4xx_HAL_Driver/Src/stm32f4xx_hal_dma.c ****       {
 284              		.loc 1 1253 22 is_stmt 0 view .LVU78
 285 0056 C36A     		ldr	r3, [r0, #44]
 286              	.LVL25:
1253:Drivers/STM32F4xx_HAL_Driver/Src/stm32f4xx_hal_dma.c ****       {
 287              		.loc 1 1253 10 view .LVU79
 288 0058 13F0807F 		tst	r3, #16777216
 289 005c 0DD1     		bne	.L26
1215:Drivers/STM32F4xx_HAL_Driver/Src/stm32f4xx_hal_dma.c ****   uint32_t tmp = hdma->Init.FIFOThreshold;
 290              		.loc 1 1215 21 view .LVU80
 291 005e 0020     		movs	r0, #0
 292              	.LVL26:
1215:Drivers/STM32F4xx_HAL_Driver/Src/stm32f4xx_hal_dma.c ****   uint32_t tmp = hdma->Init.FIFOThreshold;
 293              		.loc 1 1215 21 view .LVU81
 294 0060 7047     		bx	lr
 295              	.LVL27:
 296              	.L19:
1259:Drivers/STM32F4xx_HAL_Driver/Src/stm32f4xx_hal_dma.c ****       {
 297              		.loc 1 1259 7 is_stmt 1 view .LVU82
1259:Drivers/STM32F4xx_HAL_Driver/Src/stm32f4xx_hal_dma.c ****       {
ARM GAS  C:\Users\hanaj\AppData\Local\Temp\ccOrHUbU.s 			page 29


 298              		.loc 1 1259 21 is_stmt 0 view .LVU83
 299 0062 C36A     		ldr	r3, [r0, #44]
 300              	.LVL28:
1259:Drivers/STM32F4xx_HAL_Driver/Src/stm32f4xx_hal_dma.c ****       {
 301              		.loc 1 1259 10 view .LVU84
 302 0064 B3F1C07F 		cmp	r3, #25165824
 303 0068 09D0     		beq	.L27
1215:Drivers/STM32F4xx_HAL_Driver/Src/stm32f4xx_hal_dma.c ****   uint32_t tmp = hdma->Init.FIFOThreshold;
 304              		.loc 1 1215 21 view .LVU85
 305 006a 0020     		movs	r0, #0
 306              	.LVL29:
1215:Drivers/STM32F4xx_HAL_Driver/Src/stm32f4xx_hal_dma.c ****   uint32_t tmp = hdma->Init.FIFOThreshold;
 307              		.loc 1 1215 21 view .LVU86
 308 006c 7047     		bx	lr
 309              	.LVL30:
 310              	.L23:
1227:Drivers/STM32F4xx_HAL_Driver/Src/stm32f4xx_hal_dma.c ****       }
 311              		.loc 1 1227 16 view .LVU87
 312 006e 0120     		movs	r0, #1
 313              	.LVL31:
1227:Drivers/STM32F4xx_HAL_Driver/Src/stm32f4xx_hal_dma.c ****       }
 314              		.loc 1 1227 16 view .LVU88
 315 0070 7047     		bx	lr
 316              	.LVL32:
 317              	.L24:
1233:Drivers/STM32F4xx_HAL_Driver/Src/stm32f4xx_hal_dma.c ****       }
 318              		.loc 1 1233 16 view .LVU89
 319 0072 0120     		movs	r0, #1
 320              	.LVL33:
1233:Drivers/STM32F4xx_HAL_Driver/Src/stm32f4xx_hal_dma.c ****       }
 321              		.loc 1 1233 16 view .LVU90
 322 0074 7047     		bx	lr
 323              	.LVL34:
 324              	.L25:
1250:Drivers/STM32F4xx_HAL_Driver/Src/stm32f4xx_hal_dma.c ****       break;
 325              		.loc 1 1250 14 view .LVU91
 326 0076 0120     		movs	r0, #1
 327              	.LVL35:
1250:Drivers/STM32F4xx_HAL_Driver/Src/stm32f4xx_hal_dma.c ****       break;
 328              		.loc 1 1250 14 view .LVU92
 329 0078 7047     		bx	lr
 330              	.LVL36:
 331              	.L26:
1255:Drivers/STM32F4xx_HAL_Driver/Src/stm32f4xx_hal_dma.c ****       }
 332              		.loc 1 1255 16 view .LVU93
 333 007a 0120     		movs	r0, #1
 334              	.LVL37:
1255:Drivers/STM32F4xx_HAL_Driver/Src/stm32f4xx_hal_dma.c ****       }
 335              		.loc 1 1255 16 view .LVU94
 336 007c 7047     		bx	lr
 337              	.LVL38:
 338              	.L27:
1261:Drivers/STM32F4xx_HAL_Driver/Src/stm32f4xx_hal_dma.c ****       }
 339              		.loc 1 1261 16 view .LVU95
 340 007e 0120     		movs	r0, #1
 341              	.LVL39:
1261:Drivers/STM32F4xx_HAL_Driver/Src/stm32f4xx_hal_dma.c ****       }
ARM GAS  C:\Users\hanaj\AppData\Local\Temp\ccOrHUbU.s 			page 30


 342              		.loc 1 1261 16 view .LVU96
 343 0080 7047     		bx	lr
 344              	.LVL40:
 345              	.L28:
1277:Drivers/STM32F4xx_HAL_Driver/Src/stm32f4xx_hal_dma.c ****       break;
 346              		.loc 1 1277 14 view .LVU97
 347 0082 0120     		movs	r0, #1
 348              	.LVL41:
1277:Drivers/STM32F4xx_HAL_Driver/Src/stm32f4xx_hal_dma.c ****       break;
 349              		.loc 1 1277 14 view .LVU98
 350 0084 7047     		bx	lr
 351              	.LVL42:
 352              	.L29:
1272:Drivers/STM32F4xx_HAL_Driver/Src/stm32f4xx_hal_dma.c ****     {
 353              		.loc 1 1272 5 view .LVU99
 354 0086 0020     		movs	r0, #0
 355              	.LVL43:
1272:Drivers/STM32F4xx_HAL_Driver/Src/stm32f4xx_hal_dma.c ****     {
 356              		.loc 1 1272 5 view .LVU100
 357 0088 7047     		bx	lr
 358              	.LVL44:
 359              	.L30:
1281:Drivers/STM32F4xx_HAL_Driver/Src/stm32f4xx_hal_dma.c ****       {
1282:Drivers/STM32F4xx_HAL_Driver/Src/stm32f4xx_hal_dma.c ****         status = HAL_ERROR;
 360              		.loc 1 1282 16 view .LVU101
 361 008a 0120     		movs	r0, #1
 362              	.LVL45:
1283:Drivers/STM32F4xx_HAL_Driver/Src/stm32f4xx_hal_dma.c ****       }
1284:Drivers/STM32F4xx_HAL_Driver/Src/stm32f4xx_hal_dma.c ****       break;
1285:Drivers/STM32F4xx_HAL_Driver/Src/stm32f4xx_hal_dma.c ****     default:
1286:Drivers/STM32F4xx_HAL_Driver/Src/stm32f4xx_hal_dma.c ****       break;
1287:Drivers/STM32F4xx_HAL_Driver/Src/stm32f4xx_hal_dma.c ****     }
1288:Drivers/STM32F4xx_HAL_Driver/Src/stm32f4xx_hal_dma.c ****   } 
1289:Drivers/STM32F4xx_HAL_Driver/Src/stm32f4xx_hal_dma.c ****   
1290:Drivers/STM32F4xx_HAL_Driver/Src/stm32f4xx_hal_dma.c ****   return status; 
 363              		.loc 1 1290 3 is_stmt 1 view .LVU102
1291:Drivers/STM32F4xx_HAL_Driver/Src/stm32f4xx_hal_dma.c **** }
 364              		.loc 1 1291 1 is_stmt 0 view .LVU103
 365 008c 7047     		bx	lr
 366              		.cfi_endproc
 367              	.LFE253:
 369              		.section	.rodata.HAL_DMA_Init.str1.4,"aMS",%progbits,1
 370              		.align	2
 371              	.LC0:
 372 0000 44726976 		.ascii	"Drivers/STM32F4xx_HAL_Driver/Src/stm32f4xx_hal_dma."
 372      6572732F 
 372      53544D33 
 372      32463478 
 372      785F4841 
 373 0033 6300     		.ascii	"c\000"
 374              		.section	.text.HAL_DMA_Init,"ax",%progbits
 375              		.align	1
 376              		.global	HAL_DMA_Init
 377              		.syntax unified
 378              		.thumb
 379              		.thumb_func
 381              	HAL_DMA_Init:
ARM GAS  C:\Users\hanaj\AppData\Local\Temp\ccOrHUbU.s 			page 31


 382              	.LVL46:
 383              	.LFB239:
 171:Drivers/STM32F4xx_HAL_Driver/Src/stm32f4xx_hal_dma.c ****   uint32_t tmp = 0U;
 384              		.loc 1 171 1 is_stmt 1 view -0
 385              		.cfi_startproc
 386              		@ args = 0, pretend = 0, frame = 0
 387              		@ frame_needed = 0, uses_anonymous_args = 0
 171:Drivers/STM32F4xx_HAL_Driver/Src/stm32f4xx_hal_dma.c ****   uint32_t tmp = 0U;
 388              		.loc 1 171 1 is_stmt 0 view .LVU105
 389 0000 70B5     		push	{r4, r5, r6, lr}
 390              	.LCFI6:
 391              		.cfi_def_cfa_offset 16
 392              		.cfi_offset 4, -16
 393              		.cfi_offset 5, -12
 394              		.cfi_offset 6, -8
 395              		.cfi_offset 14, -4
 396 0002 0446     		mov	r4, r0
 172:Drivers/STM32F4xx_HAL_Driver/Src/stm32f4xx_hal_dma.c ****   uint32_t tickstart = HAL_GetTick();
 397              		.loc 1 172 3 is_stmt 1 view .LVU106
 398              	.LVL47:
 173:Drivers/STM32F4xx_HAL_Driver/Src/stm32f4xx_hal_dma.c ****   DMA_Base_Registers *regs;
 399              		.loc 1 173 3 view .LVU107
 173:Drivers/STM32F4xx_HAL_Driver/Src/stm32f4xx_hal_dma.c ****   DMA_Base_Registers *regs;
 400              		.loc 1 173 24 is_stmt 0 view .LVU108
 401 0004 FFF7FEFF 		bl	HAL_GetTick
 402              	.LVL48:
 174:Drivers/STM32F4xx_HAL_Driver/Src/stm32f4xx_hal_dma.c **** 
 403              		.loc 1 174 3 is_stmt 1 view .LVU109
 177:Drivers/STM32F4xx_HAL_Driver/Src/stm32f4xx_hal_dma.c ****   {
 404              		.loc 1 177 3 view .LVU110
 177:Drivers/STM32F4xx_HAL_Driver/Src/stm32f4xx_hal_dma.c ****   {
 405              		.loc 1 177 5 is_stmt 0 view .LVU111
 406 0008 002C     		cmp	r4, #0
 407 000a 00F03E81 		beq	.L51
 408 000e 0546     		mov	r5, r0
 183:Drivers/STM32F4xx_HAL_Driver/Src/stm32f4xx_hal_dma.c ****   assert_param(IS_DMA_CHANNEL(hdma->Init.Channel));
 409              		.loc 1 183 3 is_stmt 1 view .LVU112
 410 0010 2368     		ldr	r3, [r4]
 411 0012 954A     		ldr	r2, .L68
 412 0014 9342     		cmp	r3, r2
 413 0016 31D0     		beq	.L34
 183:Drivers/STM32F4xx_HAL_Driver/Src/stm32f4xx_hal_dma.c ****   assert_param(IS_DMA_CHANNEL(hdma->Init.Channel));
 414              		.loc 1 183 3 is_stmt 0 discriminator 1 view .LVU113
 415 0018 1832     		adds	r2, r2, #24
 416 001a 9342     		cmp	r3, r2
 417 001c 2ED0     		beq	.L34
 183:Drivers/STM32F4xx_HAL_Driver/Src/stm32f4xx_hal_dma.c ****   assert_param(IS_DMA_CHANNEL(hdma->Init.Channel));
 418              		.loc 1 183 3 discriminator 2 view .LVU114
 419 001e 1832     		adds	r2, r2, #24
 420 0020 9342     		cmp	r3, r2
 421 0022 2BD0     		beq	.L34
 183:Drivers/STM32F4xx_HAL_Driver/Src/stm32f4xx_hal_dma.c ****   assert_param(IS_DMA_CHANNEL(hdma->Init.Channel));
 422              		.loc 1 183 3 discriminator 3 view .LVU115
 423 0024 1832     		adds	r2, r2, #24
 424 0026 9342     		cmp	r3, r2
 425 0028 28D0     		beq	.L34
 183:Drivers/STM32F4xx_HAL_Driver/Src/stm32f4xx_hal_dma.c ****   assert_param(IS_DMA_CHANNEL(hdma->Init.Channel));
ARM GAS  C:\Users\hanaj\AppData\Local\Temp\ccOrHUbU.s 			page 32


 426              		.loc 1 183 3 discriminator 4 view .LVU116
 427 002a 1832     		adds	r2, r2, #24
 428 002c 9342     		cmp	r3, r2
 429 002e 25D0     		beq	.L34
 183:Drivers/STM32F4xx_HAL_Driver/Src/stm32f4xx_hal_dma.c ****   assert_param(IS_DMA_CHANNEL(hdma->Init.Channel));
 430              		.loc 1 183 3 discriminator 5 view .LVU117
 431 0030 1832     		adds	r2, r2, #24
 432 0032 9342     		cmp	r3, r2
 433 0034 22D0     		beq	.L34
 183:Drivers/STM32F4xx_HAL_Driver/Src/stm32f4xx_hal_dma.c ****   assert_param(IS_DMA_CHANNEL(hdma->Init.Channel));
 434              		.loc 1 183 3 discriminator 6 view .LVU118
 435 0036 1832     		adds	r2, r2, #24
 436 0038 9342     		cmp	r3, r2
 437 003a 1FD0     		beq	.L34
 183:Drivers/STM32F4xx_HAL_Driver/Src/stm32f4xx_hal_dma.c ****   assert_param(IS_DMA_CHANNEL(hdma->Init.Channel));
 438              		.loc 1 183 3 discriminator 7 view .LVU119
 439 003c 1832     		adds	r2, r2, #24
 440 003e 9342     		cmp	r3, r2
 441 0040 1CD0     		beq	.L34
 183:Drivers/STM32F4xx_HAL_Driver/Src/stm32f4xx_hal_dma.c ****   assert_param(IS_DMA_CHANNEL(hdma->Init.Channel));
 442              		.loc 1 183 3 discriminator 8 view .LVU120
 443 0042 02F55672 		add	r2, r2, #856
 444 0046 9342     		cmp	r3, r2
 445 0048 18D0     		beq	.L34
 183:Drivers/STM32F4xx_HAL_Driver/Src/stm32f4xx_hal_dma.c ****   assert_param(IS_DMA_CHANNEL(hdma->Init.Channel));
 446              		.loc 1 183 3 discriminator 9 view .LVU121
 447 004a 1832     		adds	r2, r2, #24
 448 004c 9342     		cmp	r3, r2
 449 004e 15D0     		beq	.L34
 183:Drivers/STM32F4xx_HAL_Driver/Src/stm32f4xx_hal_dma.c ****   assert_param(IS_DMA_CHANNEL(hdma->Init.Channel));
 450              		.loc 1 183 3 discriminator 10 view .LVU122
 451 0050 1832     		adds	r2, r2, #24
 452 0052 9342     		cmp	r3, r2
 453 0054 12D0     		beq	.L34
 183:Drivers/STM32F4xx_HAL_Driver/Src/stm32f4xx_hal_dma.c ****   assert_param(IS_DMA_CHANNEL(hdma->Init.Channel));
 454              		.loc 1 183 3 discriminator 11 view .LVU123
 455 0056 1832     		adds	r2, r2, #24
 456 0058 9342     		cmp	r3, r2
 457 005a 0FD0     		beq	.L34
 183:Drivers/STM32F4xx_HAL_Driver/Src/stm32f4xx_hal_dma.c ****   assert_param(IS_DMA_CHANNEL(hdma->Init.Channel));
 458              		.loc 1 183 3 discriminator 12 view .LVU124
 459 005c 1832     		adds	r2, r2, #24
 460 005e 9342     		cmp	r3, r2
 461 0060 0CD0     		beq	.L34
 183:Drivers/STM32F4xx_HAL_Driver/Src/stm32f4xx_hal_dma.c ****   assert_param(IS_DMA_CHANNEL(hdma->Init.Channel));
 462              		.loc 1 183 3 discriminator 13 view .LVU125
 463 0062 1832     		adds	r2, r2, #24
 464 0064 9342     		cmp	r3, r2
 465 0066 09D0     		beq	.L34
 183:Drivers/STM32F4xx_HAL_Driver/Src/stm32f4xx_hal_dma.c ****   assert_param(IS_DMA_CHANNEL(hdma->Init.Channel));
 466              		.loc 1 183 3 discriminator 14 view .LVU126
 467 0068 1832     		adds	r2, r2, #24
 468 006a 9342     		cmp	r3, r2
 469 006c 06D0     		beq	.L34
 183:Drivers/STM32F4xx_HAL_Driver/Src/stm32f4xx_hal_dma.c ****   assert_param(IS_DMA_CHANNEL(hdma->Init.Channel));
 470              		.loc 1 183 3 discriminator 15 view .LVU127
 471 006e 1832     		adds	r2, r2, #24
ARM GAS  C:\Users\hanaj\AppData\Local\Temp\ccOrHUbU.s 			page 33


 472 0070 9342     		cmp	r3, r2
 473 0072 03D0     		beq	.L34
 183:Drivers/STM32F4xx_HAL_Driver/Src/stm32f4xx_hal_dma.c ****   assert_param(IS_DMA_CHANNEL(hdma->Init.Channel));
 474              		.loc 1 183 3 discriminator 16 view .LVU128
 475 0074 B721     		movs	r1, #183
 476 0076 7D48     		ldr	r0, .L68+4
 477              	.LVL49:
 183:Drivers/STM32F4xx_HAL_Driver/Src/stm32f4xx_hal_dma.c ****   assert_param(IS_DMA_CHANNEL(hdma->Init.Channel));
 478              		.loc 1 183 3 discriminator 16 view .LVU129
 479 0078 FFF7FEFF 		bl	assert_failed
 480              	.LVL50:
 481              	.L34:
 184:Drivers/STM32F4xx_HAL_Driver/Src/stm32f4xx_hal_dma.c ****   assert_param(IS_DMA_DIRECTION(hdma->Init.Direction));
 482              		.loc 1 184 3 is_stmt 1 view .LVU130
 483 007c 6368     		ldr	r3, [r4, #4]
 484 007e A3B1     		cbz	r3, .L35
 184:Drivers/STM32F4xx_HAL_Driver/Src/stm32f4xx_hal_dma.c ****   assert_param(IS_DMA_DIRECTION(hdma->Init.Direction));
 485              		.loc 1 184 3 is_stmt 0 discriminator 1 view .LVU131
 486 0080 B3F1007F 		cmp	r3, #33554432
 487 0084 11D0     		beq	.L35
 184:Drivers/STM32F4xx_HAL_Driver/Src/stm32f4xx_hal_dma.c ****   assert_param(IS_DMA_DIRECTION(hdma->Init.Direction));
 488              		.loc 1 184 3 discriminator 2 view .LVU132
 489 0086 B3F1806F 		cmp	r3, #67108864
 490 008a 0ED0     		beq	.L35
 184:Drivers/STM32F4xx_HAL_Driver/Src/stm32f4xx_hal_dma.c ****   assert_param(IS_DMA_DIRECTION(hdma->Init.Direction));
 491              		.loc 1 184 3 discriminator 3 view .LVU133
 492 008c B3F1C06F 		cmp	r3, #100663296
 493 0090 0BD0     		beq	.L35
 184:Drivers/STM32F4xx_HAL_Driver/Src/stm32f4xx_hal_dma.c ****   assert_param(IS_DMA_DIRECTION(hdma->Init.Direction));
 494              		.loc 1 184 3 discriminator 4 view .LVU134
 495 0092 B3F1006F 		cmp	r3, #134217728
 496 0096 08D0     		beq	.L35
 184:Drivers/STM32F4xx_HAL_Driver/Src/stm32f4xx_hal_dma.c ****   assert_param(IS_DMA_DIRECTION(hdma->Init.Direction));
 497              		.loc 1 184 3 discriminator 5 view .LVU135
 498 0098 B3F1206F 		cmp	r3, #167772160
 499 009c 05D0     		beq	.L35
 184:Drivers/STM32F4xx_HAL_Driver/Src/stm32f4xx_hal_dma.c ****   assert_param(IS_DMA_DIRECTION(hdma->Init.Direction));
 500              		.loc 1 184 3 discriminator 6 view .LVU136
 501 009e B3F1406F 		cmp	r3, #201326592
 502 00a2 02D0     		beq	.L35
 184:Drivers/STM32F4xx_HAL_Driver/Src/stm32f4xx_hal_dma.c ****   assert_param(IS_DMA_DIRECTION(hdma->Init.Direction));
 503              		.loc 1 184 3 discriminator 7 view .LVU137
 504 00a4 B3F1606F 		cmp	r3, #234881024
 505 00a8 6DD1     		bne	.L53
 506              	.L35:
 185:Drivers/STM32F4xx_HAL_Driver/Src/stm32f4xx_hal_dma.c ****   assert_param(IS_DMA_PERIPHERAL_INC_STATE(hdma->Init.PeriphInc));
 507              		.loc 1 185 3 is_stmt 1 view .LVU138
 508 00aa A368     		ldr	r3, [r4, #8]
 509 00ac 1BB1     		cbz	r3, .L36
 185:Drivers/STM32F4xx_HAL_Driver/Src/stm32f4xx_hal_dma.c ****   assert_param(IS_DMA_PERIPHERAL_INC_STATE(hdma->Init.PeriphInc));
 510              		.loc 1 185 3 is_stmt 0 discriminator 1 view .LVU139
 511 00ae 402B     		cmp	r3, #64
 512 00b0 01D0     		beq	.L36
 185:Drivers/STM32F4xx_HAL_Driver/Src/stm32f4xx_hal_dma.c ****   assert_param(IS_DMA_PERIPHERAL_INC_STATE(hdma->Init.PeriphInc));
 513              		.loc 1 185 3 discriminator 2 view .LVU140
 514 00b2 802B     		cmp	r3, #128
 515 00b4 6CD1     		bne	.L54
ARM GAS  C:\Users\hanaj\AppData\Local\Temp\ccOrHUbU.s 			page 34


 516              	.L36:
 186:Drivers/STM32F4xx_HAL_Driver/Src/stm32f4xx_hal_dma.c ****   assert_param(IS_DMA_MEMORY_INC_STATE(hdma->Init.MemInc));
 517              		.loc 1 186 3 is_stmt 1 view .LVU141
 518 00b6 E368     		ldr	r3, [r4, #12]
 519 00b8 B3F5007F 		cmp	r3, #512
 520 00bc 01D0     		beq	.L37
 186:Drivers/STM32F4xx_HAL_Driver/Src/stm32f4xx_hal_dma.c ****   assert_param(IS_DMA_MEMORY_INC_STATE(hdma->Init.MemInc));
 521              		.loc 1 186 3 is_stmt 0 discriminator 1 view .LVU142
 522 00be 002B     		cmp	r3, #0
 523 00c0 6BD1     		bne	.L55
 524              	.L37:
 187:Drivers/STM32F4xx_HAL_Driver/Src/stm32f4xx_hal_dma.c ****   assert_param(IS_DMA_PERIPHERAL_DATA_SIZE(hdma->Init.PeriphDataAlignment));
 525              		.loc 1 187 3 is_stmt 1 view .LVU143
 526 00c2 2369     		ldr	r3, [r4, #16]
 527 00c4 B3F5806F 		cmp	r3, #1024
 528 00c8 01D0     		beq	.L38
 187:Drivers/STM32F4xx_HAL_Driver/Src/stm32f4xx_hal_dma.c ****   assert_param(IS_DMA_PERIPHERAL_DATA_SIZE(hdma->Init.PeriphDataAlignment));
 529              		.loc 1 187 3 is_stmt 0 discriminator 1 view .LVU144
 530 00ca 002B     		cmp	r3, #0
 531 00cc 6AD1     		bne	.L56
 532              	.L38:
 188:Drivers/STM32F4xx_HAL_Driver/Src/stm32f4xx_hal_dma.c ****   assert_param(IS_DMA_MEMORY_DATA_SIZE(hdma->Init.MemDataAlignment));
 533              		.loc 1 188 3 is_stmt 1 view .LVU145
 534 00ce 6369     		ldr	r3, [r4, #20]
 535 00d0 2BB1     		cbz	r3, .L39
 188:Drivers/STM32F4xx_HAL_Driver/Src/stm32f4xx_hal_dma.c ****   assert_param(IS_DMA_MEMORY_DATA_SIZE(hdma->Init.MemDataAlignment));
 536              		.loc 1 188 3 is_stmt 0 discriminator 1 view .LVU146
 537 00d2 B3F5006F 		cmp	r3, #2048
 538 00d6 02D0     		beq	.L39
 188:Drivers/STM32F4xx_HAL_Driver/Src/stm32f4xx_hal_dma.c ****   assert_param(IS_DMA_MEMORY_DATA_SIZE(hdma->Init.MemDataAlignment));
 539              		.loc 1 188 3 discriminator 2 view .LVU147
 540 00d8 B3F5805F 		cmp	r3, #4096
 541 00dc 67D1     		bne	.L57
 542              	.L39:
 189:Drivers/STM32F4xx_HAL_Driver/Src/stm32f4xx_hal_dma.c ****   assert_param(IS_DMA_MODE(hdma->Init.Mode));
 543              		.loc 1 189 3 is_stmt 1 view .LVU148
 544 00de A369     		ldr	r3, [r4, #24]
 545 00e0 2BB1     		cbz	r3, .L40
 189:Drivers/STM32F4xx_HAL_Driver/Src/stm32f4xx_hal_dma.c ****   assert_param(IS_DMA_MODE(hdma->Init.Mode));
 546              		.loc 1 189 3 is_stmt 0 discriminator 1 view .LVU149
 547 00e2 B3F5005F 		cmp	r3, #8192
 548 00e6 02D0     		beq	.L40
 189:Drivers/STM32F4xx_HAL_Driver/Src/stm32f4xx_hal_dma.c ****   assert_param(IS_DMA_MODE(hdma->Init.Mode));
 549              		.loc 1 189 3 discriminator 2 view .LVU150
 550 00e8 B3F5804F 		cmp	r3, #16384
 551 00ec 64D1     		bne	.L58
 552              	.L40:
 190:Drivers/STM32F4xx_HAL_Driver/Src/stm32f4xx_hal_dma.c ****   assert_param(IS_DMA_PRIORITY(hdma->Init.Priority));
 553              		.loc 1 190 3 is_stmt 1 view .LVU151
 554 00ee E369     		ldr	r3, [r4, #28]
 555 00f0 23B1     		cbz	r3, .L41
 190:Drivers/STM32F4xx_HAL_Driver/Src/stm32f4xx_hal_dma.c ****   assert_param(IS_DMA_PRIORITY(hdma->Init.Priority));
 556              		.loc 1 190 3 is_stmt 0 discriminator 1 view .LVU152
 557 00f2 B3F5807F 		cmp	r3, #256
 558 00f6 01D0     		beq	.L41
 190:Drivers/STM32F4xx_HAL_Driver/Src/stm32f4xx_hal_dma.c ****   assert_param(IS_DMA_PRIORITY(hdma->Init.Priority));
 559              		.loc 1 190 3 discriminator 2 view .LVU153
ARM GAS  C:\Users\hanaj\AppData\Local\Temp\ccOrHUbU.s 			page 35


 560 00f8 202B     		cmp	r3, #32
 561 00fa 62D1     		bne	.L59
 562              	.L41:
 191:Drivers/STM32F4xx_HAL_Driver/Src/stm32f4xx_hal_dma.c ****   assert_param(IS_DMA_FIFO_MODE_STATE(hdma->Init.FIFOMode));
 563              		.loc 1 191 3 is_stmt 1 view .LVU154
 564 00fc 236A     		ldr	r3, [r4, #32]
 565 00fe 43B1     		cbz	r3, .L42
 191:Drivers/STM32F4xx_HAL_Driver/Src/stm32f4xx_hal_dma.c ****   assert_param(IS_DMA_FIFO_MODE_STATE(hdma->Init.FIFOMode));
 566              		.loc 1 191 3 is_stmt 0 discriminator 1 view .LVU155
 567 0100 B3F5803F 		cmp	r3, #65536
 568 0104 05D0     		beq	.L42
 191:Drivers/STM32F4xx_HAL_Driver/Src/stm32f4xx_hal_dma.c ****   assert_param(IS_DMA_FIFO_MODE_STATE(hdma->Init.FIFOMode));
 569              		.loc 1 191 3 discriminator 2 view .LVU156
 570 0106 B3F5003F 		cmp	r3, #131072
 571 010a 02D0     		beq	.L42
 191:Drivers/STM32F4xx_HAL_Driver/Src/stm32f4xx_hal_dma.c ****   assert_param(IS_DMA_FIFO_MODE_STATE(hdma->Init.FIFOMode));
 572              		.loc 1 191 3 discriminator 3 view .LVU157
 573 010c B3F5403F 		cmp	r3, #196608
 574 0110 5CD1     		bne	.L60
 575              	.L42:
 192:Drivers/STM32F4xx_HAL_Driver/Src/stm32f4xx_hal_dma.c ****   /* Check the memory burst, peripheral burst and FIFO threshold parameters only
 576              		.loc 1 192 3 is_stmt 1 view .LVU158
 577 0112 636A     		ldr	r3, [r4, #36]
 578 0114 0BB1     		cbz	r3, .L43
 192:Drivers/STM32F4xx_HAL_Driver/Src/stm32f4xx_hal_dma.c ****   /* Check the memory burst, peripheral burst and FIFO threshold parameters only
 579              		.loc 1 192 3 is_stmt 0 discriminator 1 view .LVU159
 580 0116 042B     		cmp	r3, #4
 581 0118 5DD1     		bne	.L61
 582              	.L43:
 195:Drivers/STM32F4xx_HAL_Driver/Src/stm32f4xx_hal_dma.c ****   {
 583              		.loc 1 195 3 is_stmt 1 view .LVU160
 195:Drivers/STM32F4xx_HAL_Driver/Src/stm32f4xx_hal_dma.c ****   {
 584              		.loc 1 195 16 is_stmt 0 view .LVU161
 585 011a 636A     		ldr	r3, [r4, #36]
 195:Drivers/STM32F4xx_HAL_Driver/Src/stm32f4xx_hal_dma.c ****   {
 586              		.loc 1 195 5 view .LVU162
 587 011c C3B1     		cbz	r3, .L44
 197:Drivers/STM32F4xx_HAL_Driver/Src/stm32f4xx_hal_dma.c ****     assert_param(IS_DMA_MEMORY_BURST(hdma->Init.MemBurst));
 588              		.loc 1 197 5 is_stmt 1 view .LVU163
 589 011e A36A     		ldr	r3, [r4, #40]
 590 0120 032B     		cmp	r3, #3
 591 0122 5DD8     		bhi	.L62
 592              	.L45:
 198:Drivers/STM32F4xx_HAL_Driver/Src/stm32f4xx_hal_dma.c ****     assert_param(IS_DMA_PERIPHERAL_BURST(hdma->Init.PeriphBurst));
 593              		.loc 1 198 5 view .LVU164
 594 0124 E36A     		ldr	r3, [r4, #44]
 595 0126 43B1     		cbz	r3, .L46
 198:Drivers/STM32F4xx_HAL_Driver/Src/stm32f4xx_hal_dma.c ****     assert_param(IS_DMA_PERIPHERAL_BURST(hdma->Init.PeriphBurst));
 596              		.loc 1 198 5 is_stmt 0 discriminator 1 view .LVU165
 597 0128 B3F5000F 		cmp	r3, #8388608
 598 012c 05D0     		beq	.L46
 198:Drivers/STM32F4xx_HAL_Driver/Src/stm32f4xx_hal_dma.c ****     assert_param(IS_DMA_PERIPHERAL_BURST(hdma->Init.PeriphBurst));
 599              		.loc 1 198 5 discriminator 2 view .LVU166
 600 012e B3F1807F 		cmp	r3, #16777216
 601 0132 02D0     		beq	.L46
 198:Drivers/STM32F4xx_HAL_Driver/Src/stm32f4xx_hal_dma.c ****     assert_param(IS_DMA_PERIPHERAL_BURST(hdma->Init.PeriphBurst));
 602              		.loc 1 198 5 discriminator 3 view .LVU167
ARM GAS  C:\Users\hanaj\AppData\Local\Temp\ccOrHUbU.s 			page 36


 603 0134 B3F1C07F 		cmp	r3, #25165824
 604 0138 57D1     		bne	.L63
 605              	.L46:
 199:Drivers/STM32F4xx_HAL_Driver/Src/stm32f4xx_hal_dma.c ****   }
 606              		.loc 1 199 5 is_stmt 1 view .LVU168
 607 013a 236B     		ldr	r3, [r4, #48]
 608 013c 43B1     		cbz	r3, .L44
 199:Drivers/STM32F4xx_HAL_Driver/Src/stm32f4xx_hal_dma.c ****   }
 609              		.loc 1 199 5 is_stmt 0 discriminator 1 view .LVU169
 610 013e B3F5001F 		cmp	r3, #2097152
 611 0142 05D0     		beq	.L44
 199:Drivers/STM32F4xx_HAL_Driver/Src/stm32f4xx_hal_dma.c ****   }
 612              		.loc 1 199 5 discriminator 2 view .LVU170
 613 0144 B3F5800F 		cmp	r3, #4194304
 614 0148 02D0     		beq	.L44
 199:Drivers/STM32F4xx_HAL_Driver/Src/stm32f4xx_hal_dma.c ****   }
 615              		.loc 1 199 5 discriminator 3 view .LVU171
 616 014a B3F5C00F 		cmp	r3, #6291456
 617 014e 51D1     		bne	.L64
 618              	.L44:
 203:Drivers/STM32F4xx_HAL_Driver/Src/stm32f4xx_hal_dma.c **** 
 619              		.loc 1 203 3 is_stmt 1 view .LVU172
 203:Drivers/STM32F4xx_HAL_Driver/Src/stm32f4xx_hal_dma.c **** 
 620              		.loc 1 203 15 is_stmt 0 view .LVU173
 621 0150 0223     		movs	r3, #2
 622 0152 84F83530 		strb	r3, [r4, #53]
 206:Drivers/STM32F4xx_HAL_Driver/Src/stm32f4xx_hal_dma.c ****   
 623              		.loc 1 206 3 is_stmt 1 view .LVU174
 206:Drivers/STM32F4xx_HAL_Driver/Src/stm32f4xx_hal_dma.c ****   
 624              		.loc 1 206 3 view .LVU175
 625 0156 0023     		movs	r3, #0
 626 0158 84F83430 		strb	r3, [r4, #52]
 206:Drivers/STM32F4xx_HAL_Driver/Src/stm32f4xx_hal_dma.c ****   
 627              		.loc 1 206 3 view .LVU176
 209:Drivers/STM32F4xx_HAL_Driver/Src/stm32f4xx_hal_dma.c ****   
 628              		.loc 1 209 3 view .LVU177
 629 015c 2268     		ldr	r2, [r4]
 630 015e 1368     		ldr	r3, [r2]
 631 0160 23F00103 		bic	r3, r3, #1
 632 0164 1360     		str	r3, [r2]
 212:Drivers/STM32F4xx_HAL_Driver/Src/stm32f4xx_hal_dma.c ****   {
 633              		.loc 1 212 3 view .LVU178
 634              	.L47:
 212:Drivers/STM32F4xx_HAL_Driver/Src/stm32f4xx_hal_dma.c ****   {
 635              		.loc 1 212 44 view .LVU179
 212:Drivers/STM32F4xx_HAL_Driver/Src/stm32f4xx_hal_dma.c ****   {
 636              		.loc 1 212 14 is_stmt 0 view .LVU180
 637 0166 2368     		ldr	r3, [r4]
 212:Drivers/STM32F4xx_HAL_Driver/Src/stm32f4xx_hal_dma.c ****   {
 638              		.loc 1 212 24 view .LVU181
 639 0168 1A68     		ldr	r2, [r3]
 212:Drivers/STM32F4xx_HAL_Driver/Src/stm32f4xx_hal_dma.c ****   {
 640              		.loc 1 212 44 view .LVU182
 641 016a 12F0010F 		tst	r2, #1
 642 016e 46D0     		beq	.L65
 215:Drivers/STM32F4xx_HAL_Driver/Src/stm32f4xx_hal_dma.c ****     {
 643              		.loc 1 215 5 is_stmt 1 view .LVU183
ARM GAS  C:\Users\hanaj\AppData\Local\Temp\ccOrHUbU.s 			page 37


 215:Drivers/STM32F4xx_HAL_Driver/Src/stm32f4xx_hal_dma.c ****     {
 644              		.loc 1 215 9 is_stmt 0 view .LVU184
 645 0170 FFF7FEFF 		bl	HAL_GetTick
 646              	.LVL51:
 215:Drivers/STM32F4xx_HAL_Driver/Src/stm32f4xx_hal_dma.c ****     {
 647              		.loc 1 215 23 discriminator 1 view .LVU185
 648 0174 401B     		subs	r0, r0, r5
 215:Drivers/STM32F4xx_HAL_Driver/Src/stm32f4xx_hal_dma.c ****     {
 649              		.loc 1 215 7 discriminator 1 view .LVU186
 650 0176 0528     		cmp	r0, #5
 651 0178 F5D9     		bls	.L47
 218:Drivers/STM32F4xx_HAL_Driver/Src/stm32f4xx_hal_dma.c ****       
 652              		.loc 1 218 7 is_stmt 1 view .LVU187
 218:Drivers/STM32F4xx_HAL_Driver/Src/stm32f4xx_hal_dma.c ****       
 653              		.loc 1 218 23 is_stmt 0 view .LVU188
 654 017a 2023     		movs	r3, #32
 655 017c 6365     		str	r3, [r4, #84]
 221:Drivers/STM32F4xx_HAL_Driver/Src/stm32f4xx_hal_dma.c ****       
 656              		.loc 1 221 7 is_stmt 1 view .LVU189
 221:Drivers/STM32F4xx_HAL_Driver/Src/stm32f4xx_hal_dma.c ****       
 657              		.loc 1 221 19 is_stmt 0 view .LVU190
 658 017e 0320     		movs	r0, #3
 659 0180 84F83500 		strb	r0, [r4, #53]
 223:Drivers/STM32F4xx_HAL_Driver/Src/stm32f4xx_hal_dma.c ****     }
 660              		.loc 1 223 7 is_stmt 1 view .LVU191
 661              	.LVL52:
 662              	.L33:
 301:Drivers/STM32F4xx_HAL_Driver/Src/stm32f4xx_hal_dma.c **** 
 663              		.loc 1 301 1 is_stmt 0 view .LVU192
 664 0184 70BD     		pop	{r4, r5, r6, pc}
 665              	.LVL53:
 666              	.L53:
 184:Drivers/STM32F4xx_HAL_Driver/Src/stm32f4xx_hal_dma.c ****   assert_param(IS_DMA_DIRECTION(hdma->Init.Direction));
 667              		.loc 1 184 3 discriminator 8 view .LVU193
 668 0186 B821     		movs	r1, #184
 669 0188 3848     		ldr	r0, .L68+4
 670 018a FFF7FEFF 		bl	assert_failed
 671              	.LVL54:
 672 018e 8CE7     		b	.L35
 673              	.L54:
 185:Drivers/STM32F4xx_HAL_Driver/Src/stm32f4xx_hal_dma.c ****   assert_param(IS_DMA_PERIPHERAL_INC_STATE(hdma->Init.PeriphInc));
 674              		.loc 1 185 3 discriminator 3 view .LVU194
 675 0190 B921     		movs	r1, #185
 676 0192 3648     		ldr	r0, .L68+4
 677 0194 FFF7FEFF 		bl	assert_failed
 678              	.LVL55:
 679 0198 8DE7     		b	.L36
 680              	.L55:
 186:Drivers/STM32F4xx_HAL_Driver/Src/stm32f4xx_hal_dma.c ****   assert_param(IS_DMA_MEMORY_INC_STATE(hdma->Init.MemInc));
 681              		.loc 1 186 3 discriminator 2 view .LVU195
 682 019a BA21     		movs	r1, #186
 683 019c 3348     		ldr	r0, .L68+4
 684 019e FFF7FEFF 		bl	assert_failed
 685              	.LVL56:
 686 01a2 8EE7     		b	.L37
 687              	.L56:
 187:Drivers/STM32F4xx_HAL_Driver/Src/stm32f4xx_hal_dma.c ****   assert_param(IS_DMA_PERIPHERAL_DATA_SIZE(hdma->Init.PeriphDataAlignment));
ARM GAS  C:\Users\hanaj\AppData\Local\Temp\ccOrHUbU.s 			page 38


 688              		.loc 1 187 3 discriminator 2 view .LVU196
 689 01a4 BB21     		movs	r1, #187
 690 01a6 3148     		ldr	r0, .L68+4
 691 01a8 FFF7FEFF 		bl	assert_failed
 692              	.LVL57:
 693 01ac 8FE7     		b	.L38
 694              	.L57:
 188:Drivers/STM32F4xx_HAL_Driver/Src/stm32f4xx_hal_dma.c ****   assert_param(IS_DMA_MEMORY_DATA_SIZE(hdma->Init.MemDataAlignment));
 695              		.loc 1 188 3 discriminator 3 view .LVU197
 696 01ae BC21     		movs	r1, #188
 697 01b0 2E48     		ldr	r0, .L68+4
 698 01b2 FFF7FEFF 		bl	assert_failed
 699              	.LVL58:
 700 01b6 92E7     		b	.L39
 701              	.L58:
 189:Drivers/STM32F4xx_HAL_Driver/Src/stm32f4xx_hal_dma.c ****   assert_param(IS_DMA_MODE(hdma->Init.Mode));
 702              		.loc 1 189 3 discriminator 3 view .LVU198
 703 01b8 BD21     		movs	r1, #189
 704 01ba 2C48     		ldr	r0, .L68+4
 705 01bc FFF7FEFF 		bl	assert_failed
 706              	.LVL59:
 707 01c0 95E7     		b	.L40
 708              	.L59:
 190:Drivers/STM32F4xx_HAL_Driver/Src/stm32f4xx_hal_dma.c ****   assert_param(IS_DMA_PRIORITY(hdma->Init.Priority));
 709              		.loc 1 190 3 discriminator 3 view .LVU199
 710 01c2 BE21     		movs	r1, #190
 711 01c4 2948     		ldr	r0, .L68+4
 712 01c6 FFF7FEFF 		bl	assert_failed
 713              	.LVL60:
 714 01ca 97E7     		b	.L41
 715              	.L60:
 191:Drivers/STM32F4xx_HAL_Driver/Src/stm32f4xx_hal_dma.c ****   assert_param(IS_DMA_FIFO_MODE_STATE(hdma->Init.FIFOMode));
 716              		.loc 1 191 3 discriminator 4 view .LVU200
 717 01cc BF21     		movs	r1, #191
 718 01ce 2748     		ldr	r0, .L68+4
 719 01d0 FFF7FEFF 		bl	assert_failed
 720              	.LVL61:
 721 01d4 9DE7     		b	.L42
 722              	.L61:
 192:Drivers/STM32F4xx_HAL_Driver/Src/stm32f4xx_hal_dma.c ****   /* Check the memory burst, peripheral burst and FIFO threshold parameters only
 723              		.loc 1 192 3 discriminator 2 view .LVU201
 724 01d6 C021     		movs	r1, #192
 725 01d8 2448     		ldr	r0, .L68+4
 726 01da FFF7FEFF 		bl	assert_failed
 727              	.LVL62:
 728 01de 9CE7     		b	.L43
 729              	.L62:
 197:Drivers/STM32F4xx_HAL_Driver/Src/stm32f4xx_hal_dma.c ****     assert_param(IS_DMA_MEMORY_BURST(hdma->Init.MemBurst));
 730              		.loc 1 197 5 discriminator 1 view .LVU202
 731 01e0 C521     		movs	r1, #197
 732 01e2 2248     		ldr	r0, .L68+4
 733 01e4 FFF7FEFF 		bl	assert_failed
 734              	.LVL63:
 735 01e8 9CE7     		b	.L45
 736              	.L63:
 198:Drivers/STM32F4xx_HAL_Driver/Src/stm32f4xx_hal_dma.c ****     assert_param(IS_DMA_PERIPHERAL_BURST(hdma->Init.PeriphBurst));
 737              		.loc 1 198 5 discriminator 4 view .LVU203
ARM GAS  C:\Users\hanaj\AppData\Local\Temp\ccOrHUbU.s 			page 39


 738 01ea C621     		movs	r1, #198
 739 01ec 1F48     		ldr	r0, .L68+4
 740 01ee FFF7FEFF 		bl	assert_failed
 741              	.LVL64:
 742 01f2 A2E7     		b	.L46
 743              	.L64:
 199:Drivers/STM32F4xx_HAL_Driver/Src/stm32f4xx_hal_dma.c ****   }
 744              		.loc 1 199 5 discriminator 4 view .LVU204
 745 01f4 C721     		movs	r1, #199
 746 01f6 1D48     		ldr	r0, .L68+4
 747 01f8 FFF7FEFF 		bl	assert_failed
 748              	.LVL65:
 749 01fc A8E7     		b	.L44
 750              	.L65:
 228:Drivers/STM32F4xx_HAL_Driver/Src/stm32f4xx_hal_dma.c **** 
 751              		.loc 1 228 3 is_stmt 1 view .LVU205
 228:Drivers/STM32F4xx_HAL_Driver/Src/stm32f4xx_hal_dma.c **** 
 752              		.loc 1 228 7 is_stmt 0 view .LVU206
 753 01fe 1A68     		ldr	r2, [r3]
 754              	.LVL66:
 231:Drivers/STM32F4xx_HAL_Driver/Src/stm32f4xx_hal_dma.c ****                       DMA_SxCR_PL    | DMA_SxCR_MSIZE  | DMA_SxCR_PSIZE  | \
 755              		.loc 1 231 3 is_stmt 1 view .LVU207
 231:Drivers/STM32F4xx_HAL_Driver/Src/stm32f4xx_hal_dma.c ****                       DMA_SxCR_PL    | DMA_SxCR_MSIZE  | DMA_SxCR_PSIZE  | \
 756              		.loc 1 231 7 is_stmt 0 view .LVU208
 757 0200 1B49     		ldr	r1, .L68+8
 758 0202 1140     		ands	r1, r1, r2
 759              	.LVL67:
 237:Drivers/STM32F4xx_HAL_Driver/Src/stm32f4xx_hal_dma.c ****           hdma->Init.PeriphInc           | hdma->Init.MemInc           |
 760              		.loc 1 237 3 is_stmt 1 view .LVU209
 237:Drivers/STM32F4xx_HAL_Driver/Src/stm32f4xx_hal_dma.c ****           hdma->Init.PeriphInc           | hdma->Init.MemInc           |
 761              		.loc 1 237 21 is_stmt 0 view .LVU210
 762 0204 6268     		ldr	r2, [r4, #4]
 237:Drivers/STM32F4xx_HAL_Driver/Src/stm32f4xx_hal_dma.c ****           hdma->Init.PeriphInc           | hdma->Init.MemInc           |
 763              		.loc 1 237 54 view .LVU211
 764 0206 A068     		ldr	r0, [r4, #8]
 237:Drivers/STM32F4xx_HAL_Driver/Src/stm32f4xx_hal_dma.c ****           hdma->Init.PeriphInc           | hdma->Init.MemInc           |
 765              		.loc 1 237 42 view .LVU212
 766 0208 0243     		orrs	r2, r2, r0
 238:Drivers/STM32F4xx_HAL_Driver/Src/stm32f4xx_hal_dma.c ****           hdma->Init.PeriphDataAlignment | hdma->Init.MemDataAlignment |
 767              		.loc 1 238 21 view .LVU213
 768 020a E068     		ldr	r0, [r4, #12]
 237:Drivers/STM32F4xx_HAL_Driver/Src/stm32f4xx_hal_dma.c ****           hdma->Init.PeriphInc           | hdma->Init.MemInc           |
 769              		.loc 1 237 72 view .LVU214
 770 020c 0243     		orrs	r2, r2, r0
 238:Drivers/STM32F4xx_HAL_Driver/Src/stm32f4xx_hal_dma.c ****           hdma->Init.PeriphDataAlignment | hdma->Init.MemDataAlignment |
 771              		.loc 1 238 54 view .LVU215
 772 020e 2069     		ldr	r0, [r4, #16]
 238:Drivers/STM32F4xx_HAL_Driver/Src/stm32f4xx_hal_dma.c ****           hdma->Init.PeriphDataAlignment | hdma->Init.MemDataAlignment |
 773              		.loc 1 238 42 view .LVU216
 774 0210 0243     		orrs	r2, r2, r0
 239:Drivers/STM32F4xx_HAL_Driver/Src/stm32f4xx_hal_dma.c ****           hdma->Init.Mode                | hdma->Init.Priority;
 775              		.loc 1 239 21 view .LVU217
 776 0212 6069     		ldr	r0, [r4, #20]
 238:Drivers/STM32F4xx_HAL_Driver/Src/stm32f4xx_hal_dma.c ****           hdma->Init.PeriphDataAlignment | hdma->Init.MemDataAlignment |
 777              		.loc 1 238 72 view .LVU218
 778 0214 0243     		orrs	r2, r2, r0
 239:Drivers/STM32F4xx_HAL_Driver/Src/stm32f4xx_hal_dma.c ****           hdma->Init.Mode                | hdma->Init.Priority;
ARM GAS  C:\Users\hanaj\AppData\Local\Temp\ccOrHUbU.s 			page 40


 779              		.loc 1 239 54 view .LVU219
 780 0216 A069     		ldr	r0, [r4, #24]
 239:Drivers/STM32F4xx_HAL_Driver/Src/stm32f4xx_hal_dma.c ****           hdma->Init.Mode                | hdma->Init.Priority;
 781              		.loc 1 239 42 view .LVU220
 782 0218 0243     		orrs	r2, r2, r0
 240:Drivers/STM32F4xx_HAL_Driver/Src/stm32f4xx_hal_dma.c **** 
 783              		.loc 1 240 21 view .LVU221
 784 021a E069     		ldr	r0, [r4, #28]
 239:Drivers/STM32F4xx_HAL_Driver/Src/stm32f4xx_hal_dma.c ****           hdma->Init.Mode                | hdma->Init.Priority;
 785              		.loc 1 239 72 view .LVU222
 786 021c 0243     		orrs	r2, r2, r0
 240:Drivers/STM32F4xx_HAL_Driver/Src/stm32f4xx_hal_dma.c **** 
 787              		.loc 1 240 54 view .LVU223
 788 021e 206A     		ldr	r0, [r4, #32]
 240:Drivers/STM32F4xx_HAL_Driver/Src/stm32f4xx_hal_dma.c **** 
 789              		.loc 1 240 42 view .LVU224
 790 0220 0243     		orrs	r2, r2, r0
 237:Drivers/STM32F4xx_HAL_Driver/Src/stm32f4xx_hal_dma.c ****           hdma->Init.PeriphInc           | hdma->Init.MemInc           |
 791              		.loc 1 237 7 view .LVU225
 792 0222 0A43     		orrs	r2, r2, r1
 793              	.LVL68:
 243:Drivers/STM32F4xx_HAL_Driver/Src/stm32f4xx_hal_dma.c ****   {
 794              		.loc 1 243 3 is_stmt 1 view .LVU226
 243:Drivers/STM32F4xx_HAL_Driver/Src/stm32f4xx_hal_dma.c ****   {
 795              		.loc 1 243 16 is_stmt 0 view .LVU227
 796 0224 616A     		ldr	r1, [r4, #36]
 243:Drivers/STM32F4xx_HAL_Driver/Src/stm32f4xx_hal_dma.c ****   {
 797              		.loc 1 243 5 view .LVU228
 798 0226 0429     		cmp	r1, #4
 799 0228 24D0     		beq	.L66
 800              	.L49:
 250:Drivers/STM32F4xx_HAL_Driver/Src/stm32f4xx_hal_dma.c **** 
 801              		.loc 1 250 3 is_stmt 1 view .LVU229
 250:Drivers/STM32F4xx_HAL_Driver/Src/stm32f4xx_hal_dma.c **** 
 802              		.loc 1 250 22 is_stmt 0 view .LVU230
 803 022a 1A60     		str	r2, [r3]
 253:Drivers/STM32F4xx_HAL_Driver/Src/stm32f4xx_hal_dma.c **** 
 804              		.loc 1 253 3 is_stmt 1 view .LVU231
 253:Drivers/STM32F4xx_HAL_Driver/Src/stm32f4xx_hal_dma.c **** 
 805              		.loc 1 253 13 is_stmt 0 view .LVU232
 806 022c 2668     		ldr	r6, [r4]
 253:Drivers/STM32F4xx_HAL_Driver/Src/stm32f4xx_hal_dma.c **** 
 807              		.loc 1 253 7 view .LVU233
 808 022e 7569     		ldr	r5, [r6, #20]
 809              	.LVL69:
 256:Drivers/STM32F4xx_HAL_Driver/Src/stm32f4xx_hal_dma.c **** 
 810              		.loc 1 256 3 is_stmt 1 view .LVU234
 256:Drivers/STM32F4xx_HAL_Driver/Src/stm32f4xx_hal_dma.c **** 
 811              		.loc 1 256 7 is_stmt 0 view .LVU235
 812 0230 25F00705 		bic	r5, r5, #7
 813              	.LVL70:
 259:Drivers/STM32F4xx_HAL_Driver/Src/stm32f4xx_hal_dma.c **** 
 814              		.loc 1 259 3 is_stmt 1 view .LVU236
 259:Drivers/STM32F4xx_HAL_Driver/Src/stm32f4xx_hal_dma.c **** 
 815              		.loc 1 259 20 is_stmt 0 view .LVU237
 816 0234 636A     		ldr	r3, [r4, #36]
 259:Drivers/STM32F4xx_HAL_Driver/Src/stm32f4xx_hal_dma.c **** 
ARM GAS  C:\Users\hanaj\AppData\Local\Temp\ccOrHUbU.s 			page 41


 817              		.loc 1 259 7 view .LVU238
 818 0236 1D43     		orrs	r5, r5, r3
 819              	.LVL71:
 262:Drivers/STM32F4xx_HAL_Driver/Src/stm32f4xx_hal_dma.c ****   {
 820              		.loc 1 262 3 is_stmt 1 view .LVU239
 262:Drivers/STM32F4xx_HAL_Driver/Src/stm32f4xx_hal_dma.c ****   {
 821              		.loc 1 262 5 is_stmt 0 view .LVU240
 822 0238 042B     		cmp	r3, #4
 823 023a 07D1     		bne	.L50
 265:Drivers/STM32F4xx_HAL_Driver/Src/stm32f4xx_hal_dma.c ****     
 824              		.loc 1 265 5 is_stmt 1 view .LVU241
 265:Drivers/STM32F4xx_HAL_Driver/Src/stm32f4xx_hal_dma.c ****     
 825              		.loc 1 265 22 is_stmt 0 view .LVU242
 826 023c A36A     		ldr	r3, [r4, #40]
 265:Drivers/STM32F4xx_HAL_Driver/Src/stm32f4xx_hal_dma.c ****     
 827              		.loc 1 265 9 view .LVU243
 828 023e 1D43     		orrs	r5, r5, r3
 829              	.LVL72:
 269:Drivers/STM32F4xx_HAL_Driver/Src/stm32f4xx_hal_dma.c ****     {
 830              		.loc 1 269 5 is_stmt 1 view .LVU244
 269:Drivers/STM32F4xx_HAL_Driver/Src/stm32f4xx_hal_dma.c ****     {
 831              		.loc 1 269 19 is_stmt 0 view .LVU245
 832 0240 E36A     		ldr	r3, [r4, #44]
 269:Drivers/STM32F4xx_HAL_Driver/Src/stm32f4xx_hal_dma.c ****     {
 833              		.loc 1 269 8 view .LVU246
 834 0242 1BB1     		cbz	r3, .L50
 271:Drivers/STM32F4xx_HAL_Driver/Src/stm32f4xx_hal_dma.c ****       {
 835              		.loc 1 271 7 is_stmt 1 view .LVU247
 271:Drivers/STM32F4xx_HAL_Driver/Src/stm32f4xx_hal_dma.c ****       {
 836              		.loc 1 271 11 is_stmt 0 view .LVU248
 837 0244 2046     		mov	r0, r4
 838 0246 FFF7FEFF 		bl	DMA_CheckFifoParam
 839              	.LVL73:
 271:Drivers/STM32F4xx_HAL_Driver/Src/stm32f4xx_hal_dma.c ****       {
 840              		.loc 1 271 10 discriminator 1 view .LVU249
 841 024a C0B9     		cbnz	r0, .L67
 842              	.L50:
 285:Drivers/STM32F4xx_HAL_Driver/Src/stm32f4xx_hal_dma.c **** 
 843              		.loc 1 285 3 is_stmt 1 view .LVU250
 285:Drivers/STM32F4xx_HAL_Driver/Src/stm32f4xx_hal_dma.c **** 
 844              		.loc 1 285 23 is_stmt 0 view .LVU251
 845 024c 7561     		str	r5, [r6, #20]
 289:Drivers/STM32F4xx_HAL_Driver/Src/stm32f4xx_hal_dma.c ****   
 846              		.loc 1 289 3 is_stmt 1 view .LVU252
 289:Drivers/STM32F4xx_HAL_Driver/Src/stm32f4xx_hal_dma.c ****   
 847              		.loc 1 289 32 is_stmt 0 view .LVU253
 848 024e 2046     		mov	r0, r4
 849 0250 FFF7FEFF 		bl	DMA_CalcBaseAndBitshift
 850              	.LVL74:
 292:Drivers/STM32F4xx_HAL_Driver/Src/stm32f4xx_hal_dma.c **** 
 851              		.loc 1 292 3 is_stmt 1 view .LVU254
 292:Drivers/STM32F4xx_HAL_Driver/Src/stm32f4xx_hal_dma.c **** 
 852              		.loc 1 292 29 is_stmt 0 view .LVU255
 853 0254 E26D     		ldr	r2, [r4, #92]
 292:Drivers/STM32F4xx_HAL_Driver/Src/stm32f4xx_hal_dma.c **** 
 854              		.loc 1 292 22 view .LVU256
 855 0256 3F23     		movs	r3, #63
ARM GAS  C:\Users\hanaj\AppData\Local\Temp\ccOrHUbU.s 			page 42


 856 0258 9340     		lsls	r3, r3, r2
 292:Drivers/STM32F4xx_HAL_Driver/Src/stm32f4xx_hal_dma.c **** 
 857              		.loc 1 292 14 view .LVU257
 858 025a 8360     		str	r3, [r0, #8]
 295:Drivers/STM32F4xx_HAL_Driver/Src/stm32f4xx_hal_dma.c ****                                                                                      
 859              		.loc 1 295 3 is_stmt 1 view .LVU258
 295:Drivers/STM32F4xx_HAL_Driver/Src/stm32f4xx_hal_dma.c ****                                                                                      
 860              		.loc 1 295 19 is_stmt 0 view .LVU259
 861 025c 0020     		movs	r0, #0
 862              	.LVL75:
 295:Drivers/STM32F4xx_HAL_Driver/Src/stm32f4xx_hal_dma.c ****                                                                                      
 863              		.loc 1 295 19 view .LVU260
 864 025e 6065     		str	r0, [r4, #84]
 298:Drivers/STM32F4xx_HAL_Driver/Src/stm32f4xx_hal_dma.c **** 
 865              		.loc 1 298 3 is_stmt 1 view .LVU261
 298:Drivers/STM32F4xx_HAL_Driver/Src/stm32f4xx_hal_dma.c **** 
 866              		.loc 1 298 15 is_stmt 0 view .LVU262
 867 0260 0123     		movs	r3, #1
 868 0262 84F83530 		strb	r3, [r4, #53]
 300:Drivers/STM32F4xx_HAL_Driver/Src/stm32f4xx_hal_dma.c **** }
 869              		.loc 1 300 3 is_stmt 1 view .LVU263
 300:Drivers/STM32F4xx_HAL_Driver/Src/stm32f4xx_hal_dma.c **** }
 870              		.loc 1 300 10 is_stmt 0 view .LVU264
 871 0266 8DE7     		b	.L33
 872              	.L69:
 873              		.align	2
 874              	.L68:
 875 0268 10600240 		.word	1073897488
 876 026c 00000000 		.word	.LC0
 877 0270 3F8010F0 		.word	-267354049
 878              	.LVL76:
 879              	.L66:
 246:Drivers/STM32F4xx_HAL_Driver/Src/stm32f4xx_hal_dma.c ****   }
 880              		.loc 1 246 5 is_stmt 1 view .LVU265
 246:Drivers/STM32F4xx_HAL_Driver/Src/stm32f4xx_hal_dma.c ****   }
 881              		.loc 1 246 23 is_stmt 0 view .LVU266
 882 0274 E16A     		ldr	r1, [r4, #44]
 246:Drivers/STM32F4xx_HAL_Driver/Src/stm32f4xx_hal_dma.c ****   }
 883              		.loc 1 246 45 view .LVU267
 884 0276 206B     		ldr	r0, [r4, #48]
 246:Drivers/STM32F4xx_HAL_Driver/Src/stm32f4xx_hal_dma.c ****   }
 885              		.loc 1 246 33 view .LVU268
 886 0278 0143     		orrs	r1, r1, r0
 246:Drivers/STM32F4xx_HAL_Driver/Src/stm32f4xx_hal_dma.c ****   }
 887              		.loc 1 246 9 view .LVU269
 888 027a 0A43     		orrs	r2, r2, r1
 889              	.LVL77:
 246:Drivers/STM32F4xx_HAL_Driver/Src/stm32f4xx_hal_dma.c ****   }
 890              		.loc 1 246 9 view .LVU270
 891 027c D5E7     		b	.L49
 892              	.LVL78:
 893              	.L67:
 274:Drivers/STM32F4xx_HAL_Driver/Src/stm32f4xx_hal_dma.c ****         
 894              		.loc 1 274 9 is_stmt 1 view .LVU271
 274:Drivers/STM32F4xx_HAL_Driver/Src/stm32f4xx_hal_dma.c ****         
 895              		.loc 1 274 25 is_stmt 0 view .LVU272
 896 027e 4023     		movs	r3, #64
ARM GAS  C:\Users\hanaj\AppData\Local\Temp\ccOrHUbU.s 			page 43


 897 0280 6365     		str	r3, [r4, #84]
 277:Drivers/STM32F4xx_HAL_Driver/Src/stm32f4xx_hal_dma.c ****         
 898              		.loc 1 277 9 is_stmt 1 view .LVU273
 277:Drivers/STM32F4xx_HAL_Driver/Src/stm32f4xx_hal_dma.c ****         
 899              		.loc 1 277 21 is_stmt 0 view .LVU274
 900 0282 0120     		movs	r0, #1
 901 0284 84F83500 		strb	r0, [r4, #53]
 279:Drivers/STM32F4xx_HAL_Driver/Src/stm32f4xx_hal_dma.c ****       }
 902              		.loc 1 279 9 is_stmt 1 view .LVU275
 279:Drivers/STM32F4xx_HAL_Driver/Src/stm32f4xx_hal_dma.c ****       }
 903              		.loc 1 279 16 is_stmt 0 view .LVU276
 904 0288 7CE7     		b	.L33
 905              	.LVL79:
 906              	.L51:
 179:Drivers/STM32F4xx_HAL_Driver/Src/stm32f4xx_hal_dma.c ****   }
 907              		.loc 1 179 12 view .LVU277
 908 028a 0120     		movs	r0, #1
 909              	.LVL80:
 179:Drivers/STM32F4xx_HAL_Driver/Src/stm32f4xx_hal_dma.c ****   }
 910              		.loc 1 179 12 view .LVU278
 911 028c 7AE7     		b	.L33
 912              		.cfi_endproc
 913              	.LFE239:
 915 028e 00BF     		.section	.text.HAL_DMA_DeInit,"ax",%progbits
 916              		.align	1
 917              		.global	HAL_DMA_DeInit
 918              		.syntax unified
 919              		.thumb
 920              		.thumb_func
 922              	HAL_DMA_DeInit:
 923              	.LVL81:
 924              	.LFB240:
 310:Drivers/STM32F4xx_HAL_Driver/Src/stm32f4xx_hal_dma.c ****   DMA_Base_Registers *regs;
 925              		.loc 1 310 1 is_stmt 1 view -0
 926              		.cfi_startproc
 927              		@ args = 0, pretend = 0, frame = 0
 928              		@ frame_needed = 0, uses_anonymous_args = 0
 311:Drivers/STM32F4xx_HAL_Driver/Src/stm32f4xx_hal_dma.c **** 
 929              		.loc 1 311 3 view .LVU280
 314:Drivers/STM32F4xx_HAL_Driver/Src/stm32f4xx_hal_dma.c ****   {
 930              		.loc 1 314 3 view .LVU281
 314:Drivers/STM32F4xx_HAL_Driver/Src/stm32f4xx_hal_dma.c ****   {
 931              		.loc 1 314 5 is_stmt 0 view .LVU282
 932 0000 0028     		cmp	r0, #0
 933 0002 64D0     		beq	.L73
 310:Drivers/STM32F4xx_HAL_Driver/Src/stm32f4xx_hal_dma.c ****   DMA_Base_Registers *regs;
 934              		.loc 1 310 1 view .LVU283
 935 0004 38B5     		push	{r3, r4, r5, lr}
 936              	.LCFI7:
 937              		.cfi_def_cfa_offset 16
 938              		.cfi_offset 3, -16
 939              		.cfi_offset 4, -12
 940              		.cfi_offset 5, -8
 941              		.cfi_offset 14, -4
 942 0006 0546     		mov	r5, r0
 320:Drivers/STM32F4xx_HAL_Driver/Src/stm32f4xx_hal_dma.c ****   {
 943              		.loc 1 320 3 is_stmt 1 view .LVU284
ARM GAS  C:\Users\hanaj\AppData\Local\Temp\ccOrHUbU.s 			page 44


 320:Drivers/STM32F4xx_HAL_Driver/Src/stm32f4xx_hal_dma.c ****   {
 944              		.loc 1 320 10 is_stmt 0 view .LVU285
 945 0008 90F83500 		ldrb	r0, [r0, #53]	@ zero_extendqisi2
 946              	.LVL82:
 320:Drivers/STM32F4xx_HAL_Driver/Src/stm32f4xx_hal_dma.c ****   {
 947              		.loc 1 320 10 view .LVU286
 948 000c C0B2     		uxtb	r0, r0
 320:Drivers/STM32F4xx_HAL_Driver/Src/stm32f4xx_hal_dma.c ****   {
 949              		.loc 1 320 5 view .LVU287
 950 000e 0228     		cmp	r0, #2
 951 0010 5CD0     		beq	.L71
 327:Drivers/STM32F4xx_HAL_Driver/Src/stm32f4xx_hal_dma.c **** 
 952              		.loc 1 327 3 is_stmt 1 view .LVU288
 953 0012 2B68     		ldr	r3, [r5]
 954 0014 2F4A     		ldr	r2, .L78
 955 0016 9342     		cmp	r3, r2
 956 0018 32D0     		beq	.L72
 327:Drivers/STM32F4xx_HAL_Driver/Src/stm32f4xx_hal_dma.c **** 
 957              		.loc 1 327 3 is_stmt 0 discriminator 1 view .LVU289
 958 001a 1832     		adds	r2, r2, #24
 959 001c 9342     		cmp	r3, r2
 960 001e 2FD0     		beq	.L72
 327:Drivers/STM32F4xx_HAL_Driver/Src/stm32f4xx_hal_dma.c **** 
 961              		.loc 1 327 3 discriminator 2 view .LVU290
 962 0020 1832     		adds	r2, r2, #24
 963 0022 9342     		cmp	r3, r2
 964 0024 2CD0     		beq	.L72
 327:Drivers/STM32F4xx_HAL_Driver/Src/stm32f4xx_hal_dma.c **** 
 965              		.loc 1 327 3 discriminator 3 view .LVU291
 966 0026 1832     		adds	r2, r2, #24
 967 0028 9342     		cmp	r3, r2
 968 002a 29D0     		beq	.L72
 327:Drivers/STM32F4xx_HAL_Driver/Src/stm32f4xx_hal_dma.c **** 
 969              		.loc 1 327 3 discriminator 4 view .LVU292
 970 002c 1832     		adds	r2, r2, #24
 971 002e 9342     		cmp	r3, r2
 972 0030 26D0     		beq	.L72
 327:Drivers/STM32F4xx_HAL_Driver/Src/stm32f4xx_hal_dma.c **** 
 973              		.loc 1 327 3 discriminator 5 view .LVU293
 974 0032 1832     		adds	r2, r2, #24
 975 0034 9342     		cmp	r3, r2
 976 0036 23D0     		beq	.L72
 327:Drivers/STM32F4xx_HAL_Driver/Src/stm32f4xx_hal_dma.c **** 
 977              		.loc 1 327 3 discriminator 6 view .LVU294
 978 0038 1832     		adds	r2, r2, #24
 979 003a 9342     		cmp	r3, r2
 980 003c 20D0     		beq	.L72
 327:Drivers/STM32F4xx_HAL_Driver/Src/stm32f4xx_hal_dma.c **** 
 981              		.loc 1 327 3 discriminator 7 view .LVU295
 982 003e 1832     		adds	r2, r2, #24
 983 0040 9342     		cmp	r3, r2
 984 0042 1DD0     		beq	.L72
 327:Drivers/STM32F4xx_HAL_Driver/Src/stm32f4xx_hal_dma.c **** 
 985              		.loc 1 327 3 discriminator 8 view .LVU296
 986 0044 02F55672 		add	r2, r2, #856
 987 0048 9342     		cmp	r3, r2
 988 004a 19D0     		beq	.L72
ARM GAS  C:\Users\hanaj\AppData\Local\Temp\ccOrHUbU.s 			page 45


 327:Drivers/STM32F4xx_HAL_Driver/Src/stm32f4xx_hal_dma.c **** 
 989              		.loc 1 327 3 discriminator 9 view .LVU297
 990 004c 1832     		adds	r2, r2, #24
 991 004e 9342     		cmp	r3, r2
 992 0050 16D0     		beq	.L72
 327:Drivers/STM32F4xx_HAL_Driver/Src/stm32f4xx_hal_dma.c **** 
 993              		.loc 1 327 3 discriminator 10 view .LVU298
 994 0052 1832     		adds	r2, r2, #24
 995 0054 9342     		cmp	r3, r2
 996 0056 13D0     		beq	.L72
 327:Drivers/STM32F4xx_HAL_Driver/Src/stm32f4xx_hal_dma.c **** 
 997              		.loc 1 327 3 discriminator 11 view .LVU299
 998 0058 1832     		adds	r2, r2, #24
 999 005a 9342     		cmp	r3, r2
 1000 005c 10D0     		beq	.L72
 327:Drivers/STM32F4xx_HAL_Driver/Src/stm32f4xx_hal_dma.c **** 
 1001              		.loc 1 327 3 discriminator 12 view .LVU300
 1002 005e 1832     		adds	r2, r2, #24
 1003 0060 9342     		cmp	r3, r2
 1004 0062 0DD0     		beq	.L72
 327:Drivers/STM32F4xx_HAL_Driver/Src/stm32f4xx_hal_dma.c **** 
 1005              		.loc 1 327 3 discriminator 13 view .LVU301
 1006 0064 1832     		adds	r2, r2, #24
 1007 0066 9342     		cmp	r3, r2
 1008 0068 0AD0     		beq	.L72
 327:Drivers/STM32F4xx_HAL_Driver/Src/stm32f4xx_hal_dma.c **** 
 1009              		.loc 1 327 3 discriminator 14 view .LVU302
 1010 006a 1832     		adds	r2, r2, #24
 1011 006c 9342     		cmp	r3, r2
 1012 006e 07D0     		beq	.L72
 327:Drivers/STM32F4xx_HAL_Driver/Src/stm32f4xx_hal_dma.c **** 
 1013              		.loc 1 327 3 discriminator 15 view .LVU303
 1014 0070 1832     		adds	r2, r2, #24
 1015 0072 9342     		cmp	r3, r2
 1016 0074 04D0     		beq	.L72
 327:Drivers/STM32F4xx_HAL_Driver/Src/stm32f4xx_hal_dma.c **** 
 1017              		.loc 1 327 3 discriminator 16 view .LVU304
 1018 0076 40F24711 		movw	r1, #327
 1019 007a 1748     		ldr	r0, .L78+4
 1020 007c FFF7FEFF 		bl	assert_failed
 1021              	.LVL83:
 1022              	.L72:
 330:Drivers/STM32F4xx_HAL_Driver/Src/stm32f4xx_hal_dma.c **** 
 1023              		.loc 1 330 3 is_stmt 1 view .LVU305
 1024 0080 2A68     		ldr	r2, [r5]
 1025 0082 1368     		ldr	r3, [r2]
 1026 0084 23F00103 		bic	r3, r3, #1
 1027 0088 1360     		str	r3, [r2]
 333:Drivers/STM32F4xx_HAL_Driver/Src/stm32f4xx_hal_dma.c **** 
 1028              		.loc 1 333 3 view .LVU306
 333:Drivers/STM32F4xx_HAL_Driver/Src/stm32f4xx_hal_dma.c **** 
 1029              		.loc 1 333 7 is_stmt 0 view .LVU307
 1030 008a 2B68     		ldr	r3, [r5]
 333:Drivers/STM32F4xx_HAL_Driver/Src/stm32f4xx_hal_dma.c **** 
 1031              		.loc 1 333 24 view .LVU308
 1032 008c 0024     		movs	r4, #0
 1033 008e 1C60     		str	r4, [r3]
ARM GAS  C:\Users\hanaj\AppData\Local\Temp\ccOrHUbU.s 			page 46


 336:Drivers/STM32F4xx_HAL_Driver/Src/stm32f4xx_hal_dma.c **** 
 1034              		.loc 1 336 3 is_stmt 1 view .LVU309
 336:Drivers/STM32F4xx_HAL_Driver/Src/stm32f4xx_hal_dma.c **** 
 1035              		.loc 1 336 7 is_stmt 0 view .LVU310
 1036 0090 2B68     		ldr	r3, [r5]
 336:Drivers/STM32F4xx_HAL_Driver/Src/stm32f4xx_hal_dma.c **** 
 1037              		.loc 1 336 24 view .LVU311
 1038 0092 5C60     		str	r4, [r3, #4]
 339:Drivers/STM32F4xx_HAL_Driver/Src/stm32f4xx_hal_dma.c **** 
 1039              		.loc 1 339 3 is_stmt 1 view .LVU312
 339:Drivers/STM32F4xx_HAL_Driver/Src/stm32f4xx_hal_dma.c **** 
 1040              		.loc 1 339 7 is_stmt 0 view .LVU313
 1041 0094 2B68     		ldr	r3, [r5]
 339:Drivers/STM32F4xx_HAL_Driver/Src/stm32f4xx_hal_dma.c **** 
 1042              		.loc 1 339 24 view .LVU314
 1043 0096 9C60     		str	r4, [r3, #8]
 342:Drivers/STM32F4xx_HAL_Driver/Src/stm32f4xx_hal_dma.c ****   
 1044              		.loc 1 342 3 is_stmt 1 view .LVU315
 342:Drivers/STM32F4xx_HAL_Driver/Src/stm32f4xx_hal_dma.c ****   
 1045              		.loc 1 342 7 is_stmt 0 view .LVU316
 1046 0098 2B68     		ldr	r3, [r5]
 342:Drivers/STM32F4xx_HAL_Driver/Src/stm32f4xx_hal_dma.c ****   
 1047              		.loc 1 342 24 view .LVU317
 1048 009a DC60     		str	r4, [r3, #12]
 345:Drivers/STM32F4xx_HAL_Driver/Src/stm32f4xx_hal_dma.c ****   
 1049              		.loc 1 345 3 is_stmt 1 view .LVU318
 345:Drivers/STM32F4xx_HAL_Driver/Src/stm32f4xx_hal_dma.c ****   
 1050              		.loc 1 345 7 is_stmt 0 view .LVU319
 1051 009c 2B68     		ldr	r3, [r5]
 345:Drivers/STM32F4xx_HAL_Driver/Src/stm32f4xx_hal_dma.c ****   
 1052              		.loc 1 345 24 view .LVU320
 1053 009e 1C61     		str	r4, [r3, #16]
 348:Drivers/STM32F4xx_HAL_Driver/Src/stm32f4xx_hal_dma.c ****   
 1054              		.loc 1 348 3 is_stmt 1 view .LVU321
 348:Drivers/STM32F4xx_HAL_Driver/Src/stm32f4xx_hal_dma.c ****   
 1055              		.loc 1 348 7 is_stmt 0 view .LVU322
 1056 00a0 2B68     		ldr	r3, [r5]
 348:Drivers/STM32F4xx_HAL_Driver/Src/stm32f4xx_hal_dma.c ****   
 1057              		.loc 1 348 24 view .LVU323
 1058 00a2 2122     		movs	r2, #33
 1059 00a4 5A61     		str	r2, [r3, #20]
 351:Drivers/STM32F4xx_HAL_Driver/Src/stm32f4xx_hal_dma.c ****   
 1060              		.loc 1 351 3 is_stmt 1 view .LVU324
 351:Drivers/STM32F4xx_HAL_Driver/Src/stm32f4xx_hal_dma.c ****   
 1061              		.loc 1 351 32 is_stmt 0 view .LVU325
 1062 00a6 2846     		mov	r0, r5
 1063 00a8 FFF7FEFF 		bl	DMA_CalcBaseAndBitshift
 1064              	.LVL84:
 354:Drivers/STM32F4xx_HAL_Driver/Src/stm32f4xx_hal_dma.c ****   hdma->XferHalfCpltCallback = NULL;
 1065              		.loc 1 354 3 is_stmt 1 view .LVU326
 354:Drivers/STM32F4xx_HAL_Driver/Src/stm32f4xx_hal_dma.c ****   hdma->XferHalfCpltCallback = NULL;
 1066              		.loc 1 354 26 is_stmt 0 view .LVU327
 1067 00ac EC63     		str	r4, [r5, #60]
 355:Drivers/STM32F4xx_HAL_Driver/Src/stm32f4xx_hal_dma.c ****   hdma->XferM1CpltCallback = NULL;
 1068              		.loc 1 355 3 is_stmt 1 view .LVU328
 355:Drivers/STM32F4xx_HAL_Driver/Src/stm32f4xx_hal_dma.c ****   hdma->XferM1CpltCallback = NULL;
 1069              		.loc 1 355 30 is_stmt 0 view .LVU329
ARM GAS  C:\Users\hanaj\AppData\Local\Temp\ccOrHUbU.s 			page 47


 1070 00ae 2C64     		str	r4, [r5, #64]
 356:Drivers/STM32F4xx_HAL_Driver/Src/stm32f4xx_hal_dma.c ****   hdma->XferM1HalfCpltCallback = NULL;
 1071              		.loc 1 356 3 is_stmt 1 view .LVU330
 356:Drivers/STM32F4xx_HAL_Driver/Src/stm32f4xx_hal_dma.c ****   hdma->XferM1HalfCpltCallback = NULL;
 1072              		.loc 1 356 28 is_stmt 0 view .LVU331
 1073 00b0 6C64     		str	r4, [r5, #68]
 357:Drivers/STM32F4xx_HAL_Driver/Src/stm32f4xx_hal_dma.c ****   hdma->XferErrorCallback = NULL;
 1074              		.loc 1 357 3 is_stmt 1 view .LVU332
 357:Drivers/STM32F4xx_HAL_Driver/Src/stm32f4xx_hal_dma.c ****   hdma->XferErrorCallback = NULL;
 1075              		.loc 1 357 32 is_stmt 0 view .LVU333
 1076 00b2 AC64     		str	r4, [r5, #72]
 358:Drivers/STM32F4xx_HAL_Driver/Src/stm32f4xx_hal_dma.c ****   hdma->XferAbortCallback = NULL;
 1077              		.loc 1 358 3 is_stmt 1 view .LVU334
 358:Drivers/STM32F4xx_HAL_Driver/Src/stm32f4xx_hal_dma.c ****   hdma->XferAbortCallback = NULL;
 1078              		.loc 1 358 27 is_stmt 0 view .LVU335
 1079 00b4 EC64     		str	r4, [r5, #76]
 359:Drivers/STM32F4xx_HAL_Driver/Src/stm32f4xx_hal_dma.c **** 
 1080              		.loc 1 359 3 is_stmt 1 view .LVU336
 359:Drivers/STM32F4xx_HAL_Driver/Src/stm32f4xx_hal_dma.c **** 
 1081              		.loc 1 359 27 is_stmt 0 view .LVU337
 1082 00b6 2C65     		str	r4, [r5, #80]
 362:Drivers/STM32F4xx_HAL_Driver/Src/stm32f4xx_hal_dma.c **** 
 1083              		.loc 1 362 3 is_stmt 1 view .LVU338
 362:Drivers/STM32F4xx_HAL_Driver/Src/stm32f4xx_hal_dma.c **** 
 1084              		.loc 1 362 29 is_stmt 0 view .LVU339
 1085 00b8 EA6D     		ldr	r2, [r5, #92]
 362:Drivers/STM32F4xx_HAL_Driver/Src/stm32f4xx_hal_dma.c **** 
 1086              		.loc 1 362 22 view .LVU340
 1087 00ba 3F23     		movs	r3, #63
 1088 00bc 9340     		lsls	r3, r3, r2
 362:Drivers/STM32F4xx_HAL_Driver/Src/stm32f4xx_hal_dma.c **** 
 1089              		.loc 1 362 14 view .LVU341
 1090 00be 8360     		str	r3, [r0, #8]
 365:Drivers/STM32F4xx_HAL_Driver/Src/stm32f4xx_hal_dma.c **** 
 1091              		.loc 1 365 3 is_stmt 1 view .LVU342
 365:Drivers/STM32F4xx_HAL_Driver/Src/stm32f4xx_hal_dma.c **** 
 1092              		.loc 1 365 19 is_stmt 0 view .LVU343
 1093 00c0 6C65     		str	r4, [r5, #84]
 368:Drivers/STM32F4xx_HAL_Driver/Src/stm32f4xx_hal_dma.c **** 
 1094              		.loc 1 368 3 is_stmt 1 view .LVU344
 368:Drivers/STM32F4xx_HAL_Driver/Src/stm32f4xx_hal_dma.c **** 
 1095              		.loc 1 368 15 is_stmt 0 view .LVU345
 1096 00c2 85F83540 		strb	r4, [r5, #53]
 371:Drivers/STM32F4xx_HAL_Driver/Src/stm32f4xx_hal_dma.c **** 
 1097              		.loc 1 371 3 is_stmt 1 view .LVU346
 371:Drivers/STM32F4xx_HAL_Driver/Src/stm32f4xx_hal_dma.c **** 
 1098              		.loc 1 371 3 view .LVU347
 1099 00c6 85F83440 		strb	r4, [r5, #52]
 371:Drivers/STM32F4xx_HAL_Driver/Src/stm32f4xx_hal_dma.c **** 
 1100              		.loc 1 371 3 view .LVU348
 373:Drivers/STM32F4xx_HAL_Driver/Src/stm32f4xx_hal_dma.c **** }
 1101              		.loc 1 373 3 view .LVU349
 373:Drivers/STM32F4xx_HAL_Driver/Src/stm32f4xx_hal_dma.c **** }
 1102              		.loc 1 373 10 is_stmt 0 view .LVU350
 1103 00ca 2046     		mov	r0, r4
 1104              	.LVL85:
 1105              	.L71:
ARM GAS  C:\Users\hanaj\AppData\Local\Temp\ccOrHUbU.s 			page 48


 374:Drivers/STM32F4xx_HAL_Driver/Src/stm32f4xx_hal_dma.c **** 
 1106              		.loc 1 374 1 view .LVU351
 1107 00cc 38BD     		pop	{r3, r4, r5, pc}
 1108              	.LVL86:
 1109              	.L73:
 1110              	.LCFI8:
 1111              		.cfi_def_cfa_offset 0
 1112              		.cfi_restore 3
 1113              		.cfi_restore 4
 1114              		.cfi_restore 5
 1115              		.cfi_restore 14
 316:Drivers/STM32F4xx_HAL_Driver/Src/stm32f4xx_hal_dma.c ****   }
 1116              		.loc 1 316 12 view .LVU352
 1117 00ce 0120     		movs	r0, #1
 1118              	.LVL87:
 374:Drivers/STM32F4xx_HAL_Driver/Src/stm32f4xx_hal_dma.c **** 
 1119              		.loc 1 374 1 view .LVU353
 1120 00d0 7047     		bx	lr
 1121              	.L79:
 1122 00d2 00BF     		.align	2
 1123              	.L78:
 1124 00d4 10600240 		.word	1073897488
 1125 00d8 00000000 		.word	.LC0
 1126              		.cfi_endproc
 1127              	.LFE240:
 1129              		.section	.text.HAL_DMA_Start,"ax",%progbits
 1130              		.align	1
 1131              		.global	HAL_DMA_Start
 1132              		.syntax unified
 1133              		.thumb
 1134              		.thumb_func
 1136              	HAL_DMA_Start:
 1137              	.LVL88:
 1138              	.LFB241:
 408:Drivers/STM32F4xx_HAL_Driver/Src/stm32f4xx_hal_dma.c ****   HAL_StatusTypeDef status = HAL_OK;
 1139              		.loc 1 408 1 is_stmt 1 view -0
 1140              		.cfi_startproc
 1141              		@ args = 0, pretend = 0, frame = 0
 1142              		@ frame_needed = 0, uses_anonymous_args = 0
 408:Drivers/STM32F4xx_HAL_Driver/Src/stm32f4xx_hal_dma.c ****   HAL_StatusTypeDef status = HAL_OK;
 1143              		.loc 1 408 1 is_stmt 0 view .LVU355
 1144 0000 2DE9F041 		push	{r4, r5, r6, r7, r8, lr}
 1145              	.LCFI9:
 1146              		.cfi_def_cfa_offset 24
 1147              		.cfi_offset 4, -24
 1148              		.cfi_offset 5, -20
 1149              		.cfi_offset 6, -16
 1150              		.cfi_offset 7, -12
 1151              		.cfi_offset 8, -8
 1152              		.cfi_offset 14, -4
 1153 0004 0446     		mov	r4, r0
 1154 0006 0E46     		mov	r6, r1
 1155 0008 1746     		mov	r7, r2
 1156 000a 1D46     		mov	r5, r3
 409:Drivers/STM32F4xx_HAL_Driver/Src/stm32f4xx_hal_dma.c ****   
 1157              		.loc 1 409 3 is_stmt 1 view .LVU356
 1158              	.LVL89:
ARM GAS  C:\Users\hanaj\AppData\Local\Temp\ccOrHUbU.s 			page 49


 412:Drivers/STM32F4xx_HAL_Driver/Src/stm32f4xx_hal_dma.c **** 
 1159              		.loc 1 412 3 view .LVU357
 1160 000c 5A1E     		subs	r2, r3, #1
 1161              	.LVL90:
 412:Drivers/STM32F4xx_HAL_Driver/Src/stm32f4xx_hal_dma.c **** 
 1162              		.loc 1 412 3 is_stmt 0 view .LVU358
 1163 000e 4FF6FE73 		movw	r3, #65534
 1164              	.LVL91:
 412:Drivers/STM32F4xx_HAL_Driver/Src/stm32f4xx_hal_dma.c **** 
 1165              		.loc 1 412 3 view .LVU359
 1166 0012 9A42     		cmp	r2, r3
 1167 0014 11D8     		bhi	.L86
 1168              	.LVL92:
 1169              	.L81:
 415:Drivers/STM32F4xx_HAL_Driver/Src/stm32f4xx_hal_dma.c **** 
 1170              		.loc 1 415 3 is_stmt 1 view .LVU360
 415:Drivers/STM32F4xx_HAL_Driver/Src/stm32f4xx_hal_dma.c **** 
 1171              		.loc 1 415 3 view .LVU361
 1172 0016 94F83430 		ldrb	r3, [r4, #52]	@ zero_extendqisi2
 1173 001a 012B     		cmp	r3, #1
 1174 001c 27D0     		beq	.L84
 415:Drivers/STM32F4xx_HAL_Driver/Src/stm32f4xx_hal_dma.c **** 
 1175              		.loc 1 415 3 discriminator 2 view .LVU362
 1176 001e 0123     		movs	r3, #1
 1177 0020 84F83430 		strb	r3, [r4, #52]
 415:Drivers/STM32F4xx_HAL_Driver/Src/stm32f4xx_hal_dma.c **** 
 1178              		.loc 1 415 3 discriminator 2 view .LVU363
 417:Drivers/STM32F4xx_HAL_Driver/Src/stm32f4xx_hal_dma.c ****   {
 1179              		.loc 1 417 3 view .LVU364
 417:Drivers/STM32F4xx_HAL_Driver/Src/stm32f4xx_hal_dma.c ****   {
 1180              		.loc 1 417 33 is_stmt 0 view .LVU365
 1181 0024 94F83530 		ldrb	r3, [r4, #53]	@ zero_extendqisi2
 1182 0028 DBB2     		uxtb	r3, r3
 417:Drivers/STM32F4xx_HAL_Driver/Src/stm32f4xx_hal_dma.c ****   {
 1183              		.loc 1 417 5 view .LVU366
 1184 002a 012B     		cmp	r3, #1
 1185 002c 0BD0     		beq	.L87
 434:Drivers/STM32F4xx_HAL_Driver/Src/stm32f4xx_hal_dma.c ****     
 1186              		.loc 1 434 5 is_stmt 1 view .LVU367
 434:Drivers/STM32F4xx_HAL_Driver/Src/stm32f4xx_hal_dma.c ****     
 1187              		.loc 1 434 5 view .LVU368
 1188 002e 0023     		movs	r3, #0
 1189 0030 84F83430 		strb	r3, [r4, #52]
 434:Drivers/STM32F4xx_HAL_Driver/Src/stm32f4xx_hal_dma.c ****     
 1190              		.loc 1 434 5 view .LVU369
 437:Drivers/STM32F4xx_HAL_Driver/Src/stm32f4xx_hal_dma.c ****   } 
 1191              		.loc 1 437 5 view .LVU370
 1192              	.LVL93:
 437:Drivers/STM32F4xx_HAL_Driver/Src/stm32f4xx_hal_dma.c ****   } 
 1193              		.loc 1 437 12 is_stmt 0 view .LVU371
 1194 0034 0220     		movs	r0, #2
 1195              	.LVL94:
 1196              	.L82:
 440:Drivers/STM32F4xx_HAL_Driver/Src/stm32f4xx_hal_dma.c **** 
 1197              		.loc 1 440 1 view .LVU372
 1198 0036 BDE8F081 		pop	{r4, r5, r6, r7, r8, pc}
 1199              	.LVL95:
ARM GAS  C:\Users\hanaj\AppData\Local\Temp\ccOrHUbU.s 			page 50


 1200              	.L86:
 412:Drivers/STM32F4xx_HAL_Driver/Src/stm32f4xx_hal_dma.c **** 
 1201              		.loc 1 412 3 discriminator 1 view .LVU373
 1202 003a 4FF4CE71 		mov	r1, #412
 1203              	.LVL96:
 412:Drivers/STM32F4xx_HAL_Driver/Src/stm32f4xx_hal_dma.c **** 
 1204              		.loc 1 412 3 discriminator 1 view .LVU374
 1205 003e 0D48     		ldr	r0, .L88
 1206              	.LVL97:
 412:Drivers/STM32F4xx_HAL_Driver/Src/stm32f4xx_hal_dma.c **** 
 1207              		.loc 1 412 3 discriminator 1 view .LVU375
 1208 0040 FFF7FEFF 		bl	assert_failed
 1209              	.LVL98:
 1210 0044 E7E7     		b	.L81
 1211              	.L87:
 420:Drivers/STM32F4xx_HAL_Driver/Src/stm32f4xx_hal_dma.c ****     
 1212              		.loc 1 420 5 is_stmt 1 view .LVU376
 420:Drivers/STM32F4xx_HAL_Driver/Src/stm32f4xx_hal_dma.c ****     
 1213              		.loc 1 420 17 is_stmt 0 view .LVU377
 1214 0046 0223     		movs	r3, #2
 1215 0048 84F83530 		strb	r3, [r4, #53]
 423:Drivers/STM32F4xx_HAL_Driver/Src/stm32f4xx_hal_dma.c ****     
 1216              		.loc 1 423 5 is_stmt 1 view .LVU378
 423:Drivers/STM32F4xx_HAL_Driver/Src/stm32f4xx_hal_dma.c ****     
 1217              		.loc 1 423 21 is_stmt 0 view .LVU379
 1218 004c 4FF00008 		mov	r8, #0
 1219 0050 C4F85480 		str	r8, [r4, #84]
 426:Drivers/STM32F4xx_HAL_Driver/Src/stm32f4xx_hal_dma.c **** 
 1220              		.loc 1 426 5 is_stmt 1 view .LVU380
 1221 0054 2B46     		mov	r3, r5
 1222 0056 3A46     		mov	r2, r7
 1223 0058 3146     		mov	r1, r6
 1224 005a 2046     		mov	r0, r4
 1225 005c FFF7FEFF 		bl	DMA_SetConfig
 1226              	.LVL99:
 429:Drivers/STM32F4xx_HAL_Driver/Src/stm32f4xx_hal_dma.c ****   }
 1227              		.loc 1 429 5 view .LVU381
 1228 0060 2268     		ldr	r2, [r4]
 1229 0062 1368     		ldr	r3, [r2]
 1230 0064 43F00103 		orr	r3, r3, #1
 1231 0068 1360     		str	r3, [r2]
 409:Drivers/STM32F4xx_HAL_Driver/Src/stm32f4xx_hal_dma.c ****   
 1232              		.loc 1 409 21 is_stmt 0 view .LVU382
 1233 006a 4046     		mov	r0, r8
 1234 006c E3E7     		b	.L82
 1235              	.L84:
 415:Drivers/STM32F4xx_HAL_Driver/Src/stm32f4xx_hal_dma.c **** 
 1236              		.loc 1 415 3 discriminator 1 view .LVU383
 1237 006e 0220     		movs	r0, #2
 1238 0070 E1E7     		b	.L82
 1239              	.L89:
 1240 0072 00BF     		.align	2
 1241              	.L88:
 1242 0074 00000000 		.word	.LC0
 1243              		.cfi_endproc
 1244              	.LFE241:
 1246              		.section	.text.HAL_DMA_Start_IT,"ax",%progbits
ARM GAS  C:\Users\hanaj\AppData\Local\Temp\ccOrHUbU.s 			page 51


 1247              		.align	1
 1248              		.global	HAL_DMA_Start_IT
 1249              		.syntax unified
 1250              		.thumb
 1251              		.thumb_func
 1253              	HAL_DMA_Start_IT:
 1254              	.LVL100:
 1255              	.LFB242:
 452:Drivers/STM32F4xx_HAL_Driver/Src/stm32f4xx_hal_dma.c ****   HAL_StatusTypeDef status = HAL_OK;
 1256              		.loc 1 452 1 is_stmt 1 view -0
 1257              		.cfi_startproc
 1258              		@ args = 0, pretend = 0, frame = 0
 1259              		@ frame_needed = 0, uses_anonymous_args = 0
 452:Drivers/STM32F4xx_HAL_Driver/Src/stm32f4xx_hal_dma.c ****   HAL_StatusTypeDef status = HAL_OK;
 1260              		.loc 1 452 1 is_stmt 0 view .LVU385
 1261 0000 2DE9F041 		push	{r4, r5, r6, r7, r8, lr}
 1262              	.LCFI10:
 1263              		.cfi_def_cfa_offset 24
 1264              		.cfi_offset 4, -24
 1265              		.cfi_offset 5, -20
 1266              		.cfi_offset 6, -16
 1267              		.cfi_offset 7, -12
 1268              		.cfi_offset 8, -8
 1269              		.cfi_offset 14, -4
 1270 0004 0446     		mov	r4, r0
 1271 0006 0E46     		mov	r6, r1
 1272 0008 1746     		mov	r7, r2
 1273 000a 1D46     		mov	r5, r3
 453:Drivers/STM32F4xx_HAL_Driver/Src/stm32f4xx_hal_dma.c **** 
 1274              		.loc 1 453 3 is_stmt 1 view .LVU386
 1275              	.LVL101:
 456:Drivers/STM32F4xx_HAL_Driver/Src/stm32f4xx_hal_dma.c ****   
 1276              		.loc 1 456 3 view .LVU387
 456:Drivers/STM32F4xx_HAL_Driver/Src/stm32f4xx_hal_dma.c ****   
 1277              		.loc 1 456 56 is_stmt 0 view .LVU388
 1278 000c D0F85880 		ldr	r8, [r0, #88]
 1279              	.LVL102:
 459:Drivers/STM32F4xx_HAL_Driver/Src/stm32f4xx_hal_dma.c ****  
 1280              		.loc 1 459 3 is_stmt 1 view .LVU389
 1281 0010 5A1E     		subs	r2, r3, #1
 1282              	.LVL103:
 459:Drivers/STM32F4xx_HAL_Driver/Src/stm32f4xx_hal_dma.c ****  
 1283              		.loc 1 459 3 is_stmt 0 view .LVU390
 1284 0012 4FF6FE73 		movw	r3, #65534
 1285              	.LVL104:
 459:Drivers/STM32F4xx_HAL_Driver/Src/stm32f4xx_hal_dma.c ****  
 1286              		.loc 1 459 3 view .LVU391
 1287 0016 9A42     		cmp	r2, r3
 1288 0018 11D8     		bhi	.L97
 1289              	.LVL105:
 1290              	.L91:
 462:Drivers/STM32F4xx_HAL_Driver/Src/stm32f4xx_hal_dma.c ****   
 1291              		.loc 1 462 3 is_stmt 1 view .LVU392
 462:Drivers/STM32F4xx_HAL_Driver/Src/stm32f4xx_hal_dma.c ****   
 1292              		.loc 1 462 3 view .LVU393
 1293 001a 94F83430 		ldrb	r3, [r4, #52]	@ zero_extendqisi2
 1294 001e 012B     		cmp	r3, #1
ARM GAS  C:\Users\hanaj\AppData\Local\Temp\ccOrHUbU.s 			page 52


 1295 0020 36D0     		beq	.L95
 462:Drivers/STM32F4xx_HAL_Driver/Src/stm32f4xx_hal_dma.c ****   
 1296              		.loc 1 462 3 discriminator 2 view .LVU394
 1297 0022 0123     		movs	r3, #1
 1298 0024 84F83430 		strb	r3, [r4, #52]
 462:Drivers/STM32F4xx_HAL_Driver/Src/stm32f4xx_hal_dma.c ****   
 1299              		.loc 1 462 3 discriminator 2 view .LVU395
 464:Drivers/STM32F4xx_HAL_Driver/Src/stm32f4xx_hal_dma.c ****   {
 1300              		.loc 1 464 3 view .LVU396
 464:Drivers/STM32F4xx_HAL_Driver/Src/stm32f4xx_hal_dma.c ****   {
 1301              		.loc 1 464 33 is_stmt 0 view .LVU397
 1302 0028 94F83530 		ldrb	r3, [r4, #53]	@ zero_extendqisi2
 1303 002c DBB2     		uxtb	r3, r3
 464:Drivers/STM32F4xx_HAL_Driver/Src/stm32f4xx_hal_dma.c ****   {
 1304              		.loc 1 464 5 view .LVU398
 1305 002e 012B     		cmp	r3, #1
 1306 0030 0BD0     		beq	.L98
 492:Drivers/STM32F4xx_HAL_Driver/Src/stm32f4xx_hal_dma.c ****     
 1307              		.loc 1 492 5 is_stmt 1 view .LVU399
 492:Drivers/STM32F4xx_HAL_Driver/Src/stm32f4xx_hal_dma.c ****     
 1308              		.loc 1 492 5 view .LVU400
 1309 0032 0023     		movs	r3, #0
 1310 0034 84F83430 		strb	r3, [r4, #52]
 492:Drivers/STM32F4xx_HAL_Driver/Src/stm32f4xx_hal_dma.c ****     
 1311              		.loc 1 492 5 view .LVU401
 495:Drivers/STM32F4xx_HAL_Driver/Src/stm32f4xx_hal_dma.c ****   }
 1312              		.loc 1 495 5 view .LVU402
 1313              	.LVL106:
 495:Drivers/STM32F4xx_HAL_Driver/Src/stm32f4xx_hal_dma.c ****   }
 1314              		.loc 1 495 12 is_stmt 0 view .LVU403
 1315 0038 0220     		movs	r0, #2
 1316              	.LVL107:
 1317              	.L92:
 499:Drivers/STM32F4xx_HAL_Driver/Src/stm32f4xx_hal_dma.c **** 
 1318              		.loc 1 499 1 view .LVU404
 1319 003a BDE8F081 		pop	{r4, r5, r6, r7, r8, pc}
 1320              	.LVL108:
 1321              	.L97:
 459:Drivers/STM32F4xx_HAL_Driver/Src/stm32f4xx_hal_dma.c ****  
 1322              		.loc 1 459 3 discriminator 1 view .LVU405
 1323 003e 40F2CB11 		movw	r1, #459
 1324              	.LVL109:
 459:Drivers/STM32F4xx_HAL_Driver/Src/stm32f4xx_hal_dma.c ****  
 1325              		.loc 1 459 3 discriminator 1 view .LVU406
 1326 0042 1448     		ldr	r0, .L99
 1327              	.LVL110:
 459:Drivers/STM32F4xx_HAL_Driver/Src/stm32f4xx_hal_dma.c ****  
 1328              		.loc 1 459 3 discriminator 1 view .LVU407
 1329 0044 FFF7FEFF 		bl	assert_failed
 1330              	.LVL111:
 1331 0048 E7E7     		b	.L91
 1332              	.L98:
 467:Drivers/STM32F4xx_HAL_Driver/Src/stm32f4xx_hal_dma.c ****     
 1333              		.loc 1 467 5 is_stmt 1 view .LVU408
 467:Drivers/STM32F4xx_HAL_Driver/Src/stm32f4xx_hal_dma.c ****     
 1334              		.loc 1 467 17 is_stmt 0 view .LVU409
 1335 004a 0223     		movs	r3, #2
ARM GAS  C:\Users\hanaj\AppData\Local\Temp\ccOrHUbU.s 			page 53


 1336 004c 84F83530 		strb	r3, [r4, #53]
 470:Drivers/STM32F4xx_HAL_Driver/Src/stm32f4xx_hal_dma.c ****     
 1337              		.loc 1 470 5 is_stmt 1 view .LVU410
 470:Drivers/STM32F4xx_HAL_Driver/Src/stm32f4xx_hal_dma.c ****     
 1338              		.loc 1 470 21 is_stmt 0 view .LVU411
 1339 0050 0023     		movs	r3, #0
 1340 0052 6365     		str	r3, [r4, #84]
 473:Drivers/STM32F4xx_HAL_Driver/Src/stm32f4xx_hal_dma.c ****     
 1341              		.loc 1 473 5 is_stmt 1 view .LVU412
 1342 0054 2B46     		mov	r3, r5
 1343 0056 3A46     		mov	r2, r7
 1344 0058 3146     		mov	r1, r6
 1345 005a 2046     		mov	r0, r4
 1346 005c FFF7FEFF 		bl	DMA_SetConfig
 1347              	.LVL112:
 476:Drivers/STM32F4xx_HAL_Driver/Src/stm32f4xx_hal_dma.c ****     
 1348              		.loc 1 476 5 view .LVU413
 476:Drivers/STM32F4xx_HAL_Driver/Src/stm32f4xx_hal_dma.c ****     
 1349              		.loc 1 476 31 is_stmt 0 view .LVU414
 1350 0060 E26D     		ldr	r2, [r4, #92]
 476:Drivers/STM32F4xx_HAL_Driver/Src/stm32f4xx_hal_dma.c ****     
 1351              		.loc 1 476 24 view .LVU415
 1352 0062 3F23     		movs	r3, #63
 1353 0064 9340     		lsls	r3, r3, r2
 476:Drivers/STM32F4xx_HAL_Driver/Src/stm32f4xx_hal_dma.c ****     
 1354              		.loc 1 476 16 view .LVU416
 1355 0066 C8F80830 		str	r3, [r8, #8]
 479:Drivers/STM32F4xx_HAL_Driver/Src/stm32f4xx_hal_dma.c ****     
 1356              		.loc 1 479 5 is_stmt 1 view .LVU417
 479:Drivers/STM32F4xx_HAL_Driver/Src/stm32f4xx_hal_dma.c ****     
 1357              		.loc 1 479 9 is_stmt 0 view .LVU418
 1358 006a 2268     		ldr	r2, [r4]
 479:Drivers/STM32F4xx_HAL_Driver/Src/stm32f4xx_hal_dma.c ****     
 1359              		.loc 1 479 19 view .LVU419
 1360 006c 1368     		ldr	r3, [r2]
 479:Drivers/STM32F4xx_HAL_Driver/Src/stm32f4xx_hal_dma.c ****     
 1361              		.loc 1 479 25 view .LVU420
 1362 006e 43F01603 		orr	r3, r3, #22
 1363 0072 1360     		str	r3, [r2]
 481:Drivers/STM32F4xx_HAL_Driver/Src/stm32f4xx_hal_dma.c ****     {
 1364              		.loc 1 481 5 is_stmt 1 view .LVU421
 481:Drivers/STM32F4xx_HAL_Driver/Src/stm32f4xx_hal_dma.c ****     {
 1365              		.loc 1 481 12 is_stmt 0 view .LVU422
 1366 0074 236C     		ldr	r3, [r4, #64]
 481:Drivers/STM32F4xx_HAL_Driver/Src/stm32f4xx_hal_dma.c ****     {
 1367              		.loc 1 481 7 view .LVU423
 1368 0076 23B1     		cbz	r3, .L94
 483:Drivers/STM32F4xx_HAL_Driver/Src/stm32f4xx_hal_dma.c ****     }
 1369              		.loc 1 483 7 is_stmt 1 view .LVU424
 483:Drivers/STM32F4xx_HAL_Driver/Src/stm32f4xx_hal_dma.c ****     }
 1370              		.loc 1 483 11 is_stmt 0 view .LVU425
 1371 0078 2268     		ldr	r2, [r4]
 483:Drivers/STM32F4xx_HAL_Driver/Src/stm32f4xx_hal_dma.c ****     }
 1372              		.loc 1 483 21 view .LVU426
 1373 007a 1368     		ldr	r3, [r2]
 483:Drivers/STM32F4xx_HAL_Driver/Src/stm32f4xx_hal_dma.c ****     }
 1374              		.loc 1 483 27 view .LVU427
ARM GAS  C:\Users\hanaj\AppData\Local\Temp\ccOrHUbU.s 			page 54


 1375 007c 43F00803 		orr	r3, r3, #8
 1376 0080 1360     		str	r3, [r2]
 1377              	.L94:
 487:Drivers/STM32F4xx_HAL_Driver/Src/stm32f4xx_hal_dma.c ****   }
 1378              		.loc 1 487 5 is_stmt 1 view .LVU428
 1379 0082 2268     		ldr	r2, [r4]
 1380 0084 1368     		ldr	r3, [r2]
 1381 0086 43F00103 		orr	r3, r3, #1
 1382 008a 1360     		str	r3, [r2]
 453:Drivers/STM32F4xx_HAL_Driver/Src/stm32f4xx_hal_dma.c **** 
 1383              		.loc 1 453 21 is_stmt 0 view .LVU429
 1384 008c 0020     		movs	r0, #0
 1385 008e D4E7     		b	.L92
 1386              	.L95:
 462:Drivers/STM32F4xx_HAL_Driver/Src/stm32f4xx_hal_dma.c ****   
 1387              		.loc 1 462 3 discriminator 1 view .LVU430
 1388 0090 0220     		movs	r0, #2
 1389 0092 D2E7     		b	.L92
 1390              	.L100:
 1391              		.align	2
 1392              	.L99:
 1393 0094 00000000 		.word	.LC0
 1394              		.cfi_endproc
 1395              	.LFE242:
 1397              		.section	.text.HAL_DMA_Abort,"ax",%progbits
 1398              		.align	1
 1399              		.global	HAL_DMA_Abort
 1400              		.syntax unified
 1401              		.thumb
 1402              		.thumb_func
 1404              	HAL_DMA_Abort:
 1405              	.LVL113:
 1406              	.LFB243:
 514:Drivers/STM32F4xx_HAL_Driver/Src/stm32f4xx_hal_dma.c ****   /* calculate DMA base and stream number */
 1407              		.loc 1 514 1 is_stmt 1 view -0
 1408              		.cfi_startproc
 1409              		@ args = 0, pretend = 0, frame = 0
 1410              		@ frame_needed = 0, uses_anonymous_args = 0
 514:Drivers/STM32F4xx_HAL_Driver/Src/stm32f4xx_hal_dma.c ****   /* calculate DMA base and stream number */
 1411              		.loc 1 514 1 is_stmt 0 view .LVU432
 1412 0000 70B5     		push	{r4, r5, r6, lr}
 1413              	.LCFI11:
 1414              		.cfi_def_cfa_offset 16
 1415              		.cfi_offset 4, -16
 1416              		.cfi_offset 5, -12
 1417              		.cfi_offset 6, -8
 1418              		.cfi_offset 14, -4
 1419 0002 0446     		mov	r4, r0
 516:Drivers/STM32F4xx_HAL_Driver/Src/stm32f4xx_hal_dma.c ****   
 1420              		.loc 1 516 3 is_stmt 1 view .LVU433
 516:Drivers/STM32F4xx_HAL_Driver/Src/stm32f4xx_hal_dma.c ****   
 1421              		.loc 1 516 56 is_stmt 0 view .LVU434
 1422 0004 866D     		ldr	r6, [r0, #88]
 1423              	.LVL114:
 518:Drivers/STM32F4xx_HAL_Driver/Src/stm32f4xx_hal_dma.c ****   
 1424              		.loc 1 518 3 is_stmt 1 view .LVU435
 518:Drivers/STM32F4xx_HAL_Driver/Src/stm32f4xx_hal_dma.c ****   
ARM GAS  C:\Users\hanaj\AppData\Local\Temp\ccOrHUbU.s 			page 55


 1425              		.loc 1 518 24 is_stmt 0 view .LVU436
 1426 0006 FFF7FEFF 		bl	HAL_GetTick
 1427              	.LVL115:
 520:Drivers/STM32F4xx_HAL_Driver/Src/stm32f4xx_hal_dma.c ****   {
 1428              		.loc 1 520 3 is_stmt 1 view .LVU437
 520:Drivers/STM32F4xx_HAL_Driver/Src/stm32f4xx_hal_dma.c ****   {
 1429              		.loc 1 520 10 is_stmt 0 view .LVU438
 1430 000a 94F83530 		ldrb	r3, [r4, #53]	@ zero_extendqisi2
 1431 000e DBB2     		uxtb	r3, r3
 520:Drivers/STM32F4xx_HAL_Driver/Src/stm32f4xx_hal_dma.c ****   {
 1432              		.loc 1 520 5 view .LVU439
 1433 0010 022B     		cmp	r3, #2
 1434 0012 06D0     		beq	.L102
 522:Drivers/STM32F4xx_HAL_Driver/Src/stm32f4xx_hal_dma.c ****     
 1435              		.loc 1 522 5 is_stmt 1 view .LVU440
 522:Drivers/STM32F4xx_HAL_Driver/Src/stm32f4xx_hal_dma.c ****     
 1436              		.loc 1 522 21 is_stmt 0 view .LVU441
 1437 0014 8023     		movs	r3, #128
 1438 0016 6365     		str	r3, [r4, #84]
 525:Drivers/STM32F4xx_HAL_Driver/Src/stm32f4xx_hal_dma.c ****     
 1439              		.loc 1 525 5 is_stmt 1 view .LVU442
 525:Drivers/STM32F4xx_HAL_Driver/Src/stm32f4xx_hal_dma.c ****     
 1440              		.loc 1 525 5 view .LVU443
 1441 0018 0023     		movs	r3, #0
 1442 001a 84F83430 		strb	r3, [r4, #52]
 525:Drivers/STM32F4xx_HAL_Driver/Src/stm32f4xx_hal_dma.c ****     
 1443              		.loc 1 525 5 view .LVU444
 527:Drivers/STM32F4xx_HAL_Driver/Src/stm32f4xx_hal_dma.c ****   }
 1444              		.loc 1 527 5 view .LVU445
 527:Drivers/STM32F4xx_HAL_Driver/Src/stm32f4xx_hal_dma.c ****   }
 1445              		.loc 1 527 12 is_stmt 0 view .LVU446
 1446 001e 0120     		movs	r0, #1
 1447              	.LVL116:
 1448              	.L103:
 572:Drivers/STM32F4xx_HAL_Driver/Src/stm32f4xx_hal_dma.c **** 
 1449              		.loc 1 572 1 view .LVU447
 1450 0020 70BD     		pop	{r4, r5, r6, pc}
 1451              	.LVL117:
 1452              	.L102:
 572:Drivers/STM32F4xx_HAL_Driver/Src/stm32f4xx_hal_dma.c **** 
 1453              		.loc 1 572 1 view .LVU448
 1454 0022 0546     		mov	r5, r0
 532:Drivers/STM32F4xx_HAL_Driver/Src/stm32f4xx_hal_dma.c ****     hdma->Instance->FCR &= ~(DMA_IT_FE);
 1455              		.loc 1 532 5 is_stmt 1 view .LVU449
 532:Drivers/STM32F4xx_HAL_Driver/Src/stm32f4xx_hal_dma.c ****     hdma->Instance->FCR &= ~(DMA_IT_FE);
 1456              		.loc 1 532 9 is_stmt 0 view .LVU450
 1457 0024 2268     		ldr	r2, [r4]
 532:Drivers/STM32F4xx_HAL_Driver/Src/stm32f4xx_hal_dma.c ****     hdma->Instance->FCR &= ~(DMA_IT_FE);
 1458              		.loc 1 532 19 view .LVU451
 1459 0026 1368     		ldr	r3, [r2]
 532:Drivers/STM32F4xx_HAL_Driver/Src/stm32f4xx_hal_dma.c ****     hdma->Instance->FCR &= ~(DMA_IT_FE);
 1460              		.loc 1 532 25 view .LVU452
 1461 0028 23F01603 		bic	r3, r3, #22
 1462 002c 1360     		str	r3, [r2]
 533:Drivers/STM32F4xx_HAL_Driver/Src/stm32f4xx_hal_dma.c ****     
 1463              		.loc 1 533 5 is_stmt 1 view .LVU453
 533:Drivers/STM32F4xx_HAL_Driver/Src/stm32f4xx_hal_dma.c ****     
ARM GAS  C:\Users\hanaj\AppData\Local\Temp\ccOrHUbU.s 			page 56


 1464              		.loc 1 533 9 is_stmt 0 view .LVU454
 1465 002e 2268     		ldr	r2, [r4]
 533:Drivers/STM32F4xx_HAL_Driver/Src/stm32f4xx_hal_dma.c ****     
 1466              		.loc 1 533 19 view .LVU455
 1467 0030 5369     		ldr	r3, [r2, #20]
 533:Drivers/STM32F4xx_HAL_Driver/Src/stm32f4xx_hal_dma.c ****     
 1468              		.loc 1 533 25 view .LVU456
 1469 0032 23F08003 		bic	r3, r3, #128
 1470 0036 5361     		str	r3, [r2, #20]
 535:Drivers/STM32F4xx_HAL_Driver/Src/stm32f4xx_hal_dma.c ****     {
 1471              		.loc 1 535 5 is_stmt 1 view .LVU457
 535:Drivers/STM32F4xx_HAL_Driver/Src/stm32f4xx_hal_dma.c ****     {
 1472              		.loc 1 535 13 is_stmt 0 view .LVU458
 1473 0038 236C     		ldr	r3, [r4, #64]
 535:Drivers/STM32F4xx_HAL_Driver/Src/stm32f4xx_hal_dma.c ****     {
 1474              		.loc 1 535 7 view .LVU459
 1475 003a E3B1     		cbz	r3, .L109
 1476              	.L104:
 537:Drivers/STM32F4xx_HAL_Driver/Src/stm32f4xx_hal_dma.c ****     }
 1477              		.loc 1 537 7 is_stmt 1 view .LVU460
 537:Drivers/STM32F4xx_HAL_Driver/Src/stm32f4xx_hal_dma.c ****     }
 1478              		.loc 1 537 11 is_stmt 0 view .LVU461
 1479 003c 2268     		ldr	r2, [r4]
 537:Drivers/STM32F4xx_HAL_Driver/Src/stm32f4xx_hal_dma.c ****     }
 1480              		.loc 1 537 21 view .LVU462
 1481 003e 1368     		ldr	r3, [r2]
 537:Drivers/STM32F4xx_HAL_Driver/Src/stm32f4xx_hal_dma.c ****     }
 1482              		.loc 1 537 27 view .LVU463
 1483 0040 23F00803 		bic	r3, r3, #8
 1484 0044 1360     		str	r3, [r2]
 1485              	.L105:
 541:Drivers/STM32F4xx_HAL_Driver/Src/stm32f4xx_hal_dma.c ****     
 1486              		.loc 1 541 5 is_stmt 1 view .LVU464
 1487 0046 2268     		ldr	r2, [r4]
 1488 0048 1368     		ldr	r3, [r2]
 1489 004a 23F00103 		bic	r3, r3, #1
 1490 004e 1360     		str	r3, [r2]
 544:Drivers/STM32F4xx_HAL_Driver/Src/stm32f4xx_hal_dma.c ****     {
 1491              		.loc 1 544 5 view .LVU465
 1492              	.LVL118:
 1493              	.L106:
 544:Drivers/STM32F4xx_HAL_Driver/Src/stm32f4xx_hal_dma.c ****     {
 1494              		.loc 1 544 46 view .LVU466
 544:Drivers/STM32F4xx_HAL_Driver/Src/stm32f4xx_hal_dma.c ****     {
 1495              		.loc 1 544 16 is_stmt 0 view .LVU467
 1496 0050 2368     		ldr	r3, [r4]
 544:Drivers/STM32F4xx_HAL_Driver/Src/stm32f4xx_hal_dma.c ****     {
 1497              		.loc 1 544 26 view .LVU468
 1498 0052 1B68     		ldr	r3, [r3]
 544:Drivers/STM32F4xx_HAL_Driver/Src/stm32f4xx_hal_dma.c ****     {
 1499              		.loc 1 544 46 view .LVU469
 1500 0054 13F0010F 		tst	r3, #1
 1501 0058 11D0     		beq	.L110
 547:Drivers/STM32F4xx_HAL_Driver/Src/stm32f4xx_hal_dma.c ****       {
 1502              		.loc 1 547 7 is_stmt 1 view .LVU470
 547:Drivers/STM32F4xx_HAL_Driver/Src/stm32f4xx_hal_dma.c ****       {
 1503              		.loc 1 547 11 is_stmt 0 view .LVU471
ARM GAS  C:\Users\hanaj\AppData\Local\Temp\ccOrHUbU.s 			page 57


 1504 005a FFF7FEFF 		bl	HAL_GetTick
 1505              	.LVL119:
 547:Drivers/STM32F4xx_HAL_Driver/Src/stm32f4xx_hal_dma.c ****       {
 1506              		.loc 1 547 25 discriminator 1 view .LVU472
 1507 005e 431B     		subs	r3, r0, r5
 547:Drivers/STM32F4xx_HAL_Driver/Src/stm32f4xx_hal_dma.c ****       {
 1508              		.loc 1 547 9 discriminator 1 view .LVU473
 1509 0060 052B     		cmp	r3, #5
 1510 0062 F5D9     		bls	.L106
 550:Drivers/STM32F4xx_HAL_Driver/Src/stm32f4xx_hal_dma.c ****         
 1511              		.loc 1 550 9 is_stmt 1 view .LVU474
 550:Drivers/STM32F4xx_HAL_Driver/Src/stm32f4xx_hal_dma.c ****         
 1512              		.loc 1 550 25 is_stmt 0 view .LVU475
 1513 0064 2023     		movs	r3, #32
 1514 0066 6365     		str	r3, [r4, #84]
 553:Drivers/STM32F4xx_HAL_Driver/Src/stm32f4xx_hal_dma.c ****         
 1515              		.loc 1 553 9 is_stmt 1 view .LVU476
 553:Drivers/STM32F4xx_HAL_Driver/Src/stm32f4xx_hal_dma.c ****         
 1516              		.loc 1 553 21 is_stmt 0 view .LVU477
 1517 0068 0320     		movs	r0, #3
 1518 006a 84F83500 		strb	r0, [r4, #53]
 556:Drivers/STM32F4xx_HAL_Driver/Src/stm32f4xx_hal_dma.c ****         
 1519              		.loc 1 556 9 is_stmt 1 view .LVU478
 556:Drivers/STM32F4xx_HAL_Driver/Src/stm32f4xx_hal_dma.c ****         
 1520              		.loc 1 556 9 view .LVU479
 1521 006e 0023     		movs	r3, #0
 1522 0070 84F83430 		strb	r3, [r4, #52]
 556:Drivers/STM32F4xx_HAL_Driver/Src/stm32f4xx_hal_dma.c ****         
 1523              		.loc 1 556 9 view .LVU480
 558:Drivers/STM32F4xx_HAL_Driver/Src/stm32f4xx_hal_dma.c ****       }
 1524              		.loc 1 558 9 view .LVU481
 558:Drivers/STM32F4xx_HAL_Driver/Src/stm32f4xx_hal_dma.c ****       }
 1525              		.loc 1 558 16 is_stmt 0 view .LVU482
 1526 0074 D4E7     		b	.L103
 1527              	.LVL120:
 1528              	.L109:
 535:Drivers/STM32F4xx_HAL_Driver/Src/stm32f4xx_hal_dma.c ****     {
 1529              		.loc 1 535 53 discriminator 1 view .LVU483
 1530 0076 A36C     		ldr	r3, [r4, #72]
 535:Drivers/STM32F4xx_HAL_Driver/Src/stm32f4xx_hal_dma.c ****     {
 1531              		.loc 1 535 45 discriminator 1 view .LVU484
 1532 0078 002B     		cmp	r3, #0
 1533 007a DFD1     		bne	.L104
 1534 007c E3E7     		b	.L105
 1535              	.LVL121:
 1536              	.L110:
 563:Drivers/STM32F4xx_HAL_Driver/Src/stm32f4xx_hal_dma.c ****     
 1537              		.loc 1 563 5 is_stmt 1 view .LVU485
 563:Drivers/STM32F4xx_HAL_Driver/Src/stm32f4xx_hal_dma.c ****     
 1538              		.loc 1 563 31 is_stmt 0 view .LVU486
 1539 007e E26D     		ldr	r2, [r4, #92]
 563:Drivers/STM32F4xx_HAL_Driver/Src/stm32f4xx_hal_dma.c ****     
 1540              		.loc 1 563 24 view .LVU487
 1541 0080 3F23     		movs	r3, #63
 1542 0082 9340     		lsls	r3, r3, r2
 563:Drivers/STM32F4xx_HAL_Driver/Src/stm32f4xx_hal_dma.c ****     
 1543              		.loc 1 563 16 view .LVU488
ARM GAS  C:\Users\hanaj\AppData\Local\Temp\ccOrHUbU.s 			page 58


 1544 0084 B360     		str	r3, [r6, #8]
 566:Drivers/STM32F4xx_HAL_Driver/Src/stm32f4xx_hal_dma.c ****     
 1545              		.loc 1 566 5 is_stmt 1 view .LVU489
 566:Drivers/STM32F4xx_HAL_Driver/Src/stm32f4xx_hal_dma.c ****     
 1546              		.loc 1 566 17 is_stmt 0 view .LVU490
 1547 0086 0123     		movs	r3, #1
 1548 0088 84F83530 		strb	r3, [r4, #53]
 569:Drivers/STM32F4xx_HAL_Driver/Src/stm32f4xx_hal_dma.c ****   }
 1549              		.loc 1 569 5 is_stmt 1 view .LVU491
 569:Drivers/STM32F4xx_HAL_Driver/Src/stm32f4xx_hal_dma.c ****   }
 1550              		.loc 1 569 5 view .LVU492
 1551 008c 0020     		movs	r0, #0
 1552 008e 84F83400 		strb	r0, [r4, #52]
 569:Drivers/STM32F4xx_HAL_Driver/Src/stm32f4xx_hal_dma.c ****   }
 1553              		.loc 1 569 5 view .LVU493
 571:Drivers/STM32F4xx_HAL_Driver/Src/stm32f4xx_hal_dma.c **** }
 1554              		.loc 1 571 3 view .LVU494
 571:Drivers/STM32F4xx_HAL_Driver/Src/stm32f4xx_hal_dma.c **** }
 1555              		.loc 1 571 10 is_stmt 0 view .LVU495
 1556 0092 C5E7     		b	.L103
 1557              		.cfi_endproc
 1558              	.LFE243:
 1560              		.section	.text.HAL_DMA_Abort_IT,"ax",%progbits
 1561              		.align	1
 1562              		.global	HAL_DMA_Abort_IT
 1563              		.syntax unified
 1564              		.thumb
 1565              		.thumb_func
 1567              	HAL_DMA_Abort_IT:
 1568              	.LVL122:
 1569              	.LFB244:
 581:Drivers/STM32F4xx_HAL_Driver/Src/stm32f4xx_hal_dma.c ****   if(hdma->State != HAL_DMA_STATE_BUSY)
 1570              		.loc 1 581 1 is_stmt 1 view -0
 1571              		.cfi_startproc
 1572              		@ args = 0, pretend = 0, frame = 0
 1573              		@ frame_needed = 0, uses_anonymous_args = 0
 1574              		@ link register save eliminated.
 582:Drivers/STM32F4xx_HAL_Driver/Src/stm32f4xx_hal_dma.c ****   {
 1575              		.loc 1 582 3 view .LVU497
 582:Drivers/STM32F4xx_HAL_Driver/Src/stm32f4xx_hal_dma.c ****   {
 1576              		.loc 1 582 10 is_stmt 0 view .LVU498
 1577 0000 90F83530 		ldrb	r3, [r0, #53]	@ zero_extendqisi2
 1578 0004 DBB2     		uxtb	r3, r3
 582:Drivers/STM32F4xx_HAL_Driver/Src/stm32f4xx_hal_dma.c ****   {
 1579              		.loc 1 582 5 view .LVU499
 1580 0006 022B     		cmp	r3, #2
 1581 0008 03D0     		beq	.L112
 584:Drivers/STM32F4xx_HAL_Driver/Src/stm32f4xx_hal_dma.c ****     return HAL_ERROR;
 1582              		.loc 1 584 5 is_stmt 1 view .LVU500
 584:Drivers/STM32F4xx_HAL_Driver/Src/stm32f4xx_hal_dma.c ****     return HAL_ERROR;
 1583              		.loc 1 584 21 is_stmt 0 view .LVU501
 1584 000a 8023     		movs	r3, #128
 1585 000c 4365     		str	r3, [r0, #84]
 585:Drivers/STM32F4xx_HAL_Driver/Src/stm32f4xx_hal_dma.c ****   }
 1586              		.loc 1 585 5 is_stmt 1 view .LVU502
 585:Drivers/STM32F4xx_HAL_Driver/Src/stm32f4xx_hal_dma.c ****   }
 1587              		.loc 1 585 12 is_stmt 0 view .LVU503
ARM GAS  C:\Users\hanaj\AppData\Local\Temp\ccOrHUbU.s 			page 59


 1588 000e 0120     		movs	r0, #1
 1589              	.LVL123:
 585:Drivers/STM32F4xx_HAL_Driver/Src/stm32f4xx_hal_dma.c ****   }
 1590              		.loc 1 585 12 view .LVU504
 1591 0010 7047     		bx	lr
 1592              	.LVL124:
 1593              	.L112:
 590:Drivers/STM32F4xx_HAL_Driver/Src/stm32f4xx_hal_dma.c ****     
 1594              		.loc 1 590 5 is_stmt 1 view .LVU505
 590:Drivers/STM32F4xx_HAL_Driver/Src/stm32f4xx_hal_dma.c ****     
 1595              		.loc 1 590 17 is_stmt 0 view .LVU506
 1596 0012 0523     		movs	r3, #5
 1597 0014 80F83530 		strb	r3, [r0, #53]
 593:Drivers/STM32F4xx_HAL_Driver/Src/stm32f4xx_hal_dma.c ****   }
 1598              		.loc 1 593 5 is_stmt 1 view .LVU507
 1599 0018 0268     		ldr	r2, [r0]
 1600 001a 1368     		ldr	r3, [r2]
 1601 001c 23F00103 		bic	r3, r3, #1
 1602 0020 1360     		str	r3, [r2]
 596:Drivers/STM32F4xx_HAL_Driver/Src/stm32f4xx_hal_dma.c **** }
 1603              		.loc 1 596 3 view .LVU508
 596:Drivers/STM32F4xx_HAL_Driver/Src/stm32f4xx_hal_dma.c **** }
 1604              		.loc 1 596 10 is_stmt 0 view .LVU509
 1605 0022 0020     		movs	r0, #0
 1606              	.LVL125:
 597:Drivers/STM32F4xx_HAL_Driver/Src/stm32f4xx_hal_dma.c **** 
 1607              		.loc 1 597 1 view .LVU510
 1608 0024 7047     		bx	lr
 1609              		.cfi_endproc
 1610              	.LFE244:
 1612              		.section	.text.HAL_DMA_PollForTransfer,"ax",%progbits
 1613              		.align	1
 1614              		.global	HAL_DMA_PollForTransfer
 1615              		.syntax unified
 1616              		.thumb
 1617              		.thumb_func
 1619              	HAL_DMA_PollForTransfer:
 1620              	.LVL126:
 1621              	.LFB245:
 611:Drivers/STM32F4xx_HAL_Driver/Src/stm32f4xx_hal_dma.c ****   HAL_StatusTypeDef status = HAL_OK; 
 1622              		.loc 1 611 1 is_stmt 1 view -0
 1623              		.cfi_startproc
 1624              		@ args = 0, pretend = 0, frame = 0
 1625              		@ frame_needed = 0, uses_anonymous_args = 0
 611:Drivers/STM32F4xx_HAL_Driver/Src/stm32f4xx_hal_dma.c ****   HAL_StatusTypeDef status = HAL_OK; 
 1626              		.loc 1 611 1 is_stmt 0 view .LVU512
 1627 0000 2DE9F047 		push	{r4, r5, r6, r7, r8, r9, r10, lr}
 1628              	.LCFI12:
 1629              		.cfi_def_cfa_offset 32
 1630              		.cfi_offset 4, -32
 1631              		.cfi_offset 5, -28
 1632              		.cfi_offset 6, -24
 1633              		.cfi_offset 7, -20
 1634              		.cfi_offset 8, -16
 1635              		.cfi_offset 9, -12
 1636              		.cfi_offset 10, -8
 1637              		.cfi_offset 14, -4
ARM GAS  C:\Users\hanaj\AppData\Local\Temp\ccOrHUbU.s 			page 60


 1638 0004 0446     		mov	r4, r0
 1639 0006 8846     		mov	r8, r1
 1640 0008 1646     		mov	r6, r2
 612:Drivers/STM32F4xx_HAL_Driver/Src/stm32f4xx_hal_dma.c ****   uint32_t mask_cpltlevel;
 1641              		.loc 1 612 3 is_stmt 1 view .LVU513
 1642              	.LVL127:
 613:Drivers/STM32F4xx_HAL_Driver/Src/stm32f4xx_hal_dma.c ****   uint32_t tickstart = HAL_GetTick(); 
 1643              		.loc 1 613 3 view .LVU514
 614:Drivers/STM32F4xx_HAL_Driver/Src/stm32f4xx_hal_dma.c ****   uint32_t tmpisr;
 1644              		.loc 1 614 3 view .LVU515
 614:Drivers/STM32F4xx_HAL_Driver/Src/stm32f4xx_hal_dma.c ****   uint32_t tmpisr;
 1645              		.loc 1 614 24 is_stmt 0 view .LVU516
 1646 000a FFF7FEFF 		bl	HAL_GetTick
 1647              	.LVL128:
 615:Drivers/STM32F4xx_HAL_Driver/Src/stm32f4xx_hal_dma.c ****   
 1648              		.loc 1 615 3 is_stmt 1 view .LVU517
 618:Drivers/STM32F4xx_HAL_Driver/Src/stm32f4xx_hal_dma.c **** 
 1649              		.loc 1 618 3 view .LVU518
 620:Drivers/STM32F4xx_HAL_Driver/Src/stm32f4xx_hal_dma.c ****   {
 1650              		.loc 1 620 3 view .LVU519
 620:Drivers/STM32F4xx_HAL_Driver/Src/stm32f4xx_hal_dma.c ****   {
 1651              		.loc 1 620 32 is_stmt 0 view .LVU520
 1652 000e 94F83530 		ldrb	r3, [r4, #53]	@ zero_extendqisi2
 1653 0012 DBB2     		uxtb	r3, r3
 620:Drivers/STM32F4xx_HAL_Driver/Src/stm32f4xx_hal_dma.c ****   {
 1654              		.loc 1 620 5 view .LVU521
 1655 0014 022B     		cmp	r3, #2
 1656 0016 07D0     		beq	.L115
 623:Drivers/STM32F4xx_HAL_Driver/Src/stm32f4xx_hal_dma.c ****     __HAL_UNLOCK(hdma);
 1657              		.loc 1 623 5 is_stmt 1 view .LVU522
 623:Drivers/STM32F4xx_HAL_Driver/Src/stm32f4xx_hal_dma.c ****     __HAL_UNLOCK(hdma);
 1658              		.loc 1 623 21 is_stmt 0 view .LVU523
 1659 0018 8023     		movs	r3, #128
 1660 001a 6365     		str	r3, [r4, #84]
 624:Drivers/STM32F4xx_HAL_Driver/Src/stm32f4xx_hal_dma.c ****     return HAL_ERROR;
 1661              		.loc 1 624 5 is_stmt 1 view .LVU524
 624:Drivers/STM32F4xx_HAL_Driver/Src/stm32f4xx_hal_dma.c ****     return HAL_ERROR;
 1662              		.loc 1 624 5 view .LVU525
 1663 001c 0023     		movs	r3, #0
 1664 001e 84F83430 		strb	r3, [r4, #52]
 624:Drivers/STM32F4xx_HAL_Driver/Src/stm32f4xx_hal_dma.c ****     return HAL_ERROR;
 1665              		.loc 1 624 5 view .LVU526
 625:Drivers/STM32F4xx_HAL_Driver/Src/stm32f4xx_hal_dma.c ****   }
 1666              		.loc 1 625 5 view .LVU527
 625:Drivers/STM32F4xx_HAL_Driver/Src/stm32f4xx_hal_dma.c ****   }
 1667              		.loc 1 625 12 is_stmt 0 view .LVU528
 1668 0022 0120     		movs	r0, #1
 1669              	.LVL129:
 1670              	.L116:
 738:Drivers/STM32F4xx_HAL_Driver/Src/stm32f4xx_hal_dma.c **** 
 1671              		.loc 1 738 1 view .LVU529
 1672 0024 BDE8F087 		pop	{r4, r5, r6, r7, r8, r9, r10, pc}
 1673              	.LVL130:
 1674              	.L115:
 738:Drivers/STM32F4xx_HAL_Driver/Src/stm32f4xx_hal_dma.c **** 
 1675              		.loc 1 738 1 view .LVU530
 1676 0028 8146     		mov	r9, r0
ARM GAS  C:\Users\hanaj\AppData\Local\Temp\ccOrHUbU.s 			page 61


 629:Drivers/STM32F4xx_HAL_Driver/Src/stm32f4xx_hal_dma.c ****   {
 1677              		.loc 1 629 3 is_stmt 1 view .LVU531
 629:Drivers/STM32F4xx_HAL_Driver/Src/stm32f4xx_hal_dma.c ****   {
 1678              		.loc 1 629 12 is_stmt 0 view .LVU532
 1679 002a 2368     		ldr	r3, [r4]
 629:Drivers/STM32F4xx_HAL_Driver/Src/stm32f4xx_hal_dma.c ****   {
 1680              		.loc 1 629 22 view .LVU533
 1681 002c 1B68     		ldr	r3, [r3]
 629:Drivers/STM32F4xx_HAL_Driver/Src/stm32f4xx_hal_dma.c ****   {
 1682              		.loc 1 629 6 view .LVU534
 1683 002e 13F4807F 		tst	r3, #256
 1684 0032 3BD1     		bne	.L131
 636:Drivers/STM32F4xx_HAL_Driver/Src/stm32f4xx_hal_dma.c ****   {
 1685              		.loc 1 636 3 is_stmt 1 view .LVU535
 636:Drivers/STM32F4xx_HAL_Driver/Src/stm32f4xx_hal_dma.c ****   {
 1686              		.loc 1 636 5 is_stmt 0 view .LVU536
 1687 0034 B8F1000F 		cmp	r8, #0
 1688 0038 3DD1     		bne	.L118
 639:Drivers/STM32F4xx_HAL_Driver/Src/stm32f4xx_hal_dma.c ****   }
 1689              		.loc 1 639 5 is_stmt 1 view .LVU537
 639:Drivers/STM32F4xx_HAL_Driver/Src/stm32f4xx_hal_dma.c ****   }
 1690              		.loc 1 639 46 is_stmt 0 view .LVU538
 1691 003a E36D     		ldr	r3, [r4, #92]
 639:Drivers/STM32F4xx_HAL_Driver/Src/stm32f4xx_hal_dma.c ****   }
 1692              		.loc 1 639 20 view .LVU539
 1693 003c 4FF0200A 		mov	r10, #32
 1694 0040 0AFA03FA 		lsl	r10, r10, r3
 1695              	.LVL131:
 1696              	.L119:
 647:Drivers/STM32F4xx_HAL_Driver/Src/stm32f4xx_hal_dma.c ****   tmpisr = regs->ISR;
 1697              		.loc 1 647 3 is_stmt 1 view .LVU540
 647:Drivers/STM32F4xx_HAL_Driver/Src/stm32f4xx_hal_dma.c ****   tmpisr = regs->ISR;
 1698              		.loc 1 647 36 is_stmt 0 view .LVU541
 1699 0044 A76D     		ldr	r7, [r4, #88]
 1700              	.LVL132:
 648:Drivers/STM32F4xx_HAL_Driver/Src/stm32f4xx_hal_dma.c ****   
 1701              		.loc 1 648 3 is_stmt 1 view .LVU542
 648:Drivers/STM32F4xx_HAL_Driver/Src/stm32f4xx_hal_dma.c ****   
 1702              		.loc 1 648 10 is_stmt 0 view .LVU543
 1703 0046 3B68     		ldr	r3, [r7]
 1704              	.LVL133:
 650:Drivers/STM32F4xx_HAL_Driver/Src/stm32f4xx_hal_dma.c ****   {
 1705              		.loc 1 650 3 is_stmt 1 view .LVU544
 1706              	.L120:
 650:Drivers/STM32F4xx_HAL_Driver/Src/stm32f4xx_hal_dma.c ****   {
 1707              		.loc 1 650 46 view .LVU545
 1708 0048 1AEA030F 		tst	r10, r3
 1709 004c 43D1     		bne	.L126
 650:Drivers/STM32F4xx_HAL_Driver/Src/stm32f4xx_hal_dma.c ****   {
 1710              		.loc 1 650 55 is_stmt 0 discriminator 1 view .LVU546
 1711 004e 636D     		ldr	r3, [r4, #84]
 1712              	.LVL134:
 650:Drivers/STM32F4xx_HAL_Driver/Src/stm32f4xx_hal_dma.c ****   {
 1713              		.loc 1 650 46 discriminator 1 view .LVU547
 1714 0050 13F0010F 		tst	r3, #1
 1715 0054 3FD1     		bne	.L126
 653:Drivers/STM32F4xx_HAL_Driver/Src/stm32f4xx_hal_dma.c ****     {
ARM GAS  C:\Users\hanaj\AppData\Local\Temp\ccOrHUbU.s 			page 62


 1716              		.loc 1 653 5 is_stmt 1 view .LVU548
 653:Drivers/STM32F4xx_HAL_Driver/Src/stm32f4xx_hal_dma.c ****     {
 1717              		.loc 1 653 7 is_stmt 0 view .LVU549
 1718 0056 B6F1FF3F 		cmp	r6, #-1
 1719 005a 07D0     		beq	.L121
 655:Drivers/STM32F4xx_HAL_Driver/Src/stm32f4xx_hal_dma.c ****       {
 1720              		.loc 1 655 7 is_stmt 1 view .LVU550
 655:Drivers/STM32F4xx_HAL_Driver/Src/stm32f4xx_hal_dma.c ****       {
 1721              		.loc 1 655 9 is_stmt 0 view .LVU551
 1722 005c 002E     		cmp	r6, #0
 1723 005e 30D0     		beq	.L122
 655:Drivers/STM32F4xx_HAL_Driver/Src/stm32f4xx_hal_dma.c ****       {
 1724              		.loc 1 655 29 discriminator 1 view .LVU552
 1725 0060 FFF7FEFF 		bl	HAL_GetTick
 1726              	.LVL135:
 655:Drivers/STM32F4xx_HAL_Driver/Src/stm32f4xx_hal_dma.c ****       {
 1727              		.loc 1 655 43 discriminator 1 view .LVU553
 1728 0064 A0EB0900 		sub	r0, r0, r9
 655:Drivers/STM32F4xx_HAL_Driver/Src/stm32f4xx_hal_dma.c ****       {
 1729              		.loc 1 655 25 discriminator 1 view .LVU554
 1730 0068 B042     		cmp	r0, r6
 1731 006a 2AD8     		bhi	.L122
 1732              	.L121:
 671:Drivers/STM32F4xx_HAL_Driver/Src/stm32f4xx_hal_dma.c **** 
 1733              		.loc 1 671 5 is_stmt 1 view .LVU555
 671:Drivers/STM32F4xx_HAL_Driver/Src/stm32f4xx_hal_dma.c **** 
 1734              		.loc 1 671 12 is_stmt 0 view .LVU556
 1735 006c 3B68     		ldr	r3, [r7]
 1736              	.LVL136:
 673:Drivers/STM32F4xx_HAL_Driver/Src/stm32f4xx_hal_dma.c ****     {
 1737              		.loc 1 673 5 is_stmt 1 view .LVU557
 673:Drivers/STM32F4xx_HAL_Driver/Src/stm32f4xx_hal_dma.c ****     {
 1738              		.loc 1 673 43 is_stmt 0 view .LVU558
 1739 006e E16D     		ldr	r1, [r4, #92]
 673:Drivers/STM32F4xx_HAL_Driver/Src/stm32f4xx_hal_dma.c ****     {
 1740              		.loc 1 673 36 view .LVU559
 1741 0070 0822     		movs	r2, #8
 1742 0072 8A40     		lsls	r2, r2, r1
 673:Drivers/STM32F4xx_HAL_Driver/Src/stm32f4xx_hal_dma.c ****     {
 1743              		.loc 1 673 7 view .LVU560
 1744 0074 1A42     		tst	r2, r3
 1745 0076 04D0     		beq	.L123
 676:Drivers/STM32F4xx_HAL_Driver/Src/stm32f4xx_hal_dma.c ****       
 1746              		.loc 1 676 7 is_stmt 1 view .LVU561
 676:Drivers/STM32F4xx_HAL_Driver/Src/stm32f4xx_hal_dma.c ****       
 1747              		.loc 1 676 11 is_stmt 0 view .LVU562
 1748 0078 616D     		ldr	r1, [r4, #84]
 676:Drivers/STM32F4xx_HAL_Driver/Src/stm32f4xx_hal_dma.c ****       
 1749              		.loc 1 676 23 view .LVU563
 1750 007a 41F00101 		orr	r1, r1, #1
 1751 007e 6165     		str	r1, [r4, #84]
 679:Drivers/STM32F4xx_HAL_Driver/Src/stm32f4xx_hal_dma.c ****     }
 1752              		.loc 1 679 7 is_stmt 1 view .LVU564
 679:Drivers/STM32F4xx_HAL_Driver/Src/stm32f4xx_hal_dma.c ****     }
 1753              		.loc 1 679 18 is_stmt 0 view .LVU565
 1754 0080 BA60     		str	r2, [r7, #8]
 1755              	.L123:
ARM GAS  C:\Users\hanaj\AppData\Local\Temp\ccOrHUbU.s 			page 63


 682:Drivers/STM32F4xx_HAL_Driver/Src/stm32f4xx_hal_dma.c ****     {
 1756              		.loc 1 682 5 is_stmt 1 view .LVU566
 682:Drivers/STM32F4xx_HAL_Driver/Src/stm32f4xx_hal_dma.c ****     {
 1757              		.loc 1 682 43 is_stmt 0 view .LVU567
 1758 0082 E16D     		ldr	r1, [r4, #92]
 682:Drivers/STM32F4xx_HAL_Driver/Src/stm32f4xx_hal_dma.c ****     {
 1759              		.loc 1 682 36 view .LVU568
 1760 0084 0122     		movs	r2, #1
 1761 0086 8A40     		lsls	r2, r2, r1
 682:Drivers/STM32F4xx_HAL_Driver/Src/stm32f4xx_hal_dma.c ****     {
 1762              		.loc 1 682 7 view .LVU569
 1763 0088 1A42     		tst	r2, r3
 1764 008a 04D0     		beq	.L124
 685:Drivers/STM32F4xx_HAL_Driver/Src/stm32f4xx_hal_dma.c ****       
 1765              		.loc 1 685 7 is_stmt 1 view .LVU570
 685:Drivers/STM32F4xx_HAL_Driver/Src/stm32f4xx_hal_dma.c ****       
 1766              		.loc 1 685 11 is_stmt 0 view .LVU571
 1767 008c 616D     		ldr	r1, [r4, #84]
 685:Drivers/STM32F4xx_HAL_Driver/Src/stm32f4xx_hal_dma.c ****       
 1768              		.loc 1 685 23 view .LVU572
 1769 008e 41F00201 		orr	r1, r1, #2
 1770 0092 6165     		str	r1, [r4, #84]
 688:Drivers/STM32F4xx_HAL_Driver/Src/stm32f4xx_hal_dma.c ****     }
 1771              		.loc 1 688 7 is_stmt 1 view .LVU573
 688:Drivers/STM32F4xx_HAL_Driver/Src/stm32f4xx_hal_dma.c ****     }
 1772              		.loc 1 688 18 is_stmt 0 view .LVU574
 1773 0094 BA60     		str	r2, [r7, #8]
 1774              	.L124:
 691:Drivers/STM32F4xx_HAL_Driver/Src/stm32f4xx_hal_dma.c ****     {
 1775              		.loc 1 691 5 is_stmt 1 view .LVU575
 691:Drivers/STM32F4xx_HAL_Driver/Src/stm32f4xx_hal_dma.c ****     {
 1776              		.loc 1 691 44 is_stmt 0 view .LVU576
 1777 0096 E26D     		ldr	r2, [r4, #92]
 691:Drivers/STM32F4xx_HAL_Driver/Src/stm32f4xx_hal_dma.c ****     {
 1778              		.loc 1 691 37 view .LVU577
 1779 0098 0425     		movs	r5, #4
 1780 009a 9540     		lsls	r5, r5, r2
 691:Drivers/STM32F4xx_HAL_Driver/Src/stm32f4xx_hal_dma.c ****     {
 1781              		.loc 1 691 7 view .LVU578
 1782 009c 1D42     		tst	r5, r3
 1783 009e D3D0     		beq	.L120
 694:Drivers/STM32F4xx_HAL_Driver/Src/stm32f4xx_hal_dma.c ****       
 1784              		.loc 1 694 7 is_stmt 1 view .LVU579
 694:Drivers/STM32F4xx_HAL_Driver/Src/stm32f4xx_hal_dma.c ****       
 1785              		.loc 1 694 11 is_stmt 0 view .LVU580
 1786 00a0 626D     		ldr	r2, [r4, #84]
 694:Drivers/STM32F4xx_HAL_Driver/Src/stm32f4xx_hal_dma.c ****       
 1787              		.loc 1 694 23 view .LVU581
 1788 00a2 42F00402 		orr	r2, r2, #4
 1789 00a6 6265     		str	r2, [r4, #84]
 697:Drivers/STM32F4xx_HAL_Driver/Src/stm32f4xx_hal_dma.c ****     }
 1790              		.loc 1 697 7 is_stmt 1 view .LVU582
 697:Drivers/STM32F4xx_HAL_Driver/Src/stm32f4xx_hal_dma.c ****     }
 1791              		.loc 1 697 18 is_stmt 0 view .LVU583
 1792 00a8 BD60     		str	r5, [r7, #8]
 1793 00aa CDE7     		b	.L120
 1794              	.LVL137:
ARM GAS  C:\Users\hanaj\AppData\Local\Temp\ccOrHUbU.s 			page 64


 1795              	.L131:
 631:Drivers/STM32F4xx_HAL_Driver/Src/stm32f4xx_hal_dma.c ****     return HAL_ERROR;
 1796              		.loc 1 631 5 is_stmt 1 view .LVU584
 631:Drivers/STM32F4xx_HAL_Driver/Src/stm32f4xx_hal_dma.c ****     return HAL_ERROR;
 1797              		.loc 1 631 21 is_stmt 0 view .LVU585
 1798 00ac 4FF48073 		mov	r3, #256
 1799 00b0 6365     		str	r3, [r4, #84]
 632:Drivers/STM32F4xx_HAL_Driver/Src/stm32f4xx_hal_dma.c ****   }
 1800              		.loc 1 632 5 is_stmt 1 view .LVU586
 632:Drivers/STM32F4xx_HAL_Driver/Src/stm32f4xx_hal_dma.c ****   }
 1801              		.loc 1 632 12 is_stmt 0 view .LVU587
 1802 00b2 0120     		movs	r0, #1
 1803              	.LVL138:
 632:Drivers/STM32F4xx_HAL_Driver/Src/stm32f4xx_hal_dma.c ****   }
 1804              		.loc 1 632 12 view .LVU588
 1805 00b4 B6E7     		b	.L116
 1806              	.LVL139:
 1807              	.L118:
 644:Drivers/STM32F4xx_HAL_Driver/Src/stm32f4xx_hal_dma.c ****   }
 1808              		.loc 1 644 5 is_stmt 1 view .LVU589
 644:Drivers/STM32F4xx_HAL_Driver/Src/stm32f4xx_hal_dma.c ****   }
 1809              		.loc 1 644 46 is_stmt 0 view .LVU590
 1810 00b6 E36D     		ldr	r3, [r4, #92]
 644:Drivers/STM32F4xx_HAL_Driver/Src/stm32f4xx_hal_dma.c ****   }
 1811              		.loc 1 644 20 view .LVU591
 1812 00b8 4FF0100A 		mov	r10, #16
 1813 00bc 0AFA03FA 		lsl	r10, r10, r3
 1814              	.LVL140:
 644:Drivers/STM32F4xx_HAL_Driver/Src/stm32f4xx_hal_dma.c ****   }
 1815              		.loc 1 644 20 view .LVU592
 1816 00c0 C0E7     		b	.L119
 1817              	.LVL141:
 1818              	.L122:
 658:Drivers/STM32F4xx_HAL_Driver/Src/stm32f4xx_hal_dma.c ****         
 1819              		.loc 1 658 9 is_stmt 1 view .LVU593
 658:Drivers/STM32F4xx_HAL_Driver/Src/stm32f4xx_hal_dma.c ****         
 1820              		.loc 1 658 25 is_stmt 0 view .LVU594
 1821 00c2 2023     		movs	r3, #32
 1822 00c4 6365     		str	r3, [r4, #84]
 661:Drivers/STM32F4xx_HAL_Driver/Src/stm32f4xx_hal_dma.c ****         
 1823              		.loc 1 661 9 is_stmt 1 view .LVU595
 661:Drivers/STM32F4xx_HAL_Driver/Src/stm32f4xx_hal_dma.c ****         
 1824              		.loc 1 661 21 is_stmt 0 view .LVU596
 1825 00c6 0123     		movs	r3, #1
 1826 00c8 84F83530 		strb	r3, [r4, #53]
 664:Drivers/STM32F4xx_HAL_Driver/Src/stm32f4xx_hal_dma.c ****         
 1827              		.loc 1 664 9 is_stmt 1 view .LVU597
 664:Drivers/STM32F4xx_HAL_Driver/Src/stm32f4xx_hal_dma.c ****         
 1828              		.loc 1 664 9 view .LVU598
 1829 00cc 0023     		movs	r3, #0
 1830 00ce 84F83430 		strb	r3, [r4, #52]
 664:Drivers/STM32F4xx_HAL_Driver/Src/stm32f4xx_hal_dma.c ****         
 1831              		.loc 1 664 9 view .LVU599
 666:Drivers/STM32F4xx_HAL_Driver/Src/stm32f4xx_hal_dma.c ****       }
 1832              		.loc 1 666 9 view .LVU600
 666:Drivers/STM32F4xx_HAL_Driver/Src/stm32f4xx_hal_dma.c ****       }
 1833              		.loc 1 666 16 is_stmt 0 view .LVU601
ARM GAS  C:\Users\hanaj\AppData\Local\Temp\ccOrHUbU.s 			page 65


 1834 00d2 0320     		movs	r0, #3
 1835 00d4 A6E7     		b	.L116
 1836              	.L126:
 701:Drivers/STM32F4xx_HAL_Driver/Src/stm32f4xx_hal_dma.c ****   {
 1837              		.loc 1 701 3 is_stmt 1 view .LVU602
 701:Drivers/STM32F4xx_HAL_Driver/Src/stm32f4xx_hal_dma.c ****   {
 1838              		.loc 1 701 10 is_stmt 0 view .LVU603
 1839 00d6 636D     		ldr	r3, [r4, #84]
 701:Drivers/STM32F4xx_HAL_Driver/Src/stm32f4xx_hal_dma.c ****   {
 1840              		.loc 1 701 5 view .LVU604
 1841 00d8 1BB1     		cbz	r3, .L128
 703:Drivers/STM32F4xx_HAL_Driver/Src/stm32f4xx_hal_dma.c ****     {
 1842              		.loc 1 703 5 is_stmt 1 view .LVU605
 703:Drivers/STM32F4xx_HAL_Driver/Src/stm32f4xx_hal_dma.c ****     {
 1843              		.loc 1 703 13 is_stmt 0 view .LVU606
 1844 00da 636D     		ldr	r3, [r4, #84]
 703:Drivers/STM32F4xx_HAL_Driver/Src/stm32f4xx_hal_dma.c ****     {
 1845              		.loc 1 703 7 view .LVU607
 1846 00dc 13F0010F 		tst	r3, #1
 1847 00e0 0ED1     		bne	.L132
 1848              	.L128:
 721:Drivers/STM32F4xx_HAL_Driver/Src/stm32f4xx_hal_dma.c ****   {
 1849              		.loc 1 721 3 is_stmt 1 view .LVU608
 721:Drivers/STM32F4xx_HAL_Driver/Src/stm32f4xx_hal_dma.c ****   {
 1850              		.loc 1 721 5 is_stmt 0 view .LVU609
 1851 00e2 B8F1000F 		cmp	r8, #0
 1852 00e6 19D1     		bne	.L129
 724:Drivers/STM32F4xx_HAL_Driver/Src/stm32f4xx_hal_dma.c ****     
 1853              		.loc 1 724 5 is_stmt 1 view .LVU610
 724:Drivers/STM32F4xx_HAL_Driver/Src/stm32f4xx_hal_dma.c ****     
 1854              		.loc 1 724 63 is_stmt 0 view .LVU611
 1855 00e8 E26D     		ldr	r2, [r4, #92]
 724:Drivers/STM32F4xx_HAL_Driver/Src/stm32f4xx_hal_dma.c ****     
 1856              		.loc 1 724 56 view .LVU612
 1857 00ea 3023     		movs	r3, #48
 1858 00ec 9340     		lsls	r3, r3, r2
 724:Drivers/STM32F4xx_HAL_Driver/Src/stm32f4xx_hal_dma.c ****     
 1859              		.loc 1 724 16 view .LVU613
 1860 00ee BB60     		str	r3, [r7, #8]
 726:Drivers/STM32F4xx_HAL_Driver/Src/stm32f4xx_hal_dma.c ****     
 1861              		.loc 1 726 5 is_stmt 1 view .LVU614
 726:Drivers/STM32F4xx_HAL_Driver/Src/stm32f4xx_hal_dma.c ****     
 1862              		.loc 1 726 17 is_stmt 0 view .LVU615
 1863 00f0 0123     		movs	r3, #1
 1864 00f2 84F83530 		strb	r3, [r4, #53]
 729:Drivers/STM32F4xx_HAL_Driver/Src/stm32f4xx_hal_dma.c ****   }
 1865              		.loc 1 729 5 is_stmt 1 view .LVU616
 729:Drivers/STM32F4xx_HAL_Driver/Src/stm32f4xx_hal_dma.c ****   }
 1866              		.loc 1 729 5 view .LVU617
 1867 00f6 0023     		movs	r3, #0
 1868 00f8 84F83430 		strb	r3, [r4, #52]
 729:Drivers/STM32F4xx_HAL_Driver/Src/stm32f4xx_hal_dma.c ****   }
 1869              		.loc 1 729 5 view .LVU618
 737:Drivers/STM32F4xx_HAL_Driver/Src/stm32f4xx_hal_dma.c **** }
 1870              		.loc 1 737 10 is_stmt 0 view .LVU619
 1871 00fc 4046     		mov	r0, r8
 1872 00fe 91E7     		b	.L116
ARM GAS  C:\Users\hanaj\AppData\Local\Temp\ccOrHUbU.s 			page 66


 1873              	.L132:
 705:Drivers/STM32F4xx_HAL_Driver/Src/stm32f4xx_hal_dma.c ****     
 1874              		.loc 1 705 7 is_stmt 1 view .LVU620
 1875 0100 2046     		mov	r0, r4
 1876 0102 FFF7FEFF 		bl	HAL_DMA_Abort
 1877              	.LVL142:
 708:Drivers/STM32F4xx_HAL_Driver/Src/stm32f4xx_hal_dma.c ****     
 1878              		.loc 1 708 7 view .LVU621
 708:Drivers/STM32F4xx_HAL_Driver/Src/stm32f4xx_hal_dma.c ****     
 1879              		.loc 1 708 65 is_stmt 0 view .LVU622
 1880 0106 E26D     		ldr	r2, [r4, #92]
 708:Drivers/STM32F4xx_HAL_Driver/Src/stm32f4xx_hal_dma.c ****     
 1881              		.loc 1 708 58 view .LVU623
 1882 0108 3023     		movs	r3, #48
 1883 010a 9340     		lsls	r3, r3, r2
 708:Drivers/STM32F4xx_HAL_Driver/Src/stm32f4xx_hal_dma.c ****     
 1884              		.loc 1 708 18 view .LVU624
 1885 010c BB60     		str	r3, [r7, #8]
 711:Drivers/STM32F4xx_HAL_Driver/Src/stm32f4xx_hal_dma.c **** 
 1886              		.loc 1 711 7 is_stmt 1 view .LVU625
 711:Drivers/STM32F4xx_HAL_Driver/Src/stm32f4xx_hal_dma.c **** 
 1887              		.loc 1 711 18 is_stmt 0 view .LVU626
 1888 010e 0120     		movs	r0, #1
 1889 0110 84F83500 		strb	r0, [r4, #53]
 714:Drivers/STM32F4xx_HAL_Driver/Src/stm32f4xx_hal_dma.c **** 
 1890              		.loc 1 714 7 is_stmt 1 view .LVU627
 714:Drivers/STM32F4xx_HAL_Driver/Src/stm32f4xx_hal_dma.c **** 
 1891              		.loc 1 714 7 view .LVU628
 1892 0114 0023     		movs	r3, #0
 1893 0116 84F83430 		strb	r3, [r4, #52]
 714:Drivers/STM32F4xx_HAL_Driver/Src/stm32f4xx_hal_dma.c **** 
 1894              		.loc 1 714 7 view .LVU629
 716:Drivers/STM32F4xx_HAL_Driver/Src/stm32f4xx_hal_dma.c ****    }
 1895              		.loc 1 716 7 view .LVU630
 716:Drivers/STM32F4xx_HAL_Driver/Src/stm32f4xx_hal_dma.c ****    }
 1896              		.loc 1 716 14 is_stmt 0 view .LVU631
 1897 011a 83E7     		b	.L116
 1898              	.L129:
 734:Drivers/STM32F4xx_HAL_Driver/Src/stm32f4xx_hal_dma.c ****   }
 1899              		.loc 1 734 5 is_stmt 1 view .LVU632
 734:Drivers/STM32F4xx_HAL_Driver/Src/stm32f4xx_hal_dma.c ****   }
 1900              		.loc 1 734 44 is_stmt 0 view .LVU633
 1901 011c E26D     		ldr	r2, [r4, #92]
 734:Drivers/STM32F4xx_HAL_Driver/Src/stm32f4xx_hal_dma.c ****   }
 1902              		.loc 1 734 37 view .LVU634
 1903 011e 1023     		movs	r3, #16
 1904 0120 9340     		lsls	r3, r3, r2
 734:Drivers/STM32F4xx_HAL_Driver/Src/stm32f4xx_hal_dma.c ****   }
 1905              		.loc 1 734 16 view .LVU635
 1906 0122 BB60     		str	r3, [r7, #8]
 737:Drivers/STM32F4xx_HAL_Driver/Src/stm32f4xx_hal_dma.c **** }
 1907              		.loc 1 737 10 view .LVU636
 1908 0124 0020     		movs	r0, #0
 1909 0126 7DE7     		b	.L116
 1910              		.cfi_endproc
 1911              	.LFE245:
 1913              		.section	.text.HAL_DMA_IRQHandler,"ax",%progbits
ARM GAS  C:\Users\hanaj\AppData\Local\Temp\ccOrHUbU.s 			page 67


 1914              		.align	1
 1915              		.global	HAL_DMA_IRQHandler
 1916              		.syntax unified
 1917              		.thumb
 1918              		.thumb_func
 1920              	HAL_DMA_IRQHandler:
 1921              	.LVL143:
 1922              	.LFB246:
 747:Drivers/STM32F4xx_HAL_Driver/Src/stm32f4xx_hal_dma.c ****   uint32_t tmpisr;
 1923              		.loc 1 747 1 is_stmt 1 view -0
 1924              		.cfi_startproc
 1925              		@ args = 0, pretend = 0, frame = 8
 1926              		@ frame_needed = 0, uses_anonymous_args = 0
 747:Drivers/STM32F4xx_HAL_Driver/Src/stm32f4xx_hal_dma.c ****   uint32_t tmpisr;
 1927              		.loc 1 747 1 is_stmt 0 view .LVU638
 1928 0000 F0B5     		push	{r4, r5, r6, r7, lr}
 1929              	.LCFI13:
 1930              		.cfi_def_cfa_offset 20
 1931              		.cfi_offset 4, -20
 1932              		.cfi_offset 5, -16
 1933              		.cfi_offset 6, -12
 1934              		.cfi_offset 7, -8
 1935              		.cfi_offset 14, -4
 1936 0002 83B0     		sub	sp, sp, #12
 1937              	.LCFI14:
 1938              		.cfi_def_cfa_offset 32
 1939 0004 0446     		mov	r4, r0
 748:Drivers/STM32F4xx_HAL_Driver/Src/stm32f4xx_hal_dma.c ****   __IO uint32_t count = 0U;
 1940              		.loc 1 748 3 is_stmt 1 view .LVU639
 749:Drivers/STM32F4xx_HAL_Driver/Src/stm32f4xx_hal_dma.c ****   uint32_t timeout = SystemCoreClock / 9600U;
 1941              		.loc 1 749 3 view .LVU640
 749:Drivers/STM32F4xx_HAL_Driver/Src/stm32f4xx_hal_dma.c ****   uint32_t timeout = SystemCoreClock / 9600U;
 1942              		.loc 1 749 17 is_stmt 0 view .LVU641
 1943 0006 0023     		movs	r3, #0
 1944 0008 0193     		str	r3, [sp, #4]
 750:Drivers/STM32F4xx_HAL_Driver/Src/stm32f4xx_hal_dma.c **** 
 1945              		.loc 1 750 3 is_stmt 1 view .LVU642
 750:Drivers/STM32F4xx_HAL_Driver/Src/stm32f4xx_hal_dma.c **** 
 1946              		.loc 1 750 38 is_stmt 0 view .LVU643
 1947 000a 724B     		ldr	r3, .L156
 1948 000c 1D68     		ldr	r5, [r3]
 750:Drivers/STM32F4xx_HAL_Driver/Src/stm32f4xx_hal_dma.c **** 
 1949              		.loc 1 750 12 view .LVU644
 1950 000e 724B     		ldr	r3, .L156+4
 1951 0010 A3FB0535 		umull	r3, r5, r3, r5
 1952 0014 AD0A     		lsrs	r5, r5, #10
 1953              	.LVL144:
 753:Drivers/STM32F4xx_HAL_Driver/Src/stm32f4xx_hal_dma.c **** 
 1954              		.loc 1 753 3 is_stmt 1 view .LVU645
 753:Drivers/STM32F4xx_HAL_Driver/Src/stm32f4xx_hal_dma.c **** 
 1955              		.loc 1 753 56 is_stmt 0 view .LVU646
 1956 0016 876D     		ldr	r7, [r0, #88]
 1957              	.LVL145:
 755:Drivers/STM32F4xx_HAL_Driver/Src/stm32f4xx_hal_dma.c **** 
 1958              		.loc 1 755 3 is_stmt 1 view .LVU647
 755:Drivers/STM32F4xx_HAL_Driver/Src/stm32f4xx_hal_dma.c **** 
 1959              		.loc 1 755 10 is_stmt 0 view .LVU648
ARM GAS  C:\Users\hanaj\AppData\Local\Temp\ccOrHUbU.s 			page 68


 1960 0018 3E68     		ldr	r6, [r7]
 1961              	.LVL146:
 758:Drivers/STM32F4xx_HAL_Driver/Src/stm32f4xx_hal_dma.c ****   {
 1962              		.loc 1 758 3 is_stmt 1 view .LVU649
 758:Drivers/STM32F4xx_HAL_Driver/Src/stm32f4xx_hal_dma.c ****   {
 1963              		.loc 1 758 42 is_stmt 0 view .LVU650
 1964 001a C26D     		ldr	r2, [r0, #92]
 758:Drivers/STM32F4xx_HAL_Driver/Src/stm32f4xx_hal_dma.c ****   {
 1965              		.loc 1 758 35 view .LVU651
 1966 001c 0823     		movs	r3, #8
 1967 001e 9340     		lsls	r3, r3, r2
 758:Drivers/STM32F4xx_HAL_Driver/Src/stm32f4xx_hal_dma.c ****   {
 1968              		.loc 1 758 6 view .LVU652
 1969 0020 3342     		tst	r3, r6
 1970 0022 10D0     		beq	.L134
 760:Drivers/STM32F4xx_HAL_Driver/Src/stm32f4xx_hal_dma.c ****     {
 1971              		.loc 1 760 5 is_stmt 1 view .LVU653
 760:Drivers/STM32F4xx_HAL_Driver/Src/stm32f4xx_hal_dma.c ****     {
 1972              		.loc 1 760 8 is_stmt 0 view .LVU654
 1973 0024 0368     		ldr	r3, [r0]
 1974 0026 1A68     		ldr	r2, [r3]
 760:Drivers/STM32F4xx_HAL_Driver/Src/stm32f4xx_hal_dma.c ****     {
 1975              		.loc 1 760 7 view .LVU655
 1976 0028 12F0040F 		tst	r2, #4
 1977 002c 0BD0     		beq	.L134
 763:Drivers/STM32F4xx_HAL_Driver/Src/stm32f4xx_hal_dma.c ****       
 1978              		.loc 1 763 7 is_stmt 1 view .LVU656
 763:Drivers/STM32F4xx_HAL_Driver/Src/stm32f4xx_hal_dma.c ****       
 1979              		.loc 1 763 21 is_stmt 0 view .LVU657
 1980 002e 1A68     		ldr	r2, [r3]
 763:Drivers/STM32F4xx_HAL_Driver/Src/stm32f4xx_hal_dma.c ****       
 1981              		.loc 1 763 27 view .LVU658
 1982 0030 22F00402 		bic	r2, r2, #4
 1983 0034 1A60     		str	r2, [r3]
 766:Drivers/STM32F4xx_HAL_Driver/Src/stm32f4xx_hal_dma.c ****       
 1984              		.loc 1 766 7 is_stmt 1 view .LVU659
 766:Drivers/STM32F4xx_HAL_Driver/Src/stm32f4xx_hal_dma.c ****       
 1985              		.loc 1 766 44 is_stmt 0 view .LVU660
 1986 0036 C26D     		ldr	r2, [r0, #92]
 766:Drivers/STM32F4xx_HAL_Driver/Src/stm32f4xx_hal_dma.c ****       
 1987              		.loc 1 766 37 view .LVU661
 1988 0038 0823     		movs	r3, #8
 1989 003a 9340     		lsls	r3, r3, r2
 766:Drivers/STM32F4xx_HAL_Driver/Src/stm32f4xx_hal_dma.c ****       
 1990              		.loc 1 766 18 view .LVU662
 1991 003c BB60     		str	r3, [r7, #8]
 769:Drivers/STM32F4xx_HAL_Driver/Src/stm32f4xx_hal_dma.c ****     }
 1992              		.loc 1 769 7 is_stmt 1 view .LVU663
 769:Drivers/STM32F4xx_HAL_Driver/Src/stm32f4xx_hal_dma.c ****     }
 1993              		.loc 1 769 11 is_stmt 0 view .LVU664
 1994 003e 436D     		ldr	r3, [r0, #84]
 769:Drivers/STM32F4xx_HAL_Driver/Src/stm32f4xx_hal_dma.c ****     }
 1995              		.loc 1 769 23 view .LVU665
 1996 0040 43F00103 		orr	r3, r3, #1
 1997 0044 4365     		str	r3, [r0, #84]
 1998              	.L134:
 773:Drivers/STM32F4xx_HAL_Driver/Src/stm32f4xx_hal_dma.c ****   {
ARM GAS  C:\Users\hanaj\AppData\Local\Temp\ccOrHUbU.s 			page 69


 1999              		.loc 1 773 3 is_stmt 1 view .LVU666
 773:Drivers/STM32F4xx_HAL_Driver/Src/stm32f4xx_hal_dma.c ****   {
 2000              		.loc 1 773 42 is_stmt 0 view .LVU667
 2001 0046 E26D     		ldr	r2, [r4, #92]
 773:Drivers/STM32F4xx_HAL_Driver/Src/stm32f4xx_hal_dma.c ****   {
 2002              		.loc 1 773 35 view .LVU668
 2003 0048 0123     		movs	r3, #1
 2004 004a 9340     		lsls	r3, r3, r2
 773:Drivers/STM32F4xx_HAL_Driver/Src/stm32f4xx_hal_dma.c ****   {
 2005              		.loc 1 773 6 view .LVU669
 2006 004c 3342     		tst	r3, r6
 2007 004e 09D0     		beq	.L135
 775:Drivers/STM32F4xx_HAL_Driver/Src/stm32f4xx_hal_dma.c ****     {
 2008              		.loc 1 775 5 is_stmt 1 view .LVU670
 775:Drivers/STM32F4xx_HAL_Driver/Src/stm32f4xx_hal_dma.c ****     {
 2009              		.loc 1 775 8 is_stmt 0 view .LVU671
 2010 0050 2268     		ldr	r2, [r4]
 2011 0052 5269     		ldr	r2, [r2, #20]
 775:Drivers/STM32F4xx_HAL_Driver/Src/stm32f4xx_hal_dma.c ****     {
 2012              		.loc 1 775 7 view .LVU672
 2013 0054 12F0800F 		tst	r2, #128
 2014 0058 04D0     		beq	.L135
 778:Drivers/STM32F4xx_HAL_Driver/Src/stm32f4xx_hal_dma.c **** 
 2015              		.loc 1 778 7 is_stmt 1 view .LVU673
 778:Drivers/STM32F4xx_HAL_Driver/Src/stm32f4xx_hal_dma.c **** 
 2016              		.loc 1 778 18 is_stmt 0 view .LVU674
 2017 005a BB60     		str	r3, [r7, #8]
 781:Drivers/STM32F4xx_HAL_Driver/Src/stm32f4xx_hal_dma.c ****     }
 2018              		.loc 1 781 7 is_stmt 1 view .LVU675
 781:Drivers/STM32F4xx_HAL_Driver/Src/stm32f4xx_hal_dma.c ****     }
 2019              		.loc 1 781 11 is_stmt 0 view .LVU676
 2020 005c 636D     		ldr	r3, [r4, #84]
 781:Drivers/STM32F4xx_HAL_Driver/Src/stm32f4xx_hal_dma.c ****     }
 2021              		.loc 1 781 23 view .LVU677
 2022 005e 43F00203 		orr	r3, r3, #2
 2023 0062 6365     		str	r3, [r4, #84]
 2024              	.L135:
 785:Drivers/STM32F4xx_HAL_Driver/Src/stm32f4xx_hal_dma.c ****   {
 2025              		.loc 1 785 3 is_stmt 1 view .LVU678
 785:Drivers/STM32F4xx_HAL_Driver/Src/stm32f4xx_hal_dma.c ****   {
 2026              		.loc 1 785 43 is_stmt 0 view .LVU679
 2027 0064 E26D     		ldr	r2, [r4, #92]
 785:Drivers/STM32F4xx_HAL_Driver/Src/stm32f4xx_hal_dma.c ****   {
 2028              		.loc 1 785 36 view .LVU680
 2029 0066 0423     		movs	r3, #4
 2030 0068 9340     		lsls	r3, r3, r2
 785:Drivers/STM32F4xx_HAL_Driver/Src/stm32f4xx_hal_dma.c ****   {
 2031              		.loc 1 785 6 view .LVU681
 2032 006a 3342     		tst	r3, r6
 2033 006c 09D0     		beq	.L136
 787:Drivers/STM32F4xx_HAL_Driver/Src/stm32f4xx_hal_dma.c ****     {
 2034              		.loc 1 787 5 is_stmt 1 view .LVU682
 787:Drivers/STM32F4xx_HAL_Driver/Src/stm32f4xx_hal_dma.c ****     {
 2035              		.loc 1 787 8 is_stmt 0 view .LVU683
 2036 006e 2268     		ldr	r2, [r4]
 2037 0070 1268     		ldr	r2, [r2]
 787:Drivers/STM32F4xx_HAL_Driver/Src/stm32f4xx_hal_dma.c ****     {
ARM GAS  C:\Users\hanaj\AppData\Local\Temp\ccOrHUbU.s 			page 70


 2038              		.loc 1 787 7 view .LVU684
 2039 0072 12F0020F 		tst	r2, #2
 2040 0076 04D0     		beq	.L136
 790:Drivers/STM32F4xx_HAL_Driver/Src/stm32f4xx_hal_dma.c **** 
 2041              		.loc 1 790 7 is_stmt 1 view .LVU685
 790:Drivers/STM32F4xx_HAL_Driver/Src/stm32f4xx_hal_dma.c **** 
 2042              		.loc 1 790 18 is_stmt 0 view .LVU686
 2043 0078 BB60     		str	r3, [r7, #8]
 793:Drivers/STM32F4xx_HAL_Driver/Src/stm32f4xx_hal_dma.c ****     }
 2044              		.loc 1 793 7 is_stmt 1 view .LVU687
 793:Drivers/STM32F4xx_HAL_Driver/Src/stm32f4xx_hal_dma.c ****     }
 2045              		.loc 1 793 11 is_stmt 0 view .LVU688
 2046 007a 636D     		ldr	r3, [r4, #84]
 793:Drivers/STM32F4xx_HAL_Driver/Src/stm32f4xx_hal_dma.c ****     }
 2047              		.loc 1 793 23 view .LVU689
 2048 007c 43F00403 		orr	r3, r3, #4
 2049 0080 6365     		str	r3, [r4, #84]
 2050              	.L136:
 797:Drivers/STM32F4xx_HAL_Driver/Src/stm32f4xx_hal_dma.c ****   {
 2051              		.loc 1 797 3 is_stmt 1 view .LVU690
 797:Drivers/STM32F4xx_HAL_Driver/Src/stm32f4xx_hal_dma.c ****   {
 2052              		.loc 1 797 42 is_stmt 0 view .LVU691
 2053 0082 E26D     		ldr	r2, [r4, #92]
 797:Drivers/STM32F4xx_HAL_Driver/Src/stm32f4xx_hal_dma.c ****   {
 2054              		.loc 1 797 35 view .LVU692
 2055 0084 1023     		movs	r3, #16
 2056 0086 9340     		lsls	r3, r3, r2
 797:Drivers/STM32F4xx_HAL_Driver/Src/stm32f4xx_hal_dma.c ****   {
 2057              		.loc 1 797 6 view .LVU693
 2058 0088 3342     		tst	r3, r6
 2059 008a 24D0     		beq	.L137
 799:Drivers/STM32F4xx_HAL_Driver/Src/stm32f4xx_hal_dma.c ****     {
 2060              		.loc 1 799 5 is_stmt 1 view .LVU694
 799:Drivers/STM32F4xx_HAL_Driver/Src/stm32f4xx_hal_dma.c ****     {
 2061              		.loc 1 799 8 is_stmt 0 view .LVU695
 2062 008c 2268     		ldr	r2, [r4]
 2063 008e 1268     		ldr	r2, [r2]
 799:Drivers/STM32F4xx_HAL_Driver/Src/stm32f4xx_hal_dma.c ****     {
 2064              		.loc 1 799 7 view .LVU696
 2065 0090 12F0080F 		tst	r2, #8
 2066 0094 1FD0     		beq	.L137
 802:Drivers/STM32F4xx_HAL_Driver/Src/stm32f4xx_hal_dma.c ****       
 2067              		.loc 1 802 7 is_stmt 1 view .LVU697
 802:Drivers/STM32F4xx_HAL_Driver/Src/stm32f4xx_hal_dma.c ****       
 2068              		.loc 1 802 18 is_stmt 0 view .LVU698
 2069 0096 BB60     		str	r3, [r7, #8]
 805:Drivers/STM32F4xx_HAL_Driver/Src/stm32f4xx_hal_dma.c ****       {
 2070              		.loc 1 805 7 is_stmt 1 view .LVU699
 805:Drivers/STM32F4xx_HAL_Driver/Src/stm32f4xx_hal_dma.c ****       {
 2071              		.loc 1 805 16 is_stmt 0 view .LVU700
 2072 0098 2368     		ldr	r3, [r4]
 805:Drivers/STM32F4xx_HAL_Driver/Src/stm32f4xx_hal_dma.c ****       {
 2073              		.loc 1 805 26 view .LVU701
 2074 009a 1A68     		ldr	r2, [r3]
 805:Drivers/STM32F4xx_HAL_Driver/Src/stm32f4xx_hal_dma.c ****       {
 2075              		.loc 1 805 9 view .LVU702
 2076 009c 12F4802F 		tst	r2, #262144
ARM GAS  C:\Users\hanaj\AppData\Local\Temp\ccOrHUbU.s 			page 71


 2077 00a0 0DD0     		beq	.L138
 808:Drivers/STM32F4xx_HAL_Driver/Src/stm32f4xx_hal_dma.c ****         {
 2078              		.loc 1 808 9 is_stmt 1 view .LVU703
 808:Drivers/STM32F4xx_HAL_Driver/Src/stm32f4xx_hal_dma.c ****         {
 2079              		.loc 1 808 27 is_stmt 0 view .LVU704
 2080 00a2 1B68     		ldr	r3, [r3]
 808:Drivers/STM32F4xx_HAL_Driver/Src/stm32f4xx_hal_dma.c ****         {
 2081              		.loc 1 808 11 view .LVU705
 2082 00a4 13F4002F 		tst	r3, #524288
 2083 00a8 04D1     		bne	.L139
 810:Drivers/STM32F4xx_HAL_Driver/Src/stm32f4xx_hal_dma.c ****           {
 2084              		.loc 1 810 11 is_stmt 1 view .LVU706
 810:Drivers/STM32F4xx_HAL_Driver/Src/stm32f4xx_hal_dma.c ****           {
 2085              		.loc 1 810 18 is_stmt 0 view .LVU707
 2086 00aa 236C     		ldr	r3, [r4, #64]
 810:Drivers/STM32F4xx_HAL_Driver/Src/stm32f4xx_hal_dma.c ****           {
 2087              		.loc 1 810 13 view .LVU708
 2088 00ac 9BB1     		cbz	r3, .L137
 813:Drivers/STM32F4xx_HAL_Driver/Src/stm32f4xx_hal_dma.c ****           }
 2089              		.loc 1 813 13 is_stmt 1 view .LVU709
 2090 00ae 2046     		mov	r0, r4
 2091              	.LVL147:
 813:Drivers/STM32F4xx_HAL_Driver/Src/stm32f4xx_hal_dma.c ****           }
 2092              		.loc 1 813 13 is_stmt 0 view .LVU710
 2093 00b0 9847     		blx	r3
 2094              	.LVL148:
 2095 00b2 10E0     		b	.L137
 2096              	.LVL149:
 2097              	.L139:
 819:Drivers/STM32F4xx_HAL_Driver/Src/stm32f4xx_hal_dma.c ****           {
 2098              		.loc 1 819 11 is_stmt 1 view .LVU711
 819:Drivers/STM32F4xx_HAL_Driver/Src/stm32f4xx_hal_dma.c ****           {
 2099              		.loc 1 819 18 is_stmt 0 view .LVU712
 2100 00b4 A36C     		ldr	r3, [r4, #72]
 819:Drivers/STM32F4xx_HAL_Driver/Src/stm32f4xx_hal_dma.c ****           {
 2101              		.loc 1 819 13 view .LVU713
 2102 00b6 73B1     		cbz	r3, .L137
 822:Drivers/STM32F4xx_HAL_Driver/Src/stm32f4xx_hal_dma.c ****           }
 2103              		.loc 1 822 13 is_stmt 1 view .LVU714
 2104 00b8 2046     		mov	r0, r4
 2105              	.LVL150:
 822:Drivers/STM32F4xx_HAL_Driver/Src/stm32f4xx_hal_dma.c ****           }
 2106              		.loc 1 822 13 is_stmt 0 view .LVU715
 2107 00ba 9847     		blx	r3
 2108              	.LVL151:
 2109 00bc 0BE0     		b	.L137
 2110              	.LVL152:
 2111              	.L138:
 829:Drivers/STM32F4xx_HAL_Driver/Src/stm32f4xx_hal_dma.c ****         {
 2112              		.loc 1 829 9 is_stmt 1 view .LVU716
 829:Drivers/STM32F4xx_HAL_Driver/Src/stm32f4xx_hal_dma.c ****         {
 2113              		.loc 1 829 27 is_stmt 0 view .LVU717
 2114 00be 1A68     		ldr	r2, [r3]
 829:Drivers/STM32F4xx_HAL_Driver/Src/stm32f4xx_hal_dma.c ****         {
 2115              		.loc 1 829 11 view .LVU718
 2116 00c0 12F4807F 		tst	r2, #256
 2117 00c4 03D1     		bne	.L140
ARM GAS  C:\Users\hanaj\AppData\Local\Temp\ccOrHUbU.s 			page 72


 832:Drivers/STM32F4xx_HAL_Driver/Src/stm32f4xx_hal_dma.c ****         }
 2118              		.loc 1 832 11 is_stmt 1 view .LVU719
 832:Drivers/STM32F4xx_HAL_Driver/Src/stm32f4xx_hal_dma.c ****         }
 2119              		.loc 1 832 25 is_stmt 0 view .LVU720
 2120 00c6 1A68     		ldr	r2, [r3]
 832:Drivers/STM32F4xx_HAL_Driver/Src/stm32f4xx_hal_dma.c ****         }
 2121              		.loc 1 832 31 view .LVU721
 2122 00c8 22F00802 		bic	r2, r2, #8
 2123 00cc 1A60     		str	r2, [r3]
 2124              	.L140:
 835:Drivers/STM32F4xx_HAL_Driver/Src/stm32f4xx_hal_dma.c ****         {
 2125              		.loc 1 835 9 is_stmt 1 view .LVU722
 835:Drivers/STM32F4xx_HAL_Driver/Src/stm32f4xx_hal_dma.c ****         {
 2126              		.loc 1 835 16 is_stmt 0 view .LVU723
 2127 00ce 236C     		ldr	r3, [r4, #64]
 835:Drivers/STM32F4xx_HAL_Driver/Src/stm32f4xx_hal_dma.c ****         {
 2128              		.loc 1 835 11 view .LVU724
 2129 00d0 0BB1     		cbz	r3, .L137
 838:Drivers/STM32F4xx_HAL_Driver/Src/stm32f4xx_hal_dma.c ****         }
 2130              		.loc 1 838 11 is_stmt 1 view .LVU725
 2131 00d2 2046     		mov	r0, r4
 2132              	.LVL153:
 838:Drivers/STM32F4xx_HAL_Driver/Src/stm32f4xx_hal_dma.c ****         }
 2133              		.loc 1 838 11 is_stmt 0 view .LVU726
 2134 00d4 9847     		blx	r3
 2135              	.LVL154:
 2136              	.L137:
 844:Drivers/STM32F4xx_HAL_Driver/Src/stm32f4xx_hal_dma.c ****   {
 2137              		.loc 1 844 3 is_stmt 1 view .LVU727
 844:Drivers/STM32F4xx_HAL_Driver/Src/stm32f4xx_hal_dma.c ****   {
 2138              		.loc 1 844 42 is_stmt 0 view .LVU728
 2139 00d6 E26D     		ldr	r2, [r4, #92]
 844:Drivers/STM32F4xx_HAL_Driver/Src/stm32f4xx_hal_dma.c ****   {
 2140              		.loc 1 844 35 view .LVU729
 2141 00d8 2023     		movs	r3, #32
 2142 00da 9340     		lsls	r3, r3, r2
 844:Drivers/STM32F4xx_HAL_Driver/Src/stm32f4xx_hal_dma.c ****   {
 2143              		.loc 1 844 6 view .LVU730
 2144 00dc 3342     		tst	r3, r6
 2145 00de 55D0     		beq	.L141
 846:Drivers/STM32F4xx_HAL_Driver/Src/stm32f4xx_hal_dma.c ****     {
 2146              		.loc 1 846 5 is_stmt 1 view .LVU731
 846:Drivers/STM32F4xx_HAL_Driver/Src/stm32f4xx_hal_dma.c ****     {
 2147              		.loc 1 846 8 is_stmt 0 view .LVU732
 2148 00e0 2268     		ldr	r2, [r4]
 2149 00e2 1268     		ldr	r2, [r2]
 846:Drivers/STM32F4xx_HAL_Driver/Src/stm32f4xx_hal_dma.c ****     {
 2150              		.loc 1 846 7 view .LVU733
 2151 00e4 12F0100F 		tst	r2, #16
 2152 00e8 50D0     		beq	.L141
 849:Drivers/STM32F4xx_HAL_Driver/Src/stm32f4xx_hal_dma.c ****       
 2153              		.loc 1 849 7 is_stmt 1 view .LVU734
 849:Drivers/STM32F4xx_HAL_Driver/Src/stm32f4xx_hal_dma.c ****       
 2154              		.loc 1 849 18 is_stmt 0 view .LVU735
 2155 00ea BB60     		str	r3, [r7, #8]
 851:Drivers/STM32F4xx_HAL_Driver/Src/stm32f4xx_hal_dma.c ****       {
 2156              		.loc 1 851 7 is_stmt 1 view .LVU736
ARM GAS  C:\Users\hanaj\AppData\Local\Temp\ccOrHUbU.s 			page 73


 851:Drivers/STM32F4xx_HAL_Driver/Src/stm32f4xx_hal_dma.c ****       {
 2157              		.loc 1 851 37 is_stmt 0 view .LVU737
 2158 00ec 94F83530 		ldrb	r3, [r4, #53]	@ zero_extendqisi2
 2159 00f0 DBB2     		uxtb	r3, r3
 851:Drivers/STM32F4xx_HAL_Driver/Src/stm32f4xx_hal_dma.c ****       {
 2160              		.loc 1 851 9 view .LVU738
 2161 00f2 052B     		cmp	r3, #5
 2162 00f4 0ED0     		beq	.L154
 878:Drivers/STM32F4xx_HAL_Driver/Src/stm32f4xx_hal_dma.c ****       {
 2163              		.loc 1 878 7 is_stmt 1 view .LVU739
 878:Drivers/STM32F4xx_HAL_Driver/Src/stm32f4xx_hal_dma.c ****       {
 2164              		.loc 1 878 16 is_stmt 0 view .LVU740
 2165 00f6 2368     		ldr	r3, [r4]
 878:Drivers/STM32F4xx_HAL_Driver/Src/stm32f4xx_hal_dma.c ****       {
 2166              		.loc 1 878 26 view .LVU741
 2167 00f8 1A68     		ldr	r2, [r3]
 878:Drivers/STM32F4xx_HAL_Driver/Src/stm32f4xx_hal_dma.c ****       {
 2168              		.loc 1 878 9 view .LVU742
 2169 00fa 12F4802F 		tst	r2, #262144
 2170 00fe 33D0     		beq	.L147
 881:Drivers/STM32F4xx_HAL_Driver/Src/stm32f4xx_hal_dma.c ****         {
 2171              		.loc 1 881 9 is_stmt 1 view .LVU743
 881:Drivers/STM32F4xx_HAL_Driver/Src/stm32f4xx_hal_dma.c ****         {
 2172              		.loc 1 881 27 is_stmt 0 view .LVU744
 2173 0100 1B68     		ldr	r3, [r3]
 881:Drivers/STM32F4xx_HAL_Driver/Src/stm32f4xx_hal_dma.c ****         {
 2174              		.loc 1 881 11 view .LVU745
 2175 0102 13F4002F 		tst	r3, #524288
 2176 0106 2AD1     		bne	.L148
 883:Drivers/STM32F4xx_HAL_Driver/Src/stm32f4xx_hal_dma.c ****           {
 2177              		.loc 1 883 11 is_stmt 1 view .LVU746
 883:Drivers/STM32F4xx_HAL_Driver/Src/stm32f4xx_hal_dma.c ****           {
 2178              		.loc 1 883 18 is_stmt 0 view .LVU747
 2179 0108 636C     		ldr	r3, [r4, #68]
 883:Drivers/STM32F4xx_HAL_Driver/Src/stm32f4xx_hal_dma.c ****           {
 2180              		.loc 1 883 13 view .LVU748
 2181 010a 002B     		cmp	r3, #0
 2182 010c 3ED0     		beq	.L141
 886:Drivers/STM32F4xx_HAL_Driver/Src/stm32f4xx_hal_dma.c ****           }
 2183              		.loc 1 886 13 is_stmt 1 view .LVU749
 2184 010e 2046     		mov	r0, r4
 2185 0110 9847     		blx	r3
 2186              	.LVL155:
 2187 0112 3BE0     		b	.L141
 2188              	.L154:
 854:Drivers/STM32F4xx_HAL_Driver/Src/stm32f4xx_hal_dma.c ****         hdma->Instance->FCR &= ~(DMA_IT_FE);
 2189              		.loc 1 854 9 view .LVU750
 854:Drivers/STM32F4xx_HAL_Driver/Src/stm32f4xx_hal_dma.c ****         hdma->Instance->FCR &= ~(DMA_IT_FE);
 2190              		.loc 1 854 13 is_stmt 0 view .LVU751
 2191 0114 2268     		ldr	r2, [r4]
 854:Drivers/STM32F4xx_HAL_Driver/Src/stm32f4xx_hal_dma.c ****         hdma->Instance->FCR &= ~(DMA_IT_FE);
 2192              		.loc 1 854 23 view .LVU752
 2193 0116 1368     		ldr	r3, [r2]
 854:Drivers/STM32F4xx_HAL_Driver/Src/stm32f4xx_hal_dma.c ****         hdma->Instance->FCR &= ~(DMA_IT_FE);
 2194              		.loc 1 854 29 view .LVU753
 2195 0118 23F01603 		bic	r3, r3, #22
 2196 011c 1360     		str	r3, [r2]
ARM GAS  C:\Users\hanaj\AppData\Local\Temp\ccOrHUbU.s 			page 74


 855:Drivers/STM32F4xx_HAL_Driver/Src/stm32f4xx_hal_dma.c ****         
 2197              		.loc 1 855 9 is_stmt 1 view .LVU754
 855:Drivers/STM32F4xx_HAL_Driver/Src/stm32f4xx_hal_dma.c ****         
 2198              		.loc 1 855 13 is_stmt 0 view .LVU755
 2199 011e 2268     		ldr	r2, [r4]
 855:Drivers/STM32F4xx_HAL_Driver/Src/stm32f4xx_hal_dma.c ****         
 2200              		.loc 1 855 23 view .LVU756
 2201 0120 5369     		ldr	r3, [r2, #20]
 855:Drivers/STM32F4xx_HAL_Driver/Src/stm32f4xx_hal_dma.c ****         
 2202              		.loc 1 855 29 view .LVU757
 2203 0122 23F08003 		bic	r3, r3, #128
 2204 0126 5361     		str	r3, [r2, #20]
 857:Drivers/STM32F4xx_HAL_Driver/Src/stm32f4xx_hal_dma.c ****         {
 2205              		.loc 1 857 9 is_stmt 1 view .LVU758
 857:Drivers/STM32F4xx_HAL_Driver/Src/stm32f4xx_hal_dma.c ****         {
 2206              		.loc 1 857 17 is_stmt 0 view .LVU759
 2207 0128 236C     		ldr	r3, [r4, #64]
 857:Drivers/STM32F4xx_HAL_Driver/Src/stm32f4xx_hal_dma.c ****         {
 2208              		.loc 1 857 11 view .LVU760
 2209 012a A3B1     		cbz	r3, .L155
 2210              	.L143:
 859:Drivers/STM32F4xx_HAL_Driver/Src/stm32f4xx_hal_dma.c ****         }
 2211              		.loc 1 859 11 is_stmt 1 view .LVU761
 859:Drivers/STM32F4xx_HAL_Driver/Src/stm32f4xx_hal_dma.c ****         }
 2212              		.loc 1 859 15 is_stmt 0 view .LVU762
 2213 012c 2268     		ldr	r2, [r4]
 859:Drivers/STM32F4xx_HAL_Driver/Src/stm32f4xx_hal_dma.c ****         }
 2214              		.loc 1 859 25 view .LVU763
 2215 012e 1368     		ldr	r3, [r2]
 859:Drivers/STM32F4xx_HAL_Driver/Src/stm32f4xx_hal_dma.c ****         }
 2216              		.loc 1 859 31 view .LVU764
 2217 0130 23F00803 		bic	r3, r3, #8
 2218 0134 1360     		str	r3, [r2]
 2219              	.L144:
 863:Drivers/STM32F4xx_HAL_Driver/Src/stm32f4xx_hal_dma.c **** 
 2220              		.loc 1 863 9 is_stmt 1 view .LVU765
 863:Drivers/STM32F4xx_HAL_Driver/Src/stm32f4xx_hal_dma.c **** 
 2221              		.loc 1 863 35 is_stmt 0 view .LVU766
 2222 0136 E26D     		ldr	r2, [r4, #92]
 863:Drivers/STM32F4xx_HAL_Driver/Src/stm32f4xx_hal_dma.c **** 
 2223              		.loc 1 863 28 view .LVU767
 2224 0138 3F23     		movs	r3, #63
 2225 013a 9340     		lsls	r3, r3, r2
 863:Drivers/STM32F4xx_HAL_Driver/Src/stm32f4xx_hal_dma.c **** 
 2226              		.loc 1 863 20 view .LVU768
 2227 013c BB60     		str	r3, [r7, #8]
 866:Drivers/STM32F4xx_HAL_Driver/Src/stm32f4xx_hal_dma.c **** 
 2228              		.loc 1 866 9 is_stmt 1 view .LVU769
 866:Drivers/STM32F4xx_HAL_Driver/Src/stm32f4xx_hal_dma.c **** 
 2229              		.loc 1 866 21 is_stmt 0 view .LVU770
 2230 013e 0123     		movs	r3, #1
 2231 0140 84F83530 		strb	r3, [r4, #53]
 869:Drivers/STM32F4xx_HAL_Driver/Src/stm32f4xx_hal_dma.c **** 
 2232              		.loc 1 869 9 is_stmt 1 view .LVU771
 869:Drivers/STM32F4xx_HAL_Driver/Src/stm32f4xx_hal_dma.c **** 
 2233              		.loc 1 869 9 view .LVU772
 2234 0144 0023     		movs	r3, #0
ARM GAS  C:\Users\hanaj\AppData\Local\Temp\ccOrHUbU.s 			page 75


 2235 0146 84F83430 		strb	r3, [r4, #52]
 869:Drivers/STM32F4xx_HAL_Driver/Src/stm32f4xx_hal_dma.c **** 
 2236              		.loc 1 869 9 view .LVU773
 871:Drivers/STM32F4xx_HAL_Driver/Src/stm32f4xx_hal_dma.c ****         {
 2237              		.loc 1 871 9 view .LVU774
 871:Drivers/STM32F4xx_HAL_Driver/Src/stm32f4xx_hal_dma.c ****         {
 2238              		.loc 1 871 16 is_stmt 0 view .LVU775
 2239 014a 236D     		ldr	r3, [r4, #80]
 871:Drivers/STM32F4xx_HAL_Driver/Src/stm32f4xx_hal_dma.c ****         {
 2240              		.loc 1 871 11 view .LVU776
 2241 014c 002B     		cmp	r3, #0
 2242 014e 3FD0     		beq	.L133
 873:Drivers/STM32F4xx_HAL_Driver/Src/stm32f4xx_hal_dma.c ****         }
 2243              		.loc 1 873 11 is_stmt 1 view .LVU777
 2244 0150 2046     		mov	r0, r4
 2245 0152 9847     		blx	r3
 2246              	.LVL156:
 875:Drivers/STM32F4xx_HAL_Driver/Src/stm32f4xx_hal_dma.c ****       }
 2247              		.loc 1 875 9 view .LVU778
 2248 0154 3CE0     		b	.L133
 2249              	.L155:
 857:Drivers/STM32F4xx_HAL_Driver/Src/stm32f4xx_hal_dma.c ****         {
 2250              		.loc 1 857 57 is_stmt 0 discriminator 1 view .LVU779
 2251 0156 A36C     		ldr	r3, [r4, #72]
 857:Drivers/STM32F4xx_HAL_Driver/Src/stm32f4xx_hal_dma.c ****         {
 2252              		.loc 1 857 49 discriminator 1 view .LVU780
 2253 0158 002B     		cmp	r3, #0
 2254 015a E7D1     		bne	.L143
 2255 015c EBE7     		b	.L144
 2256              	.L148:
 892:Drivers/STM32F4xx_HAL_Driver/Src/stm32f4xx_hal_dma.c ****           {
 2257              		.loc 1 892 11 is_stmt 1 view .LVU781
 892:Drivers/STM32F4xx_HAL_Driver/Src/stm32f4xx_hal_dma.c ****           {
 2258              		.loc 1 892 18 is_stmt 0 view .LVU782
 2259 015e E36B     		ldr	r3, [r4, #60]
 892:Drivers/STM32F4xx_HAL_Driver/Src/stm32f4xx_hal_dma.c ****           {
 2260              		.loc 1 892 13 view .LVU783
 2261 0160 A3B1     		cbz	r3, .L141
 895:Drivers/STM32F4xx_HAL_Driver/Src/stm32f4xx_hal_dma.c ****           }
 2262              		.loc 1 895 13 is_stmt 1 view .LVU784
 2263 0162 2046     		mov	r0, r4
 2264 0164 9847     		blx	r3
 2265              	.LVL157:
 2266 0166 11E0     		b	.L141
 2267              	.L147:
 902:Drivers/STM32F4xx_HAL_Driver/Src/stm32f4xx_hal_dma.c ****         {
 2268              		.loc 1 902 9 view .LVU785
 902:Drivers/STM32F4xx_HAL_Driver/Src/stm32f4xx_hal_dma.c ****         {
 2269              		.loc 1 902 27 is_stmt 0 view .LVU786
 2270 0168 1A68     		ldr	r2, [r3]
 902:Drivers/STM32F4xx_HAL_Driver/Src/stm32f4xx_hal_dma.c ****         {
 2271              		.loc 1 902 11 view .LVU787
 2272 016a 12F4807F 		tst	r2, #256
 2273 016e 09D1     		bne	.L149
 905:Drivers/STM32F4xx_HAL_Driver/Src/stm32f4xx_hal_dma.c **** 
 2274              		.loc 1 905 11 is_stmt 1 view .LVU788
 905:Drivers/STM32F4xx_HAL_Driver/Src/stm32f4xx_hal_dma.c **** 
ARM GAS  C:\Users\hanaj\AppData\Local\Temp\ccOrHUbU.s 			page 76


 2275              		.loc 1 905 25 is_stmt 0 view .LVU789
 2276 0170 1A68     		ldr	r2, [r3]
 905:Drivers/STM32F4xx_HAL_Driver/Src/stm32f4xx_hal_dma.c **** 
 2277              		.loc 1 905 31 view .LVU790
 2278 0172 22F01002 		bic	r2, r2, #16
 2279 0176 1A60     		str	r2, [r3]
 908:Drivers/STM32F4xx_HAL_Driver/Src/stm32f4xx_hal_dma.c **** 
 2280              		.loc 1 908 11 is_stmt 1 view .LVU791
 908:Drivers/STM32F4xx_HAL_Driver/Src/stm32f4xx_hal_dma.c **** 
 2281              		.loc 1 908 23 is_stmt 0 view .LVU792
 2282 0178 0123     		movs	r3, #1
 2283 017a 84F83530 		strb	r3, [r4, #53]
 911:Drivers/STM32F4xx_HAL_Driver/Src/stm32f4xx_hal_dma.c ****         }
 2284              		.loc 1 911 11 is_stmt 1 view .LVU793
 911:Drivers/STM32F4xx_HAL_Driver/Src/stm32f4xx_hal_dma.c ****         }
 2285              		.loc 1 911 11 view .LVU794
 2286 017e 0023     		movs	r3, #0
 2287 0180 84F83430 		strb	r3, [r4, #52]
 2288              	.L149:
 911:Drivers/STM32F4xx_HAL_Driver/Src/stm32f4xx_hal_dma.c ****         }
 2289              		.loc 1 911 11 discriminator 1 view .LVU795
 914:Drivers/STM32F4xx_HAL_Driver/Src/stm32f4xx_hal_dma.c ****         {
 2290              		.loc 1 914 9 view .LVU796
 914:Drivers/STM32F4xx_HAL_Driver/Src/stm32f4xx_hal_dma.c ****         {
 2291              		.loc 1 914 16 is_stmt 0 view .LVU797
 2292 0184 E36B     		ldr	r3, [r4, #60]
 914:Drivers/STM32F4xx_HAL_Driver/Src/stm32f4xx_hal_dma.c ****         {
 2293              		.loc 1 914 11 view .LVU798
 2294 0186 0BB1     		cbz	r3, .L141
 917:Drivers/STM32F4xx_HAL_Driver/Src/stm32f4xx_hal_dma.c ****         }
 2295              		.loc 1 917 11 is_stmt 1 view .LVU799
 2296 0188 2046     		mov	r0, r4
 2297 018a 9847     		blx	r3
 2298              	.LVL158:
 2299              	.L141:
 924:Drivers/STM32F4xx_HAL_Driver/Src/stm32f4xx_hal_dma.c ****   {
 2300              		.loc 1 924 3 view .LVU800
 924:Drivers/STM32F4xx_HAL_Driver/Src/stm32f4xx_hal_dma.c ****   {
 2301              		.loc 1 924 10 is_stmt 0 view .LVU801
 2302 018c 636D     		ldr	r3, [r4, #84]
 924:Drivers/STM32F4xx_HAL_Driver/Src/stm32f4xx_hal_dma.c ****   {
 2303              		.loc 1 924 5 view .LVU802
 2304 018e FBB1     		cbz	r3, .L133
 926:Drivers/STM32F4xx_HAL_Driver/Src/stm32f4xx_hal_dma.c ****     {
 2305              		.loc 1 926 5 is_stmt 1 view .LVU803
 926:Drivers/STM32F4xx_HAL_Driver/Src/stm32f4xx_hal_dma.c ****     {
 2306              		.loc 1 926 13 is_stmt 0 view .LVU804
 2307 0190 636D     		ldr	r3, [r4, #84]
 926:Drivers/STM32F4xx_HAL_Driver/Src/stm32f4xx_hal_dma.c ****     {
 2308              		.loc 1 926 7 view .LVU805
 2309 0192 13F0010F 		tst	r3, #1
 2310 0196 17D0     		beq	.L150
 928:Drivers/STM32F4xx_HAL_Driver/Src/stm32f4xx_hal_dma.c **** 
 2311              		.loc 1 928 7 is_stmt 1 view .LVU806
 928:Drivers/STM32F4xx_HAL_Driver/Src/stm32f4xx_hal_dma.c **** 
 2312              		.loc 1 928 19 is_stmt 0 view .LVU807
 2313 0198 0523     		movs	r3, #5
ARM GAS  C:\Users\hanaj\AppData\Local\Temp\ccOrHUbU.s 			page 77


 2314 019a 84F83530 		strb	r3, [r4, #53]
 931:Drivers/STM32F4xx_HAL_Driver/Src/stm32f4xx_hal_dma.c **** 
 2315              		.loc 1 931 7 is_stmt 1 view .LVU808
 2316 019e 2268     		ldr	r2, [r4]
 2317 01a0 1368     		ldr	r3, [r2]
 2318 01a2 23F00103 		bic	r3, r3, #1
 2319 01a6 1360     		str	r3, [r2]
 2320              	.L152:
 933:Drivers/STM32F4xx_HAL_Driver/Src/stm32f4xx_hal_dma.c ****       {
 2321              		.loc 1 933 7 view .LVU809
 935:Drivers/STM32F4xx_HAL_Driver/Src/stm32f4xx_hal_dma.c ****         {
 2322              		.loc 1 935 9 view .LVU810
 935:Drivers/STM32F4xx_HAL_Driver/Src/stm32f4xx_hal_dma.c ****         {
 2323              		.loc 1 935 13 is_stmt 0 view .LVU811
 2324 01a8 019B     		ldr	r3, [sp, #4]
 2325 01aa 0133     		adds	r3, r3, #1
 935:Drivers/STM32F4xx_HAL_Driver/Src/stm32f4xx_hal_dma.c ****         {
 2326              		.loc 1 935 12 view .LVU812
 2327 01ac 0193     		str	r3, [sp, #4]
 2328 01ae AB42     		cmp	r3, r5
 2329 01b0 04D8     		bhi	.L151
 940:Drivers/STM32F4xx_HAL_Driver/Src/stm32f4xx_hal_dma.c **** 
 2330              		.loc 1 940 48 is_stmt 1 view .LVU813
 940:Drivers/STM32F4xx_HAL_Driver/Src/stm32f4xx_hal_dma.c **** 
 2331              		.loc 1 940 18 is_stmt 0 view .LVU814
 2332 01b2 2368     		ldr	r3, [r4]
 940:Drivers/STM32F4xx_HAL_Driver/Src/stm32f4xx_hal_dma.c **** 
 2333              		.loc 1 940 28 view .LVU815
 2334 01b4 1B68     		ldr	r3, [r3]
 940:Drivers/STM32F4xx_HAL_Driver/Src/stm32f4xx_hal_dma.c **** 
 2335              		.loc 1 940 48 view .LVU816
 2336 01b6 13F0010F 		tst	r3, #1
 2337 01ba F5D1     		bne	.L152
 2338              	.L151:
 943:Drivers/STM32F4xx_HAL_Driver/Src/stm32f4xx_hal_dma.c **** 
 2339              		.loc 1 943 7 is_stmt 1 view .LVU817
 943:Drivers/STM32F4xx_HAL_Driver/Src/stm32f4xx_hal_dma.c **** 
 2340              		.loc 1 943 19 is_stmt 0 view .LVU818
 2341 01bc 0123     		movs	r3, #1
 2342 01be 84F83530 		strb	r3, [r4, #53]
 946:Drivers/STM32F4xx_HAL_Driver/Src/stm32f4xx_hal_dma.c ****     }
 2343              		.loc 1 946 7 is_stmt 1 view .LVU819
 946:Drivers/STM32F4xx_HAL_Driver/Src/stm32f4xx_hal_dma.c ****     }
 2344              		.loc 1 946 7 view .LVU820
 2345 01c2 0023     		movs	r3, #0
 2346 01c4 84F83430 		strb	r3, [r4, #52]
 2347              	.L150:
 946:Drivers/STM32F4xx_HAL_Driver/Src/stm32f4xx_hal_dma.c ****     }
 2348              		.loc 1 946 7 discriminator 1 view .LVU821
 949:Drivers/STM32F4xx_HAL_Driver/Src/stm32f4xx_hal_dma.c ****     {
 2349              		.loc 1 949 5 view .LVU822
 949:Drivers/STM32F4xx_HAL_Driver/Src/stm32f4xx_hal_dma.c ****     {
 2350              		.loc 1 949 12 is_stmt 0 view .LVU823
 2351 01c8 E36C     		ldr	r3, [r4, #76]
 949:Drivers/STM32F4xx_HAL_Driver/Src/stm32f4xx_hal_dma.c ****     {
 2352              		.loc 1 949 7 view .LVU824
 2353 01ca 0BB1     		cbz	r3, .L133
ARM GAS  C:\Users\hanaj\AppData\Local\Temp\ccOrHUbU.s 			page 78


 952:Drivers/STM32F4xx_HAL_Driver/Src/stm32f4xx_hal_dma.c ****     }
 2354              		.loc 1 952 7 is_stmt 1 view .LVU825
 2355 01cc 2046     		mov	r0, r4
 2356 01ce 9847     		blx	r3
 2357              	.LVL159:
 2358              	.L133:
 955:Drivers/STM32F4xx_HAL_Driver/Src/stm32f4xx_hal_dma.c **** 
 2359              		.loc 1 955 1 is_stmt 0 view .LVU826
 2360 01d0 03B0     		add	sp, sp, #12
 2361              	.LCFI15:
 2362              		.cfi_def_cfa_offset 20
 2363              		@ sp needed
 2364 01d2 F0BD     		pop	{r4, r5, r6, r7, pc}
 2365              	.LVL160:
 2366              	.L157:
 955:Drivers/STM32F4xx_HAL_Driver/Src/stm32f4xx_hal_dma.c **** 
 2367              		.loc 1 955 1 view .LVU827
 2368              		.align	2
 2369              	.L156:
 2370 01d4 00000000 		.word	SystemCoreClock
 2371 01d8 B5814E1B 		.word	458129845
 2372              		.cfi_endproc
 2373              	.LFE246:
 2375              		.section	.text.HAL_DMA_RegisterCallback,"ax",%progbits
 2376              		.align	1
 2377              		.global	HAL_DMA_RegisterCallback
 2378              		.syntax unified
 2379              		.thumb
 2380              		.thumb_func
 2382              	HAL_DMA_RegisterCallback:
 2383              	.LVL161:
 2384              	.LFB247:
 968:Drivers/STM32F4xx_HAL_Driver/Src/stm32f4xx_hal_dma.c **** 
 2385              		.loc 1 968 1 is_stmt 1 view -0
 2386              		.cfi_startproc
 2387              		@ args = 0, pretend = 0, frame = 0
 2388              		@ frame_needed = 0, uses_anonymous_args = 0
 2389              		@ link register save eliminated.
 968:Drivers/STM32F4xx_HAL_Driver/Src/stm32f4xx_hal_dma.c **** 
 2390              		.loc 1 968 1 is_stmt 0 view .LVU829
 2391 0000 0346     		mov	r3, r0
 970:Drivers/STM32F4xx_HAL_Driver/Src/stm32f4xx_hal_dma.c **** 
 2392              		.loc 1 970 3 is_stmt 1 view .LVU830
 2393              	.LVL162:
 973:Drivers/STM32F4xx_HAL_Driver/Src/stm32f4xx_hal_dma.c **** 
 2394              		.loc 1 973 3 view .LVU831
 973:Drivers/STM32F4xx_HAL_Driver/Src/stm32f4xx_hal_dma.c **** 
 2395              		.loc 1 973 3 view .LVU832
 2396 0002 90F83400 		ldrb	r0, [r0, #52]	@ zero_extendqisi2
 2397              	.LVL163:
 973:Drivers/STM32F4xx_HAL_Driver/Src/stm32f4xx_hal_dma.c **** 
 2398              		.loc 1 973 3 is_stmt 0 view .LVU833
 2399 0006 0128     		cmp	r0, #1
 2400 0008 25D0     		beq	.L168
 973:Drivers/STM32F4xx_HAL_Driver/Src/stm32f4xx_hal_dma.c **** 
 2401              		.loc 1 973 3 is_stmt 1 discriminator 2 view .LVU834
 2402 000a 0120     		movs	r0, #1
ARM GAS  C:\Users\hanaj\AppData\Local\Temp\ccOrHUbU.s 			page 79


 2403 000c 83F83400 		strb	r0, [r3, #52]
 973:Drivers/STM32F4xx_HAL_Driver/Src/stm32f4xx_hal_dma.c **** 
 2404              		.loc 1 973 3 discriminator 2 view .LVU835
 975:Drivers/STM32F4xx_HAL_Driver/Src/stm32f4xx_hal_dma.c ****   {
 2405              		.loc 1 975 3 view .LVU836
 975:Drivers/STM32F4xx_HAL_Driver/Src/stm32f4xx_hal_dma.c ****   {
 2406              		.loc 1 975 33 is_stmt 0 view .LVU837
 2407 0010 93F83500 		ldrb	r0, [r3, #53]	@ zero_extendqisi2
 2408 0014 C0B2     		uxtb	r0, r0
 975:Drivers/STM32F4xx_HAL_Driver/Src/stm32f4xx_hal_dma.c ****   {
 2409              		.loc 1 975 5 view .LVU838
 2410 0016 0128     		cmp	r0, #1
 2411 0018 04D0     		beq	.L171
1012:Drivers/STM32F4xx_HAL_Driver/Src/stm32f4xx_hal_dma.c ****   }
 2412              		.loc 1 1012 12 view .LVU839
 2413 001a 0120     		movs	r0, #1
 2414              	.L160:
 2415              	.LVL164:
1016:Drivers/STM32F4xx_HAL_Driver/Src/stm32f4xx_hal_dma.c ****   
 2416              		.loc 1 1016 3 is_stmt 1 view .LVU840
1016:Drivers/STM32F4xx_HAL_Driver/Src/stm32f4xx_hal_dma.c ****   
 2417              		.loc 1 1016 3 view .LVU841
 2418 001c 0022     		movs	r2, #0
 2419              	.LVL165:
1016:Drivers/STM32F4xx_HAL_Driver/Src/stm32f4xx_hal_dma.c ****   
 2420              		.loc 1 1016 3 is_stmt 0 view .LVU842
 2421 001e 83F83420 		strb	r2, [r3, #52]
1016:Drivers/STM32F4xx_HAL_Driver/Src/stm32f4xx_hal_dma.c ****   
 2422              		.loc 1 1016 3 is_stmt 1 view .LVU843
1018:Drivers/STM32F4xx_HAL_Driver/Src/stm32f4xx_hal_dma.c **** }
 2423              		.loc 1 1018 3 view .LVU844
1018:Drivers/STM32F4xx_HAL_Driver/Src/stm32f4xx_hal_dma.c **** }
 2424              		.loc 1 1018 10 is_stmt 0 view .LVU845
 2425 0022 7047     		bx	lr
 2426              	.LVL166:
 2427              	.L171:
 977:Drivers/STM32F4xx_HAL_Driver/Src/stm32f4xx_hal_dma.c ****     {
 2428              		.loc 1 977 5 is_stmt 1 view .LVU846
 2429 0024 0529     		cmp	r1, #5
 2430 0026 F9D8     		bhi	.L160
 2431 0028 DFE801F0 		tbb	[pc, r1]
 2432              	.L162:
 2433 002c 03       		.byte	(.L167-.L162)/2
 2434 002d 06       		.byte	(.L166-.L162)/2
 2435 002e 09       		.byte	(.L165-.L162)/2
 2436 002f 0C       		.byte	(.L164-.L162)/2
 2437 0030 0F       		.byte	(.L163-.L162)/2
 2438 0031 12       		.byte	(.L161-.L162)/2
 2439              		.p2align 1
 2440              	.L167:
 980:Drivers/STM32F4xx_HAL_Driver/Src/stm32f4xx_hal_dma.c ****       break;
 2441              		.loc 1 980 7 view .LVU847
 980:Drivers/STM32F4xx_HAL_Driver/Src/stm32f4xx_hal_dma.c ****       break;
 2442              		.loc 1 980 30 is_stmt 0 view .LVU848
 2443 0032 DA63     		str	r2, [r3, #60]
 981:Drivers/STM32F4xx_HAL_Driver/Src/stm32f4xx_hal_dma.c **** 
 2444              		.loc 1 981 7 is_stmt 1 view .LVU849
ARM GAS  C:\Users\hanaj\AppData\Local\Temp\ccOrHUbU.s 			page 80


 970:Drivers/STM32F4xx_HAL_Driver/Src/stm32f4xx_hal_dma.c **** 
 2445              		.loc 1 970 21 is_stmt 0 view .LVU850
 2446 0034 0846     		mov	r0, r1
 981:Drivers/STM32F4xx_HAL_Driver/Src/stm32f4xx_hal_dma.c **** 
 2447              		.loc 1 981 7 view .LVU851
 2448 0036 F1E7     		b	.L160
 2449              	.L166:
 984:Drivers/STM32F4xx_HAL_Driver/Src/stm32f4xx_hal_dma.c ****       break;
 2450              		.loc 1 984 7 is_stmt 1 view .LVU852
 984:Drivers/STM32F4xx_HAL_Driver/Src/stm32f4xx_hal_dma.c ****       break;
 2451              		.loc 1 984 34 is_stmt 0 view .LVU853
 2452 0038 1A64     		str	r2, [r3, #64]
 985:Drivers/STM32F4xx_HAL_Driver/Src/stm32f4xx_hal_dma.c **** 
 2453              		.loc 1 985 7 is_stmt 1 view .LVU854
 970:Drivers/STM32F4xx_HAL_Driver/Src/stm32f4xx_hal_dma.c **** 
 2454              		.loc 1 970 21 is_stmt 0 view .LVU855
 2455 003a 0020     		movs	r0, #0
 985:Drivers/STM32F4xx_HAL_Driver/Src/stm32f4xx_hal_dma.c **** 
 2456              		.loc 1 985 7 view .LVU856
 2457 003c EEE7     		b	.L160
 2458              	.L165:
 988:Drivers/STM32F4xx_HAL_Driver/Src/stm32f4xx_hal_dma.c ****       break;
 2459              		.loc 1 988 7 is_stmt 1 view .LVU857
 988:Drivers/STM32F4xx_HAL_Driver/Src/stm32f4xx_hal_dma.c ****       break;
 2460              		.loc 1 988 32 is_stmt 0 view .LVU858
 2461 003e 5A64     		str	r2, [r3, #68]
 989:Drivers/STM32F4xx_HAL_Driver/Src/stm32f4xx_hal_dma.c **** 
 2462              		.loc 1 989 7 is_stmt 1 view .LVU859
 970:Drivers/STM32F4xx_HAL_Driver/Src/stm32f4xx_hal_dma.c **** 
 2463              		.loc 1 970 21 is_stmt 0 view .LVU860
 2464 0040 0020     		movs	r0, #0
 989:Drivers/STM32F4xx_HAL_Driver/Src/stm32f4xx_hal_dma.c **** 
 2465              		.loc 1 989 7 view .LVU861
 2466 0042 EBE7     		b	.L160
 2467              	.L164:
 992:Drivers/STM32F4xx_HAL_Driver/Src/stm32f4xx_hal_dma.c ****       break;
 2468              		.loc 1 992 7 is_stmt 1 view .LVU862
 992:Drivers/STM32F4xx_HAL_Driver/Src/stm32f4xx_hal_dma.c ****       break;
 2469              		.loc 1 992 36 is_stmt 0 view .LVU863
 2470 0044 9A64     		str	r2, [r3, #72]
 993:Drivers/STM32F4xx_HAL_Driver/Src/stm32f4xx_hal_dma.c **** 
 2471              		.loc 1 993 7 is_stmt 1 view .LVU864
 970:Drivers/STM32F4xx_HAL_Driver/Src/stm32f4xx_hal_dma.c **** 
 2472              		.loc 1 970 21 is_stmt 0 view .LVU865
 2473 0046 0020     		movs	r0, #0
 993:Drivers/STM32F4xx_HAL_Driver/Src/stm32f4xx_hal_dma.c **** 
 2474              		.loc 1 993 7 view .LVU866
 2475 0048 E8E7     		b	.L160
 2476              	.L163:
 996:Drivers/STM32F4xx_HAL_Driver/Src/stm32f4xx_hal_dma.c ****       break;
 2477              		.loc 1 996 7 is_stmt 1 view .LVU867
 996:Drivers/STM32F4xx_HAL_Driver/Src/stm32f4xx_hal_dma.c ****       break;
 2478              		.loc 1 996 31 is_stmt 0 view .LVU868
 2479 004a DA64     		str	r2, [r3, #76]
 997:Drivers/STM32F4xx_HAL_Driver/Src/stm32f4xx_hal_dma.c **** 
 2480              		.loc 1 997 7 is_stmt 1 view .LVU869
 970:Drivers/STM32F4xx_HAL_Driver/Src/stm32f4xx_hal_dma.c **** 
ARM GAS  C:\Users\hanaj\AppData\Local\Temp\ccOrHUbU.s 			page 81


 2481              		.loc 1 970 21 is_stmt 0 view .LVU870
 2482 004c 0020     		movs	r0, #0
 997:Drivers/STM32F4xx_HAL_Driver/Src/stm32f4xx_hal_dma.c **** 
 2483              		.loc 1 997 7 view .LVU871
 2484 004e E5E7     		b	.L160
 2485              	.L161:
1000:Drivers/STM32F4xx_HAL_Driver/Src/stm32f4xx_hal_dma.c ****       break;
 2486              		.loc 1 1000 7 is_stmt 1 view .LVU872
1000:Drivers/STM32F4xx_HAL_Driver/Src/stm32f4xx_hal_dma.c ****       break;
 2487              		.loc 1 1000 31 is_stmt 0 view .LVU873
 2488 0050 1A65     		str	r2, [r3, #80]
1001:Drivers/STM32F4xx_HAL_Driver/Src/stm32f4xx_hal_dma.c **** 
 2489              		.loc 1 1001 7 is_stmt 1 view .LVU874
 970:Drivers/STM32F4xx_HAL_Driver/Src/stm32f4xx_hal_dma.c **** 
 2490              		.loc 1 970 21 is_stmt 0 view .LVU875
 2491 0052 0020     		movs	r0, #0
1001:Drivers/STM32F4xx_HAL_Driver/Src/stm32f4xx_hal_dma.c **** 
 2492              		.loc 1 1001 7 view .LVU876
 2493 0054 E2E7     		b	.L160
 2494              	.L168:
 973:Drivers/STM32F4xx_HAL_Driver/Src/stm32f4xx_hal_dma.c **** 
 2495              		.loc 1 973 3 discriminator 1 view .LVU877
 2496 0056 0220     		movs	r0, #2
1019:Drivers/STM32F4xx_HAL_Driver/Src/stm32f4xx_hal_dma.c **** 
 2497              		.loc 1 1019 1 view .LVU878
 2498 0058 7047     		bx	lr
 2499              		.cfi_endproc
 2500              	.LFE247:
 2502              		.section	.text.HAL_DMA_UnRegisterCallback,"ax",%progbits
 2503              		.align	1
 2504              		.global	HAL_DMA_UnRegisterCallback
 2505              		.syntax unified
 2506              		.thumb
 2507              		.thumb_func
 2509              	HAL_DMA_UnRegisterCallback:
 2510              	.LVL167:
 2511              	.LFB248:
1030:Drivers/STM32F4xx_HAL_Driver/Src/stm32f4xx_hal_dma.c ****   HAL_StatusTypeDef status = HAL_OK;
 2512              		.loc 1 1030 1 is_stmt 1 view -0
 2513              		.cfi_startproc
 2514              		@ args = 0, pretend = 0, frame = 0
 2515              		@ frame_needed = 0, uses_anonymous_args = 0
 2516              		@ link register save eliminated.
1030:Drivers/STM32F4xx_HAL_Driver/Src/stm32f4xx_hal_dma.c ****   HAL_StatusTypeDef status = HAL_OK;
 2517              		.loc 1 1030 1 is_stmt 0 view .LVU880
 2518 0000 0346     		mov	r3, r0
1031:Drivers/STM32F4xx_HAL_Driver/Src/stm32f4xx_hal_dma.c ****   
 2519              		.loc 1 1031 3 is_stmt 1 view .LVU881
 2520              	.LVL168:
1034:Drivers/STM32F4xx_HAL_Driver/Src/stm32f4xx_hal_dma.c ****   
 2521              		.loc 1 1034 3 view .LVU882
1034:Drivers/STM32F4xx_HAL_Driver/Src/stm32f4xx_hal_dma.c ****   
 2522              		.loc 1 1034 3 view .LVU883
 2523 0002 90F83420 		ldrb	r2, [r0, #52]	@ zero_extendqisi2
 2524 0006 012A     		cmp	r2, #1
 2525 0008 2FD0     		beq	.L183
1034:Drivers/STM32F4xx_HAL_Driver/Src/stm32f4xx_hal_dma.c ****   
ARM GAS  C:\Users\hanaj\AppData\Local\Temp\ccOrHUbU.s 			page 82


 2526              		.loc 1 1034 3 discriminator 2 view .LVU884
 2527 000a 0122     		movs	r2, #1
 2528 000c 80F83420 		strb	r2, [r0, #52]
1034:Drivers/STM32F4xx_HAL_Driver/Src/stm32f4xx_hal_dma.c ****   
 2529              		.loc 1 1034 3 discriminator 2 view .LVU885
1036:Drivers/STM32F4xx_HAL_Driver/Src/stm32f4xx_hal_dma.c ****   {
 2530              		.loc 1 1036 3 view .LVU886
1036:Drivers/STM32F4xx_HAL_Driver/Src/stm32f4xx_hal_dma.c ****   {
 2531              		.loc 1 1036 33 is_stmt 0 view .LVU887
 2532 0010 90F83500 		ldrb	r0, [r0, #53]	@ zero_extendqisi2
 2533              	.LVL169:
1036:Drivers/STM32F4xx_HAL_Driver/Src/stm32f4xx_hal_dma.c ****   {
 2534              		.loc 1 1036 33 view .LVU888
 2535 0014 C0B2     		uxtb	r0, r0
1036:Drivers/STM32F4xx_HAL_Driver/Src/stm32f4xx_hal_dma.c ****   {
 2536              		.loc 1 1036 5 view .LVU889
 2537 0016 9042     		cmp	r0, r2
 2538 0018 04D0     		beq	.L186
1080:Drivers/STM32F4xx_HAL_Driver/Src/stm32f4xx_hal_dma.c ****   }
 2539              		.loc 1 1080 12 view .LVU890
 2540 001a 0120     		movs	r0, #1
 2541              	.L174:
 2542              	.LVL170:
1084:Drivers/STM32F4xx_HAL_Driver/Src/stm32f4xx_hal_dma.c ****   
 2543              		.loc 1 1084 3 is_stmt 1 view .LVU891
1084:Drivers/STM32F4xx_HAL_Driver/Src/stm32f4xx_hal_dma.c ****   
 2544              		.loc 1 1084 3 view .LVU892
 2545 001c 0022     		movs	r2, #0
 2546 001e 83F83420 		strb	r2, [r3, #52]
1084:Drivers/STM32F4xx_HAL_Driver/Src/stm32f4xx_hal_dma.c ****   
 2547              		.loc 1 1084 3 view .LVU893
1086:Drivers/STM32F4xx_HAL_Driver/Src/stm32f4xx_hal_dma.c **** }
 2548              		.loc 1 1086 3 view .LVU894
1086:Drivers/STM32F4xx_HAL_Driver/Src/stm32f4xx_hal_dma.c **** }
 2549              		.loc 1 1086 10 is_stmt 0 view .LVU895
 2550 0022 7047     		bx	lr
 2551              	.LVL171:
 2552              	.L186:
1038:Drivers/STM32F4xx_HAL_Driver/Src/stm32f4xx_hal_dma.c ****     {
 2553              		.loc 1 1038 5 is_stmt 1 view .LVU896
 2554 0024 0629     		cmp	r1, #6
 2555 0026 F9D8     		bhi	.L174
 2556 0028 DFE801F0 		tbb	[pc, r1]
 2557              	.L176:
 2558 002c 04       		.byte	(.L182-.L176)/2
 2559 002d 08       		.byte	(.L181-.L176)/2
 2560 002e 0B       		.byte	(.L180-.L176)/2
 2561 002f 0E       		.byte	(.L179-.L176)/2
 2562 0030 11       		.byte	(.L178-.L176)/2
 2563 0031 14       		.byte	(.L177-.L176)/2
 2564 0032 17       		.byte	(.L175-.L176)/2
 2565 0033 00       		.p2align 1
 2566              	.L182:
1041:Drivers/STM32F4xx_HAL_Driver/Src/stm32f4xx_hal_dma.c ****       break;
 2567              		.loc 1 1041 7 view .LVU897
1041:Drivers/STM32F4xx_HAL_Driver/Src/stm32f4xx_hal_dma.c ****       break;
 2568              		.loc 1 1041 30 is_stmt 0 view .LVU898
ARM GAS  C:\Users\hanaj\AppData\Local\Temp\ccOrHUbU.s 			page 83


 2569 0034 0022     		movs	r2, #0
 2570 0036 DA63     		str	r2, [r3, #60]
1042:Drivers/STM32F4xx_HAL_Driver/Src/stm32f4xx_hal_dma.c ****       
 2571              		.loc 1 1042 7 is_stmt 1 view .LVU899
1031:Drivers/STM32F4xx_HAL_Driver/Src/stm32f4xx_hal_dma.c ****   
 2572              		.loc 1 1031 21 is_stmt 0 view .LVU900
 2573 0038 0846     		mov	r0, r1
1042:Drivers/STM32F4xx_HAL_Driver/Src/stm32f4xx_hal_dma.c ****       
 2574              		.loc 1 1042 7 view .LVU901
 2575 003a EFE7     		b	.L174
 2576              	.L181:
1045:Drivers/STM32F4xx_HAL_Driver/Src/stm32f4xx_hal_dma.c ****       break;
 2577              		.loc 1 1045 7 is_stmt 1 view .LVU902
1045:Drivers/STM32F4xx_HAL_Driver/Src/stm32f4xx_hal_dma.c ****       break;
 2578              		.loc 1 1045 34 is_stmt 0 view .LVU903
 2579 003c 0020     		movs	r0, #0
 2580 003e 1864     		str	r0, [r3, #64]
1046:Drivers/STM32F4xx_HAL_Driver/Src/stm32f4xx_hal_dma.c ****       
 2581              		.loc 1 1046 7 is_stmt 1 view .LVU904
 2582 0040 ECE7     		b	.L174
 2583              	.L180:
1049:Drivers/STM32F4xx_HAL_Driver/Src/stm32f4xx_hal_dma.c ****       break;
 2584              		.loc 1 1049 7 view .LVU905
1049:Drivers/STM32F4xx_HAL_Driver/Src/stm32f4xx_hal_dma.c ****       break;
 2585              		.loc 1 1049 32 is_stmt 0 view .LVU906
 2586 0042 0020     		movs	r0, #0
 2587 0044 5864     		str	r0, [r3, #68]
1050:Drivers/STM32F4xx_HAL_Driver/Src/stm32f4xx_hal_dma.c ****       
 2588              		.loc 1 1050 7 is_stmt 1 view .LVU907
 2589 0046 E9E7     		b	.L174
 2590              	.L179:
1053:Drivers/STM32F4xx_HAL_Driver/Src/stm32f4xx_hal_dma.c ****       break;
 2591              		.loc 1 1053 7 view .LVU908
1053:Drivers/STM32F4xx_HAL_Driver/Src/stm32f4xx_hal_dma.c ****       break;
 2592              		.loc 1 1053 36 is_stmt 0 view .LVU909
 2593 0048 0020     		movs	r0, #0
 2594 004a 9864     		str	r0, [r3, #72]
1054:Drivers/STM32F4xx_HAL_Driver/Src/stm32f4xx_hal_dma.c ****       
 2595              		.loc 1 1054 7 is_stmt 1 view .LVU910
 2596 004c E6E7     		b	.L174
 2597              	.L178:
1057:Drivers/STM32F4xx_HAL_Driver/Src/stm32f4xx_hal_dma.c ****       break;
 2598              		.loc 1 1057 7 view .LVU911
1057:Drivers/STM32F4xx_HAL_Driver/Src/stm32f4xx_hal_dma.c ****       break;
 2599              		.loc 1 1057 31 is_stmt 0 view .LVU912
 2600 004e 0020     		movs	r0, #0
 2601 0050 D864     		str	r0, [r3, #76]
1058:Drivers/STM32F4xx_HAL_Driver/Src/stm32f4xx_hal_dma.c ****       
 2602              		.loc 1 1058 7 is_stmt 1 view .LVU913
 2603 0052 E3E7     		b	.L174
 2604              	.L177:
1061:Drivers/STM32F4xx_HAL_Driver/Src/stm32f4xx_hal_dma.c ****       break; 
 2605              		.loc 1 1061 7 view .LVU914
1061:Drivers/STM32F4xx_HAL_Driver/Src/stm32f4xx_hal_dma.c ****       break; 
 2606              		.loc 1 1061 31 is_stmt 0 view .LVU915
 2607 0054 0020     		movs	r0, #0
 2608 0056 1865     		str	r0, [r3, #80]
ARM GAS  C:\Users\hanaj\AppData\Local\Temp\ccOrHUbU.s 			page 84


1062:Drivers/STM32F4xx_HAL_Driver/Src/stm32f4xx_hal_dma.c ****       
 2609              		.loc 1 1062 7 is_stmt 1 view .LVU916
 2610 0058 E0E7     		b	.L174
 2611              	.L175:
1065:Drivers/STM32F4xx_HAL_Driver/Src/stm32f4xx_hal_dma.c ****       hdma->XferHalfCpltCallback = NULL;
 2612              		.loc 1 1065 7 view .LVU917
1065:Drivers/STM32F4xx_HAL_Driver/Src/stm32f4xx_hal_dma.c ****       hdma->XferHalfCpltCallback = NULL;
 2613              		.loc 1 1065 30 is_stmt 0 view .LVU918
 2614 005a 0020     		movs	r0, #0
 2615 005c D863     		str	r0, [r3, #60]
1066:Drivers/STM32F4xx_HAL_Driver/Src/stm32f4xx_hal_dma.c ****       hdma->XferM1CpltCallback = NULL;
 2616              		.loc 1 1066 7 is_stmt 1 view .LVU919
1066:Drivers/STM32F4xx_HAL_Driver/Src/stm32f4xx_hal_dma.c ****       hdma->XferM1CpltCallback = NULL;
 2617              		.loc 1 1066 34 is_stmt 0 view .LVU920
 2618 005e 1864     		str	r0, [r3, #64]
1067:Drivers/STM32F4xx_HAL_Driver/Src/stm32f4xx_hal_dma.c ****       hdma->XferM1HalfCpltCallback = NULL;
 2619              		.loc 1 1067 7 is_stmt 1 view .LVU921
1067:Drivers/STM32F4xx_HAL_Driver/Src/stm32f4xx_hal_dma.c ****       hdma->XferM1HalfCpltCallback = NULL;
 2620              		.loc 1 1067 32 is_stmt 0 view .LVU922
 2621 0060 5864     		str	r0, [r3, #68]
1068:Drivers/STM32F4xx_HAL_Driver/Src/stm32f4xx_hal_dma.c ****       hdma->XferErrorCallback = NULL;
 2622              		.loc 1 1068 7 is_stmt 1 view .LVU923
1068:Drivers/STM32F4xx_HAL_Driver/Src/stm32f4xx_hal_dma.c ****       hdma->XferErrorCallback = NULL;
 2623              		.loc 1 1068 36 is_stmt 0 view .LVU924
 2624 0062 9864     		str	r0, [r3, #72]
1069:Drivers/STM32F4xx_HAL_Driver/Src/stm32f4xx_hal_dma.c ****       hdma->XferAbortCallback = NULL;
 2625              		.loc 1 1069 7 is_stmt 1 view .LVU925
1069:Drivers/STM32F4xx_HAL_Driver/Src/stm32f4xx_hal_dma.c ****       hdma->XferAbortCallback = NULL;
 2626              		.loc 1 1069 31 is_stmt 0 view .LVU926
 2627 0064 D864     		str	r0, [r3, #76]
1070:Drivers/STM32F4xx_HAL_Driver/Src/stm32f4xx_hal_dma.c ****       break; 
 2628              		.loc 1 1070 7 is_stmt 1 view .LVU927
1070:Drivers/STM32F4xx_HAL_Driver/Src/stm32f4xx_hal_dma.c ****       break; 
 2629              		.loc 1 1070 31 is_stmt 0 view .LVU928
 2630 0066 1865     		str	r0, [r3, #80]
1071:Drivers/STM32F4xx_HAL_Driver/Src/stm32f4xx_hal_dma.c ****       
 2631              		.loc 1 1071 7 is_stmt 1 view .LVU929
 2632 0068 D8E7     		b	.L174
 2633              	.LVL172:
 2634              	.L183:
1034:Drivers/STM32F4xx_HAL_Driver/Src/stm32f4xx_hal_dma.c ****   
 2635              		.loc 1 1034 3 is_stmt 0 discriminator 1 view .LVU930
 2636 006a 0220     		movs	r0, #2
 2637              	.LVL173:
1087:Drivers/STM32F4xx_HAL_Driver/Src/stm32f4xx_hal_dma.c **** 
 2638              		.loc 1 1087 1 view .LVU931
 2639 006c 7047     		bx	lr
 2640              		.cfi_endproc
 2641              	.LFE248:
 2643              		.section	.text.HAL_DMA_GetState,"ax",%progbits
 2644              		.align	1
 2645              		.global	HAL_DMA_GetState
 2646              		.syntax unified
 2647              		.thumb
 2648              		.thumb_func
 2650              	HAL_DMA_GetState:
 2651              	.LVL174:
ARM GAS  C:\Users\hanaj\AppData\Local\Temp\ccOrHUbU.s 			page 85


 2652              	.LFB249:
1115:Drivers/STM32F4xx_HAL_Driver/Src/stm32f4xx_hal_dma.c ****   return hdma->State;
 2653              		.loc 1 1115 1 is_stmt 1 view -0
 2654              		.cfi_startproc
 2655              		@ args = 0, pretend = 0, frame = 0
 2656              		@ frame_needed = 0, uses_anonymous_args = 0
 2657              		@ link register save eliminated.
1116:Drivers/STM32F4xx_HAL_Driver/Src/stm32f4xx_hal_dma.c **** }
 2658              		.loc 1 1116 3 view .LVU933
1116:Drivers/STM32F4xx_HAL_Driver/Src/stm32f4xx_hal_dma.c **** }
 2659              		.loc 1 1116 14 is_stmt 0 view .LVU934
 2660 0000 90F83500 		ldrb	r0, [r0, #53]	@ zero_extendqisi2
 2661              	.LVL175:
1117:Drivers/STM32F4xx_HAL_Driver/Src/stm32f4xx_hal_dma.c **** 
 2662              		.loc 1 1117 1 view .LVU935
 2663 0004 7047     		bx	lr
 2664              		.cfi_endproc
 2665              	.LFE249:
 2667              		.section	.text.HAL_DMA_GetError,"ax",%progbits
 2668              		.align	1
 2669              		.global	HAL_DMA_GetError
 2670              		.syntax unified
 2671              		.thumb
 2672              		.thumb_func
 2674              	HAL_DMA_GetError:
 2675              	.LVL176:
 2676              	.LFB250:
1126:Drivers/STM32F4xx_HAL_Driver/Src/stm32f4xx_hal_dma.c ****   return hdma->ErrorCode;
 2677              		.loc 1 1126 1 is_stmt 1 view -0
 2678              		.cfi_startproc
 2679              		@ args = 0, pretend = 0, frame = 0
 2680              		@ frame_needed = 0, uses_anonymous_args = 0
 2681              		@ link register save eliminated.
1127:Drivers/STM32F4xx_HAL_Driver/Src/stm32f4xx_hal_dma.c **** }
 2682              		.loc 1 1127 3 view .LVU937
1127:Drivers/STM32F4xx_HAL_Driver/Src/stm32f4xx_hal_dma.c **** }
 2683              		.loc 1 1127 14 is_stmt 0 view .LVU938
 2684 0000 406D     		ldr	r0, [r0, #84]
 2685              	.LVL177:
1128:Drivers/STM32F4xx_HAL_Driver/Src/stm32f4xx_hal_dma.c **** 
 2686              		.loc 1 1128 1 view .LVU939
 2687 0002 7047     		bx	lr
 2688              		.cfi_endproc
 2689              	.LFE250:
 2691              		.section	.rodata.flagBitshiftOffset.0,"a"
 2692              		.align	2
 2695              	flagBitshiftOffset.0:
 2696 0000 00061016 		.ascii	"\000\006\020\026\000\006\020\026"
 2696      00061016 
 2697              		.text
 2698              	.Letext0:
 2699              		.file 2 "C:/Tools/arm-gnu-toolchain/arm-none-eabi/include/machine/_default_types.h"
 2700              		.file 3 "C:/Tools/arm-gnu-toolchain/arm-none-eabi/include/sys/_stdint.h"
 2701              		.file 4 "Drivers/CMSIS/Device/ST/STM32F4xx/Include/stm32f405xx.h"
 2702              		.file 5 "Drivers/CMSIS/Device/ST/STM32F4xx/Include/stm32f4xx.h"
 2703              		.file 6 "Drivers/STM32F4xx_HAL_Driver/Inc/stm32f4xx_hal_def.h"
 2704              		.file 7 "Drivers/STM32F4xx_HAL_Driver/Inc/stm32f4xx_hal_dma.h"
ARM GAS  C:\Users\hanaj\AppData\Local\Temp\ccOrHUbU.s 			page 86


 2705              		.file 8 "Drivers/CMSIS/Device/ST/STM32F4xx/Include/system_stm32f4xx.h"
 2706              		.file 9 "Core/Inc/stm32f4xx_hal_conf.h"
 2707              		.file 10 "Drivers/STM32F4xx_HAL_Driver/Inc/stm32f4xx_hal.h"
ARM GAS  C:\Users\hanaj\AppData\Local\Temp\ccOrHUbU.s 			page 87


DEFINED SYMBOLS
                            *ABS*:00000000 stm32f4xx_hal_dma.c
C:\Users\hanaj\AppData\Local\Temp\ccOrHUbU.s:21     .text.DMA_SetConfig:00000000 $t
C:\Users\hanaj\AppData\Local\Temp\ccOrHUbU.s:26     .text.DMA_SetConfig:00000000 DMA_SetConfig
C:\Users\hanaj\AppData\Local\Temp\ccOrHUbU.s:100    .text.DMA_CalcBaseAndBitshift:00000000 $t
C:\Users\hanaj\AppData\Local\Temp\ccOrHUbU.s:105    .text.DMA_CalcBaseAndBitshift:00000000 DMA_CalcBaseAndBitshift
C:\Users\hanaj\AppData\Local\Temp\ccOrHUbU.s:174    .text.DMA_CalcBaseAndBitshift:00000034 $d
C:\Users\hanaj\AppData\Local\Temp\ccOrHUbU.s:2695   .rodata.flagBitshiftOffset.0:00000000 flagBitshiftOffset.0
C:\Users\hanaj\AppData\Local\Temp\ccOrHUbU.s:180    .text.DMA_CheckFifoParam:00000000 $t
C:\Users\hanaj\AppData\Local\Temp\ccOrHUbU.s:185    .text.DMA_CheckFifoParam:00000000 DMA_CheckFifoParam
C:\Users\hanaj\AppData\Local\Temp\ccOrHUbU.s:271    .text.DMA_CheckFifoParam:0000004e $d
C:\Users\hanaj\AppData\Local\Temp\ccOrHUbU.s:275    .text.DMA_CheckFifoParam:00000052 $t
C:\Users\hanaj\AppData\Local\Temp\ccOrHUbU.s:370    .rodata.HAL_DMA_Init.str1.4:00000000 $d
C:\Users\hanaj\AppData\Local\Temp\ccOrHUbU.s:375    .text.HAL_DMA_Init:00000000 $t
C:\Users\hanaj\AppData\Local\Temp\ccOrHUbU.s:381    .text.HAL_DMA_Init:00000000 HAL_DMA_Init
C:\Users\hanaj\AppData\Local\Temp\ccOrHUbU.s:875    .text.HAL_DMA_Init:00000268 $d
C:\Users\hanaj\AppData\Local\Temp\ccOrHUbU.s:882    .text.HAL_DMA_Init:00000274 $t
C:\Users\hanaj\AppData\Local\Temp\ccOrHUbU.s:916    .text.HAL_DMA_DeInit:00000000 $t
C:\Users\hanaj\AppData\Local\Temp\ccOrHUbU.s:922    .text.HAL_DMA_DeInit:00000000 HAL_DMA_DeInit
C:\Users\hanaj\AppData\Local\Temp\ccOrHUbU.s:1124   .text.HAL_DMA_DeInit:000000d4 $d
C:\Users\hanaj\AppData\Local\Temp\ccOrHUbU.s:1130   .text.HAL_DMA_Start:00000000 $t
C:\Users\hanaj\AppData\Local\Temp\ccOrHUbU.s:1136   .text.HAL_DMA_Start:00000000 HAL_DMA_Start
C:\Users\hanaj\AppData\Local\Temp\ccOrHUbU.s:1242   .text.HAL_DMA_Start:00000074 $d
C:\Users\hanaj\AppData\Local\Temp\ccOrHUbU.s:1247   .text.HAL_DMA_Start_IT:00000000 $t
C:\Users\hanaj\AppData\Local\Temp\ccOrHUbU.s:1253   .text.HAL_DMA_Start_IT:00000000 HAL_DMA_Start_IT
C:\Users\hanaj\AppData\Local\Temp\ccOrHUbU.s:1393   .text.HAL_DMA_Start_IT:00000094 $d
C:\Users\hanaj\AppData\Local\Temp\ccOrHUbU.s:1398   .text.HAL_DMA_Abort:00000000 $t
C:\Users\hanaj\AppData\Local\Temp\ccOrHUbU.s:1404   .text.HAL_DMA_Abort:00000000 HAL_DMA_Abort
C:\Users\hanaj\AppData\Local\Temp\ccOrHUbU.s:1561   .text.HAL_DMA_Abort_IT:00000000 $t
C:\Users\hanaj\AppData\Local\Temp\ccOrHUbU.s:1567   .text.HAL_DMA_Abort_IT:00000000 HAL_DMA_Abort_IT
C:\Users\hanaj\AppData\Local\Temp\ccOrHUbU.s:1613   .text.HAL_DMA_PollForTransfer:00000000 $t
C:\Users\hanaj\AppData\Local\Temp\ccOrHUbU.s:1619   .text.HAL_DMA_PollForTransfer:00000000 HAL_DMA_PollForTransfer
C:\Users\hanaj\AppData\Local\Temp\ccOrHUbU.s:1914   .text.HAL_DMA_IRQHandler:00000000 $t
C:\Users\hanaj\AppData\Local\Temp\ccOrHUbU.s:1920   .text.HAL_DMA_IRQHandler:00000000 HAL_DMA_IRQHandler
C:\Users\hanaj\AppData\Local\Temp\ccOrHUbU.s:2370   .text.HAL_DMA_IRQHandler:000001d4 $d
C:\Users\hanaj\AppData\Local\Temp\ccOrHUbU.s:2376   .text.HAL_DMA_RegisterCallback:00000000 $t
C:\Users\hanaj\AppData\Local\Temp\ccOrHUbU.s:2382   .text.HAL_DMA_RegisterCallback:00000000 HAL_DMA_RegisterCallback
C:\Users\hanaj\AppData\Local\Temp\ccOrHUbU.s:2433   .text.HAL_DMA_RegisterCallback:0000002c $d
C:\Users\hanaj\AppData\Local\Temp\ccOrHUbU.s:2439   .text.HAL_DMA_RegisterCallback:00000032 $t
C:\Users\hanaj\AppData\Local\Temp\ccOrHUbU.s:2503   .text.HAL_DMA_UnRegisterCallback:00000000 $t
C:\Users\hanaj\AppData\Local\Temp\ccOrHUbU.s:2509   .text.HAL_DMA_UnRegisterCallback:00000000 HAL_DMA_UnRegisterCallback
C:\Users\hanaj\AppData\Local\Temp\ccOrHUbU.s:2558   .text.HAL_DMA_UnRegisterCallback:0000002c $d
C:\Users\hanaj\AppData\Local\Temp\ccOrHUbU.s:2644   .text.HAL_DMA_GetState:00000000 $t
C:\Users\hanaj\AppData\Local\Temp\ccOrHUbU.s:2650   .text.HAL_DMA_GetState:00000000 HAL_DMA_GetState
C:\Users\hanaj\AppData\Local\Temp\ccOrHUbU.s:2668   .text.HAL_DMA_GetError:00000000 $t
C:\Users\hanaj\AppData\Local\Temp\ccOrHUbU.s:2674   .text.HAL_DMA_GetError:00000000 HAL_DMA_GetError
C:\Users\hanaj\AppData\Local\Temp\ccOrHUbU.s:2692   .rodata.flagBitshiftOffset.0:00000000 $d
C:\Users\hanaj\AppData\Local\Temp\ccOrHUbU.s:2565   .text.HAL_DMA_UnRegisterCallback:00000033 $d
C:\Users\hanaj\AppData\Local\Temp\ccOrHUbU.s:2565   .text.HAL_DMA_UnRegisterCallback:00000034 $t

UNDEFINED SYMBOLS
HAL_GetTick
assert_failed
SystemCoreClock
