ARM GAS  C:\Users\hanaj\AppData\Local\Temp\cc5LldRU.s 			page 1


   1              		.cpu cortex-m4
   2              		.arch armv7e-m
   3              		.fpu fpv4-sp-d16
   4              		.eabi_attribute 27, 1
   5              		.eabi_attribute 28, 1
   6              		.eabi_attribute 20, 1
   7              		.eabi_attribute 21, 1
   8              		.eabi_attribute 23, 3
   9              		.eabi_attribute 24, 1
  10              		.eabi_attribute 25, 1
  11              		.eabi_attribute 26, 1
  12              		.eabi_attribute 30, 1
  13              		.eabi_attribute 34, 1
  14              		.eabi_attribute 18, 4
  15              		.file	"stm32f4xx_hal_exti.c"
  16              		.text
  17              	.Ltext0:
  18              		.cfi_sections	.debug_frame
  19              		.file 1 "Drivers/STM32F4xx_HAL_Driver/Src/stm32f4xx_hal_exti.c"
  20              		.section	.rodata.HAL_EXTI_SetConfigLine.str1.4,"aMS",%progbits,1
  21              		.align	2
  22              	.LC0:
  23 0000 44726976 		.ascii	"Drivers/STM32F4xx_HAL_Driver/Src/stm32f4xx_hal_exti"
  23      6572732F 
  23      53544D33 
  23      32463478 
  23      785F4841 
  24 0033 2E6300   		.ascii	".c\000"
  25              		.section	.text.HAL_EXTI_SetConfigLine,"ax",%progbits
  26              		.align	1
  27              		.global	HAL_EXTI_SetConfigLine
  28              		.syntax unified
  29              		.thumb
  30              		.thumb_func
  32              	HAL_EXTI_SetConfigLine:
  33              	.LVL0:
  34              	.LFB239:
   1:Drivers/STM32F4xx_HAL_Driver/Src/stm32f4xx_hal_exti.c **** /**
   2:Drivers/STM32F4xx_HAL_Driver/Src/stm32f4xx_hal_exti.c ****   ******************************************************************************
   3:Drivers/STM32F4xx_HAL_Driver/Src/stm32f4xx_hal_exti.c ****   * @file    stm32f4xx_hal_exti.c
   4:Drivers/STM32F4xx_HAL_Driver/Src/stm32f4xx_hal_exti.c ****   * @author  MCD Application Team
   5:Drivers/STM32F4xx_HAL_Driver/Src/stm32f4xx_hal_exti.c ****   * @brief   EXTI HAL module driver.
   6:Drivers/STM32F4xx_HAL_Driver/Src/stm32f4xx_hal_exti.c ****   *          This file provides firmware functions to manage the following
   7:Drivers/STM32F4xx_HAL_Driver/Src/stm32f4xx_hal_exti.c ****   *          functionalities of the Extended Interrupts and events controller (EXTI) peripheral:
   8:Drivers/STM32F4xx_HAL_Driver/Src/stm32f4xx_hal_exti.c ****   *           + Initialization and de-initialization functions
   9:Drivers/STM32F4xx_HAL_Driver/Src/stm32f4xx_hal_exti.c ****   *           + IO operation functions
  10:Drivers/STM32F4xx_HAL_Driver/Src/stm32f4xx_hal_exti.c ****   *
  11:Drivers/STM32F4xx_HAL_Driver/Src/stm32f4xx_hal_exti.c ****   ******************************************************************************
  12:Drivers/STM32F4xx_HAL_Driver/Src/stm32f4xx_hal_exti.c ****   * @attention
  13:Drivers/STM32F4xx_HAL_Driver/Src/stm32f4xx_hal_exti.c ****   *
  14:Drivers/STM32F4xx_HAL_Driver/Src/stm32f4xx_hal_exti.c ****   * Copyright (c) 2018 STMicroelectronics.
  15:Drivers/STM32F4xx_HAL_Driver/Src/stm32f4xx_hal_exti.c ****   * All rights reserved.
  16:Drivers/STM32F4xx_HAL_Driver/Src/stm32f4xx_hal_exti.c ****   *
  17:Drivers/STM32F4xx_HAL_Driver/Src/stm32f4xx_hal_exti.c ****   * This software is licensed under terms that can be found in the LICENSE file
  18:Drivers/STM32F4xx_HAL_Driver/Src/stm32f4xx_hal_exti.c ****   * in the root directory of this software component.
  19:Drivers/STM32F4xx_HAL_Driver/Src/stm32f4xx_hal_exti.c ****   * If no LICENSE file comes with this software, it is provided AS-IS.
  20:Drivers/STM32F4xx_HAL_Driver/Src/stm32f4xx_hal_exti.c ****   *
ARM GAS  C:\Users\hanaj\AppData\Local\Temp\cc5LldRU.s 			page 2


  21:Drivers/STM32F4xx_HAL_Driver/Src/stm32f4xx_hal_exti.c ****   ******************************************************************************
  22:Drivers/STM32F4xx_HAL_Driver/Src/stm32f4xx_hal_exti.c ****   @verbatim
  23:Drivers/STM32F4xx_HAL_Driver/Src/stm32f4xx_hal_exti.c ****   ==============================================================================
  24:Drivers/STM32F4xx_HAL_Driver/Src/stm32f4xx_hal_exti.c ****                     ##### EXTI Peripheral features #####
  25:Drivers/STM32F4xx_HAL_Driver/Src/stm32f4xx_hal_exti.c ****   ==============================================================================
  26:Drivers/STM32F4xx_HAL_Driver/Src/stm32f4xx_hal_exti.c ****   [..]
  27:Drivers/STM32F4xx_HAL_Driver/Src/stm32f4xx_hal_exti.c ****     (+) Each Exti line can be configured within this driver.
  28:Drivers/STM32F4xx_HAL_Driver/Src/stm32f4xx_hal_exti.c **** 
  29:Drivers/STM32F4xx_HAL_Driver/Src/stm32f4xx_hal_exti.c ****     (+) Exti line can be configured in 3 different modes
  30:Drivers/STM32F4xx_HAL_Driver/Src/stm32f4xx_hal_exti.c ****         (++) Interrupt
  31:Drivers/STM32F4xx_HAL_Driver/Src/stm32f4xx_hal_exti.c ****         (++) Event
  32:Drivers/STM32F4xx_HAL_Driver/Src/stm32f4xx_hal_exti.c ****         (++) Both of them
  33:Drivers/STM32F4xx_HAL_Driver/Src/stm32f4xx_hal_exti.c **** 
  34:Drivers/STM32F4xx_HAL_Driver/Src/stm32f4xx_hal_exti.c ****     (+) Configurable Exti lines can be configured with 3 different triggers
  35:Drivers/STM32F4xx_HAL_Driver/Src/stm32f4xx_hal_exti.c ****         (++) Rising
  36:Drivers/STM32F4xx_HAL_Driver/Src/stm32f4xx_hal_exti.c ****         (++) Falling
  37:Drivers/STM32F4xx_HAL_Driver/Src/stm32f4xx_hal_exti.c ****         (++) Both of them
  38:Drivers/STM32F4xx_HAL_Driver/Src/stm32f4xx_hal_exti.c **** 
  39:Drivers/STM32F4xx_HAL_Driver/Src/stm32f4xx_hal_exti.c ****     (+) When set in interrupt mode, configurable Exti lines have two different
  40:Drivers/STM32F4xx_HAL_Driver/Src/stm32f4xx_hal_exti.c ****         interrupts pending registers which allow to distinguish which transition
  41:Drivers/STM32F4xx_HAL_Driver/Src/stm32f4xx_hal_exti.c ****         occurs:
  42:Drivers/STM32F4xx_HAL_Driver/Src/stm32f4xx_hal_exti.c ****         (++) Rising edge pending interrupt
  43:Drivers/STM32F4xx_HAL_Driver/Src/stm32f4xx_hal_exti.c ****         (++) Falling
  44:Drivers/STM32F4xx_HAL_Driver/Src/stm32f4xx_hal_exti.c **** 
  45:Drivers/STM32F4xx_HAL_Driver/Src/stm32f4xx_hal_exti.c ****     (+) Exti lines 0 to 15 are linked to gpio pin number 0 to 15. Gpio port can
  46:Drivers/STM32F4xx_HAL_Driver/Src/stm32f4xx_hal_exti.c ****         be selected through multiplexer.
  47:Drivers/STM32F4xx_HAL_Driver/Src/stm32f4xx_hal_exti.c **** 
  48:Drivers/STM32F4xx_HAL_Driver/Src/stm32f4xx_hal_exti.c ****                      ##### How to use this driver #####
  49:Drivers/STM32F4xx_HAL_Driver/Src/stm32f4xx_hal_exti.c ****   ==============================================================================
  50:Drivers/STM32F4xx_HAL_Driver/Src/stm32f4xx_hal_exti.c ****   [..]
  51:Drivers/STM32F4xx_HAL_Driver/Src/stm32f4xx_hal_exti.c **** 
  52:Drivers/STM32F4xx_HAL_Driver/Src/stm32f4xx_hal_exti.c ****     (#) Configure the EXTI line using HAL_EXTI_SetConfigLine().
  53:Drivers/STM32F4xx_HAL_Driver/Src/stm32f4xx_hal_exti.c ****         (++) Choose the interrupt line number by setting "Line" member from
  54:Drivers/STM32F4xx_HAL_Driver/Src/stm32f4xx_hal_exti.c ****              EXTI_ConfigTypeDef structure.
  55:Drivers/STM32F4xx_HAL_Driver/Src/stm32f4xx_hal_exti.c ****         (++) Configure the interrupt and/or event mode using "Mode" member from
  56:Drivers/STM32F4xx_HAL_Driver/Src/stm32f4xx_hal_exti.c ****              EXTI_ConfigTypeDef structure.
  57:Drivers/STM32F4xx_HAL_Driver/Src/stm32f4xx_hal_exti.c ****         (++) For configurable lines, configure rising and/or falling trigger
  58:Drivers/STM32F4xx_HAL_Driver/Src/stm32f4xx_hal_exti.c ****              "Trigger" member from EXTI_ConfigTypeDef structure.
  59:Drivers/STM32F4xx_HAL_Driver/Src/stm32f4xx_hal_exti.c ****         (++) For Exti lines linked to gpio, choose gpio port using "GPIOSel"
  60:Drivers/STM32F4xx_HAL_Driver/Src/stm32f4xx_hal_exti.c ****              member from GPIO_InitTypeDef structure.
  61:Drivers/STM32F4xx_HAL_Driver/Src/stm32f4xx_hal_exti.c **** 
  62:Drivers/STM32F4xx_HAL_Driver/Src/stm32f4xx_hal_exti.c ****     (#) Get current Exti configuration of a dedicated line using
  63:Drivers/STM32F4xx_HAL_Driver/Src/stm32f4xx_hal_exti.c ****         HAL_EXTI_GetConfigLine().
  64:Drivers/STM32F4xx_HAL_Driver/Src/stm32f4xx_hal_exti.c ****         (++) Provide exiting handle as parameter.
  65:Drivers/STM32F4xx_HAL_Driver/Src/stm32f4xx_hal_exti.c ****         (++) Provide pointer on EXTI_ConfigTypeDef structure as second parameter.
  66:Drivers/STM32F4xx_HAL_Driver/Src/stm32f4xx_hal_exti.c **** 
  67:Drivers/STM32F4xx_HAL_Driver/Src/stm32f4xx_hal_exti.c ****     (#) Clear Exti configuration of a dedicated line using HAL_EXTI_ClearConfigLine().
  68:Drivers/STM32F4xx_HAL_Driver/Src/stm32f4xx_hal_exti.c ****         (++) Provide exiting handle as parameter.
  69:Drivers/STM32F4xx_HAL_Driver/Src/stm32f4xx_hal_exti.c **** 
  70:Drivers/STM32F4xx_HAL_Driver/Src/stm32f4xx_hal_exti.c ****     (#) Register callback to treat Exti interrupts using HAL_EXTI_RegisterCallback().
  71:Drivers/STM32F4xx_HAL_Driver/Src/stm32f4xx_hal_exti.c ****         (++) Provide exiting handle as first parameter.
  72:Drivers/STM32F4xx_HAL_Driver/Src/stm32f4xx_hal_exti.c ****         (++) Provide which callback will be registered using one value from
  73:Drivers/STM32F4xx_HAL_Driver/Src/stm32f4xx_hal_exti.c ****              EXTI_CallbackIDTypeDef.
  74:Drivers/STM32F4xx_HAL_Driver/Src/stm32f4xx_hal_exti.c ****         (++) Provide callback function pointer.
  75:Drivers/STM32F4xx_HAL_Driver/Src/stm32f4xx_hal_exti.c **** 
  76:Drivers/STM32F4xx_HAL_Driver/Src/stm32f4xx_hal_exti.c ****     (#) Get interrupt pending bit using HAL_EXTI_GetPending().
  77:Drivers/STM32F4xx_HAL_Driver/Src/stm32f4xx_hal_exti.c **** 
ARM GAS  C:\Users\hanaj\AppData\Local\Temp\cc5LldRU.s 			page 3


  78:Drivers/STM32F4xx_HAL_Driver/Src/stm32f4xx_hal_exti.c ****     (#) Clear interrupt pending bit using HAL_EXTI_ClearPending().
  79:Drivers/STM32F4xx_HAL_Driver/Src/stm32f4xx_hal_exti.c **** 
  80:Drivers/STM32F4xx_HAL_Driver/Src/stm32f4xx_hal_exti.c ****     (#) Generate software interrupt using HAL_EXTI_GenerateSWI().
  81:Drivers/STM32F4xx_HAL_Driver/Src/stm32f4xx_hal_exti.c **** 
  82:Drivers/STM32F4xx_HAL_Driver/Src/stm32f4xx_hal_exti.c ****   @endverbatim
  83:Drivers/STM32F4xx_HAL_Driver/Src/stm32f4xx_hal_exti.c ****   */
  84:Drivers/STM32F4xx_HAL_Driver/Src/stm32f4xx_hal_exti.c **** 
  85:Drivers/STM32F4xx_HAL_Driver/Src/stm32f4xx_hal_exti.c **** /* Includes ------------------------------------------------------------------*/
  86:Drivers/STM32F4xx_HAL_Driver/Src/stm32f4xx_hal_exti.c **** #include "stm32f4xx_hal.h"
  87:Drivers/STM32F4xx_HAL_Driver/Src/stm32f4xx_hal_exti.c **** 
  88:Drivers/STM32F4xx_HAL_Driver/Src/stm32f4xx_hal_exti.c **** /** @addtogroup STM32F4xx_HAL_Driver
  89:Drivers/STM32F4xx_HAL_Driver/Src/stm32f4xx_hal_exti.c ****   * @{
  90:Drivers/STM32F4xx_HAL_Driver/Src/stm32f4xx_hal_exti.c ****   */
  91:Drivers/STM32F4xx_HAL_Driver/Src/stm32f4xx_hal_exti.c **** 
  92:Drivers/STM32F4xx_HAL_Driver/Src/stm32f4xx_hal_exti.c **** /** @addtogroup EXTI
  93:Drivers/STM32F4xx_HAL_Driver/Src/stm32f4xx_hal_exti.c ****   * @{
  94:Drivers/STM32F4xx_HAL_Driver/Src/stm32f4xx_hal_exti.c ****   */
  95:Drivers/STM32F4xx_HAL_Driver/Src/stm32f4xx_hal_exti.c **** /** MISRA C:2012 deviation rule has been granted for following rule:
  96:Drivers/STM32F4xx_HAL_Driver/Src/stm32f4xx_hal_exti.c ****   * Rule-18.1_b - Medium: Array `EXTICR' 1st subscript interval [0,7] may be out
  97:Drivers/STM32F4xx_HAL_Driver/Src/stm32f4xx_hal_exti.c ****   * of bounds [0,3] in following API :
  98:Drivers/STM32F4xx_HAL_Driver/Src/stm32f4xx_hal_exti.c ****   * HAL_EXTI_SetConfigLine
  99:Drivers/STM32F4xx_HAL_Driver/Src/stm32f4xx_hal_exti.c ****   * HAL_EXTI_GetConfigLine
 100:Drivers/STM32F4xx_HAL_Driver/Src/stm32f4xx_hal_exti.c ****   * HAL_EXTI_ClearConfigLine
 101:Drivers/STM32F4xx_HAL_Driver/Src/stm32f4xx_hal_exti.c ****   */
 102:Drivers/STM32F4xx_HAL_Driver/Src/stm32f4xx_hal_exti.c **** 
 103:Drivers/STM32F4xx_HAL_Driver/Src/stm32f4xx_hal_exti.c **** #ifdef HAL_EXTI_MODULE_ENABLED
 104:Drivers/STM32F4xx_HAL_Driver/Src/stm32f4xx_hal_exti.c **** 
 105:Drivers/STM32F4xx_HAL_Driver/Src/stm32f4xx_hal_exti.c **** /* Private typedef -----------------------------------------------------------*/
 106:Drivers/STM32F4xx_HAL_Driver/Src/stm32f4xx_hal_exti.c **** /* Private defines -----------------------------------------------------------*/
 107:Drivers/STM32F4xx_HAL_Driver/Src/stm32f4xx_hal_exti.c **** /** @defgroup EXTI_Private_Constants EXTI Private Constants
 108:Drivers/STM32F4xx_HAL_Driver/Src/stm32f4xx_hal_exti.c ****   * @{
 109:Drivers/STM32F4xx_HAL_Driver/Src/stm32f4xx_hal_exti.c ****   */
 110:Drivers/STM32F4xx_HAL_Driver/Src/stm32f4xx_hal_exti.c **** 
 111:Drivers/STM32F4xx_HAL_Driver/Src/stm32f4xx_hal_exti.c **** /**
 112:Drivers/STM32F4xx_HAL_Driver/Src/stm32f4xx_hal_exti.c ****   * @}
 113:Drivers/STM32F4xx_HAL_Driver/Src/stm32f4xx_hal_exti.c ****   */
 114:Drivers/STM32F4xx_HAL_Driver/Src/stm32f4xx_hal_exti.c **** 
 115:Drivers/STM32F4xx_HAL_Driver/Src/stm32f4xx_hal_exti.c **** /* Private macros ------------------------------------------------------------*/
 116:Drivers/STM32F4xx_HAL_Driver/Src/stm32f4xx_hal_exti.c **** /* Private variables ---------------------------------------------------------*/
 117:Drivers/STM32F4xx_HAL_Driver/Src/stm32f4xx_hal_exti.c **** /* Private function prototypes -----------------------------------------------*/
 118:Drivers/STM32F4xx_HAL_Driver/Src/stm32f4xx_hal_exti.c **** /* Exported functions --------------------------------------------------------*/
 119:Drivers/STM32F4xx_HAL_Driver/Src/stm32f4xx_hal_exti.c **** 
 120:Drivers/STM32F4xx_HAL_Driver/Src/stm32f4xx_hal_exti.c **** /** @addtogroup EXTI_Exported_Functions
 121:Drivers/STM32F4xx_HAL_Driver/Src/stm32f4xx_hal_exti.c ****   * @{
 122:Drivers/STM32F4xx_HAL_Driver/Src/stm32f4xx_hal_exti.c ****   */
 123:Drivers/STM32F4xx_HAL_Driver/Src/stm32f4xx_hal_exti.c **** 
 124:Drivers/STM32F4xx_HAL_Driver/Src/stm32f4xx_hal_exti.c **** /** @addtogroup EXTI_Exported_Functions_Group1
 125:Drivers/STM32F4xx_HAL_Driver/Src/stm32f4xx_hal_exti.c ****   *  @brief    Configuration functions
 126:Drivers/STM32F4xx_HAL_Driver/Src/stm32f4xx_hal_exti.c ****   *
 127:Drivers/STM32F4xx_HAL_Driver/Src/stm32f4xx_hal_exti.c **** @verbatim
 128:Drivers/STM32F4xx_HAL_Driver/Src/stm32f4xx_hal_exti.c ****  ===============================================================================
 129:Drivers/STM32F4xx_HAL_Driver/Src/stm32f4xx_hal_exti.c ****               ##### Configuration functions #####
 130:Drivers/STM32F4xx_HAL_Driver/Src/stm32f4xx_hal_exti.c ****  ===============================================================================
 131:Drivers/STM32F4xx_HAL_Driver/Src/stm32f4xx_hal_exti.c **** 
 132:Drivers/STM32F4xx_HAL_Driver/Src/stm32f4xx_hal_exti.c **** @endverbatim
 133:Drivers/STM32F4xx_HAL_Driver/Src/stm32f4xx_hal_exti.c ****   * @{
 134:Drivers/STM32F4xx_HAL_Driver/Src/stm32f4xx_hal_exti.c ****   */
ARM GAS  C:\Users\hanaj\AppData\Local\Temp\cc5LldRU.s 			page 4


 135:Drivers/STM32F4xx_HAL_Driver/Src/stm32f4xx_hal_exti.c **** 
 136:Drivers/STM32F4xx_HAL_Driver/Src/stm32f4xx_hal_exti.c **** /**
 137:Drivers/STM32F4xx_HAL_Driver/Src/stm32f4xx_hal_exti.c ****   * @brief  Set configuration of a dedicated Exti line.
 138:Drivers/STM32F4xx_HAL_Driver/Src/stm32f4xx_hal_exti.c ****   * @param  hexti Exti handle.
 139:Drivers/STM32F4xx_HAL_Driver/Src/stm32f4xx_hal_exti.c ****   * @param  pExtiConfig Pointer on EXTI configuration to be set.
 140:Drivers/STM32F4xx_HAL_Driver/Src/stm32f4xx_hal_exti.c ****   * @retval HAL Status.
 141:Drivers/STM32F4xx_HAL_Driver/Src/stm32f4xx_hal_exti.c ****   */
 142:Drivers/STM32F4xx_HAL_Driver/Src/stm32f4xx_hal_exti.c **** HAL_StatusTypeDef HAL_EXTI_SetConfigLine(EXTI_HandleTypeDef *hexti, EXTI_ConfigTypeDef *pExtiConfig
 143:Drivers/STM32F4xx_HAL_Driver/Src/stm32f4xx_hal_exti.c **** {
  35              		.loc 1 143 1 view -0
  36              		.cfi_startproc
  37              		@ args = 0, pretend = 0, frame = 0
  38              		@ frame_needed = 0, uses_anonymous_args = 0
 144:Drivers/STM32F4xx_HAL_Driver/Src/stm32f4xx_hal_exti.c ****   uint32_t regval;
  39              		.loc 1 144 3 view .LVU1
 145:Drivers/STM32F4xx_HAL_Driver/Src/stm32f4xx_hal_exti.c ****   uint32_t linepos;
  40              		.loc 1 145 3 view .LVU2
 146:Drivers/STM32F4xx_HAL_Driver/Src/stm32f4xx_hal_exti.c ****   uint32_t maskline;
  41              		.loc 1 146 3 view .LVU3
 147:Drivers/STM32F4xx_HAL_Driver/Src/stm32f4xx_hal_exti.c **** 
 148:Drivers/STM32F4xx_HAL_Driver/Src/stm32f4xx_hal_exti.c ****   /* Check null pointer */
 149:Drivers/STM32F4xx_HAL_Driver/Src/stm32f4xx_hal_exti.c ****   if ((hexti == NULL) || (pExtiConfig == NULL))
  42              		.loc 1 149 3 view .LVU4
  43              		.loc 1 149 6 is_stmt 0 view .LVU5
  44 0000 0028     		cmp	r0, #0
  45 0002 00F09B80 		beq	.L19
 143:Drivers/STM32F4xx_HAL_Driver/Src/stm32f4xx_hal_exti.c ****   uint32_t regval;
  46              		.loc 1 143 1 view .LVU6
  47 0006 F8B5     		push	{r3, r4, r5, r6, r7, lr}
  48              	.LCFI0:
  49              		.cfi_def_cfa_offset 24
  50              		.cfi_offset 3, -24
  51              		.cfi_offset 4, -20
  52              		.cfi_offset 5, -16
  53              		.cfi_offset 6, -12
  54              		.cfi_offset 7, -8
  55              		.cfi_offset 14, -4
  56 0008 0C46     		mov	r4, r1
  57 000a 0546     		mov	r5, r0
  58              		.loc 1 149 23 discriminator 1 view .LVU7
  59 000c 0029     		cmp	r1, #0
  60 000e 00F09780 		beq	.L20
 150:Drivers/STM32F4xx_HAL_Driver/Src/stm32f4xx_hal_exti.c ****   {
 151:Drivers/STM32F4xx_HAL_Driver/Src/stm32f4xx_hal_exti.c ****     return HAL_ERROR;
 152:Drivers/STM32F4xx_HAL_Driver/Src/stm32f4xx_hal_exti.c ****   }
 153:Drivers/STM32F4xx_HAL_Driver/Src/stm32f4xx_hal_exti.c **** 
 154:Drivers/STM32F4xx_HAL_Driver/Src/stm32f4xx_hal_exti.c ****   /* Check parameters */
 155:Drivers/STM32F4xx_HAL_Driver/Src/stm32f4xx_hal_exti.c ****   assert_param(IS_EXTI_LINE(pExtiConfig->Line));
  61              		.loc 1 155 3 is_stmt 1 view .LVU8
  62 0012 0A68     		ldr	r2, [r1]
  63 0014 22F0C063 		bic	r3, r2, #100663296
  64 0018 23F01F03 		bic	r3, r3, #31
  65 001c 3BB9     		cbnz	r3, .L3
  66              		.loc 1 155 3 is_stmt 0 discriminator 2 view .LVU9
  67 001e 02F0C063 		and	r3, r2, #100663296
  68 0022 B3F1007F 		cmp	r3, #33554432
  69 0026 44D0     		beq	.L4
ARM GAS  C:\Users\hanaj\AppData\Local\Temp\cc5LldRU.s 			page 5


  70              		.loc 1 155 3 discriminator 3 view .LVU10
  71 0028 B3F1C06F 		cmp	r3, #100663296
  72 002c 41D0     		beq	.L4
  73              	.L3:
  74              		.loc 1 155 3 discriminator 7 view .LVU11
  75 002e 9B21     		movs	r1, #155
  76              	.LVL1:
  77              		.loc 1 155 3 discriminator 7 view .LVU12
  78 0030 4448     		ldr	r0, .L29
  79              	.LVL2:
  80              		.loc 1 155 3 discriminator 7 view .LVU13
  81 0032 FFF7FEFF 		bl	assert_failed
  82              	.LVL3:
  83              	.L5:
 156:Drivers/STM32F4xx_HAL_Driver/Src/stm32f4xx_hal_exti.c ****   assert_param(IS_EXTI_MODE(pExtiConfig->Mode));
  84              		.loc 1 156 3 is_stmt 1 view .LVU14
  85 0036 6368     		ldr	r3, [r4, #4]
  86 0038 13F0030F 		tst	r3, #3
  87 003c 01D0     		beq	.L6
  88              		.loc 1 156 3 is_stmt 0 discriminator 2 view .LVU15
  89 003e 032B     		cmp	r3, #3
  90 0040 03D9     		bls	.L7
  91              	.L6:
  92              		.loc 1 156 3 discriminator 3 view .LVU16
  93 0042 9C21     		movs	r1, #156
  94 0044 3F48     		ldr	r0, .L29
  95 0046 FFF7FEFF 		bl	assert_failed
  96              	.LVL4:
  97              	.L7:
 157:Drivers/STM32F4xx_HAL_Driver/Src/stm32f4xx_hal_exti.c **** 
 158:Drivers/STM32F4xx_HAL_Driver/Src/stm32f4xx_hal_exti.c ****   /* Assign line number to handle */
 159:Drivers/STM32F4xx_HAL_Driver/Src/stm32f4xx_hal_exti.c ****   hexti->Line = pExtiConfig->Line;
  98              		.loc 1 159 3 is_stmt 1 view .LVU17
  99              		.loc 1 159 28 is_stmt 0 view .LVU18
 100 004a 2668     		ldr	r6, [r4]
 101              		.loc 1 159 15 view .LVU19
 102 004c 2E60     		str	r6, [r5]
 160:Drivers/STM32F4xx_HAL_Driver/Src/stm32f4xx_hal_exti.c **** 
 161:Drivers/STM32F4xx_HAL_Driver/Src/stm32f4xx_hal_exti.c ****   /* Compute line mask */
 162:Drivers/STM32F4xx_HAL_Driver/Src/stm32f4xx_hal_exti.c ****   linepos = (pExtiConfig->Line & EXTI_PIN_MASK);
 103              		.loc 1 162 3 is_stmt 1 view .LVU20
 104              		.loc 1 162 11 is_stmt 0 view .LVU21
 105 004e 06F01F07 		and	r7, r6, #31
 106              	.LVL5:
 163:Drivers/STM32F4xx_HAL_Driver/Src/stm32f4xx_hal_exti.c ****   maskline = (1uL << linepos);
 107              		.loc 1 163 3 is_stmt 1 view .LVU22
 108              		.loc 1 163 12 is_stmt 0 view .LVU23
 109 0052 0125     		movs	r5, #1
 110              	.LVL6:
 111              		.loc 1 163 12 view .LVU24
 112 0054 BD40     		lsls	r5, r5, r7
 113              	.LVL7:
 164:Drivers/STM32F4xx_HAL_Driver/Src/stm32f4xx_hal_exti.c **** 
 165:Drivers/STM32F4xx_HAL_Driver/Src/stm32f4xx_hal_exti.c ****   /* Configure triggers for configurable lines */
 166:Drivers/STM32F4xx_HAL_Driver/Src/stm32f4xx_hal_exti.c ****   if ((pExtiConfig->Line & EXTI_CONFIG) != 0x00u)
 114              		.loc 1 166 3 is_stmt 1 view .LVU25
 115              		.loc 1 166 6 is_stmt 0 view .LVU26
ARM GAS  C:\Users\hanaj\AppData\Local\Temp\cc5LldRU.s 			page 6


 116 0056 16F0007F 		tst	r6, #33554432
 117 005a 18D0     		beq	.L8
 167:Drivers/STM32F4xx_HAL_Driver/Src/stm32f4xx_hal_exti.c ****   {
 168:Drivers/STM32F4xx_HAL_Driver/Src/stm32f4xx_hal_exti.c ****     assert_param(IS_EXTI_TRIGGER(pExtiConfig->Trigger));
 118              		.loc 1 168 5 is_stmt 1 view .LVU27
 119 005c A368     		ldr	r3, [r4, #8]
 120 005e 032B     		cmp	r3, #3
 121 0060 2CD8     		bhi	.L25
 122              	.L9:
 169:Drivers/STM32F4xx_HAL_Driver/Src/stm32f4xx_hal_exti.c **** 
 170:Drivers/STM32F4xx_HAL_Driver/Src/stm32f4xx_hal_exti.c ****     /* Configure rising trigger */
 171:Drivers/STM32F4xx_HAL_Driver/Src/stm32f4xx_hal_exti.c ****     /* Mask or set line */
 172:Drivers/STM32F4xx_HAL_Driver/Src/stm32f4xx_hal_exti.c ****     if ((pExtiConfig->Trigger & EXTI_TRIGGER_RISING) != 0x00u)
 123              		.loc 1 172 5 view .LVU28
 124              		.loc 1 172 21 is_stmt 0 view .LVU29
 125 0062 A368     		ldr	r3, [r4, #8]
 126              		.loc 1 172 8 view .LVU30
 127 0064 13F0010F 		tst	r3, #1
 128 0068 2DD0     		beq	.L10
 173:Drivers/STM32F4xx_HAL_Driver/Src/stm32f4xx_hal_exti.c ****     {
 174:Drivers/STM32F4xx_HAL_Driver/Src/stm32f4xx_hal_exti.c ****       EXTI->RTSR |= maskline;
 129              		.loc 1 174 7 is_stmt 1 view .LVU31
 130              		.loc 1 174 11 is_stmt 0 view .LVU32
 131 006a 374A     		ldr	r2, .L29+4
 132 006c 9368     		ldr	r3, [r2, #8]
 133              		.loc 1 174 18 view .LVU33
 134 006e 2B43     		orrs	r3, r3, r5
 135 0070 9360     		str	r3, [r2, #8]
 136              	.L11:
 175:Drivers/STM32F4xx_HAL_Driver/Src/stm32f4xx_hal_exti.c ****     }
 176:Drivers/STM32F4xx_HAL_Driver/Src/stm32f4xx_hal_exti.c ****     else
 177:Drivers/STM32F4xx_HAL_Driver/Src/stm32f4xx_hal_exti.c ****     {
 178:Drivers/STM32F4xx_HAL_Driver/Src/stm32f4xx_hal_exti.c ****       EXTI->RTSR &= ~maskline;
 179:Drivers/STM32F4xx_HAL_Driver/Src/stm32f4xx_hal_exti.c ****     }
 180:Drivers/STM32F4xx_HAL_Driver/Src/stm32f4xx_hal_exti.c **** 
 181:Drivers/STM32F4xx_HAL_Driver/Src/stm32f4xx_hal_exti.c ****     /* Configure falling trigger */
 182:Drivers/STM32F4xx_HAL_Driver/Src/stm32f4xx_hal_exti.c ****     /* Mask or set line */
 183:Drivers/STM32F4xx_HAL_Driver/Src/stm32f4xx_hal_exti.c ****     if ((pExtiConfig->Trigger & EXTI_TRIGGER_FALLING) != 0x00u)
 137              		.loc 1 183 5 is_stmt 1 view .LVU34
 138              		.loc 1 183 21 is_stmt 0 view .LVU35
 139 0072 A368     		ldr	r3, [r4, #8]
 140              		.loc 1 183 8 view .LVU36
 141 0074 13F0020F 		tst	r3, #2
 142 0078 2BD0     		beq	.L12
 184:Drivers/STM32F4xx_HAL_Driver/Src/stm32f4xx_hal_exti.c ****     {
 185:Drivers/STM32F4xx_HAL_Driver/Src/stm32f4xx_hal_exti.c ****       EXTI->FTSR |= maskline;
 143              		.loc 1 185 7 is_stmt 1 view .LVU37
 144              		.loc 1 185 11 is_stmt 0 view .LVU38
 145 007a 334A     		ldr	r2, .L29+4
 146 007c D368     		ldr	r3, [r2, #12]
 147              		.loc 1 185 18 view .LVU39
 148 007e 2B43     		orrs	r3, r3, r5
 149 0080 D360     		str	r3, [r2, #12]
 150              	.L13:
 186:Drivers/STM32F4xx_HAL_Driver/Src/stm32f4xx_hal_exti.c ****     }
 187:Drivers/STM32F4xx_HAL_Driver/Src/stm32f4xx_hal_exti.c ****     else
 188:Drivers/STM32F4xx_HAL_Driver/Src/stm32f4xx_hal_exti.c ****     {
ARM GAS  C:\Users\hanaj\AppData\Local\Temp\cc5LldRU.s 			page 7


 189:Drivers/STM32F4xx_HAL_Driver/Src/stm32f4xx_hal_exti.c ****       EXTI->FTSR &= ~maskline;
 190:Drivers/STM32F4xx_HAL_Driver/Src/stm32f4xx_hal_exti.c ****     }
 191:Drivers/STM32F4xx_HAL_Driver/Src/stm32f4xx_hal_exti.c **** 
 192:Drivers/STM32F4xx_HAL_Driver/Src/stm32f4xx_hal_exti.c **** 
 193:Drivers/STM32F4xx_HAL_Driver/Src/stm32f4xx_hal_exti.c ****     /* Configure gpio port selection in case of gpio exti line */
 194:Drivers/STM32F4xx_HAL_Driver/Src/stm32f4xx_hal_exti.c ****     if ((pExtiConfig->Line & EXTI_GPIO) == EXTI_GPIO)
 151              		.loc 1 194 5 is_stmt 1 view .LVU40
 152              		.loc 1 194 21 is_stmt 0 view .LVU41
 153 0082 2368     		ldr	r3, [r4]
 154              		.loc 1 194 28 view .LVU42
 155 0084 03F0C063 		and	r3, r3, #100663296
 156              		.loc 1 194 8 view .LVU43
 157 0088 B3F1C06F 		cmp	r3, #100663296
 158 008c 27D0     		beq	.L26
 159              	.LVL8:
 160              	.L8:
 195:Drivers/STM32F4xx_HAL_Driver/Src/stm32f4xx_hal_exti.c ****     {
 196:Drivers/STM32F4xx_HAL_Driver/Src/stm32f4xx_hal_exti.c ****       assert_param(IS_EXTI_GPIO_PORT(pExtiConfig->GPIOSel));
 197:Drivers/STM32F4xx_HAL_Driver/Src/stm32f4xx_hal_exti.c ****       assert_param(IS_EXTI_GPIO_PIN(linepos));
 198:Drivers/STM32F4xx_HAL_Driver/Src/stm32f4xx_hal_exti.c **** 
 199:Drivers/STM32F4xx_HAL_Driver/Src/stm32f4xx_hal_exti.c ****       regval = SYSCFG->EXTICR[linepos >> 2u];
 200:Drivers/STM32F4xx_HAL_Driver/Src/stm32f4xx_hal_exti.c ****       regval &= ~(SYSCFG_EXTICR1_EXTI0 << (SYSCFG_EXTICR1_EXTI1_Pos * (linepos & 0x03u)));
 201:Drivers/STM32F4xx_HAL_Driver/Src/stm32f4xx_hal_exti.c ****       regval |= (pExtiConfig->GPIOSel << (SYSCFG_EXTICR1_EXTI1_Pos * (linepos & 0x03u)));
 202:Drivers/STM32F4xx_HAL_Driver/Src/stm32f4xx_hal_exti.c ****       SYSCFG->EXTICR[linepos >> 2u] = regval;
 203:Drivers/STM32F4xx_HAL_Driver/Src/stm32f4xx_hal_exti.c ****     }
 204:Drivers/STM32F4xx_HAL_Driver/Src/stm32f4xx_hal_exti.c ****   }
 205:Drivers/STM32F4xx_HAL_Driver/Src/stm32f4xx_hal_exti.c **** 
 206:Drivers/STM32F4xx_HAL_Driver/Src/stm32f4xx_hal_exti.c ****   /* Configure interrupt mode : read current mode */
 207:Drivers/STM32F4xx_HAL_Driver/Src/stm32f4xx_hal_exti.c ****   /* Mask or set line */
 208:Drivers/STM32F4xx_HAL_Driver/Src/stm32f4xx_hal_exti.c ****   if ((pExtiConfig->Mode & EXTI_MODE_INTERRUPT) != 0x00u)
 161              		.loc 1 208 3 is_stmt 1 view .LVU44
 162              		.loc 1 208 19 is_stmt 0 view .LVU45
 163 008e 6368     		ldr	r3, [r4, #4]
 164              		.loc 1 208 6 view .LVU46
 165 0090 13F0010F 		tst	r3, #1
 166 0094 45D0     		beq	.L16
 209:Drivers/STM32F4xx_HAL_Driver/Src/stm32f4xx_hal_exti.c ****   {
 210:Drivers/STM32F4xx_HAL_Driver/Src/stm32f4xx_hal_exti.c ****     EXTI->IMR |= maskline;
 167              		.loc 1 210 5 is_stmt 1 view .LVU47
 168              		.loc 1 210 9 is_stmt 0 view .LVU48
 169 0096 2C4A     		ldr	r2, .L29+4
 170 0098 1368     		ldr	r3, [r2]
 171              		.loc 1 210 15 view .LVU49
 172 009a 2B43     		orrs	r3, r3, r5
 173 009c 1360     		str	r3, [r2]
 174              	.L17:
 211:Drivers/STM32F4xx_HAL_Driver/Src/stm32f4xx_hal_exti.c ****   }
 212:Drivers/STM32F4xx_HAL_Driver/Src/stm32f4xx_hal_exti.c ****   else
 213:Drivers/STM32F4xx_HAL_Driver/Src/stm32f4xx_hal_exti.c ****   {
 214:Drivers/STM32F4xx_HAL_Driver/Src/stm32f4xx_hal_exti.c ****     EXTI->IMR &= ~maskline;
 215:Drivers/STM32F4xx_HAL_Driver/Src/stm32f4xx_hal_exti.c ****   }
 216:Drivers/STM32F4xx_HAL_Driver/Src/stm32f4xx_hal_exti.c **** 
 217:Drivers/STM32F4xx_HAL_Driver/Src/stm32f4xx_hal_exti.c ****   /* Configure event mode : read current mode */
 218:Drivers/STM32F4xx_HAL_Driver/Src/stm32f4xx_hal_exti.c ****   /* Mask or set line */
 219:Drivers/STM32F4xx_HAL_Driver/Src/stm32f4xx_hal_exti.c ****   if ((pExtiConfig->Mode & EXTI_MODE_EVENT) != 0x00u)
 175              		.loc 1 219 3 is_stmt 1 view .LVU50
 176              		.loc 1 219 19 is_stmt 0 view .LVU51
ARM GAS  C:\Users\hanaj\AppData\Local\Temp\cc5LldRU.s 			page 8


 177 009e 6368     		ldr	r3, [r4, #4]
 178              		.loc 1 219 6 view .LVU52
 179 00a0 13F0020F 		tst	r3, #2
 180 00a4 43D0     		beq	.L18
 220:Drivers/STM32F4xx_HAL_Driver/Src/stm32f4xx_hal_exti.c ****   {
 221:Drivers/STM32F4xx_HAL_Driver/Src/stm32f4xx_hal_exti.c ****     EXTI->EMR |= maskline;
 181              		.loc 1 221 5 is_stmt 1 view .LVU53
 182              		.loc 1 221 9 is_stmt 0 view .LVU54
 183 00a6 284A     		ldr	r2, .L29+4
 184 00a8 5368     		ldr	r3, [r2, #4]
 185              		.loc 1 221 15 view .LVU55
 186 00aa 2B43     		orrs	r3, r3, r5
 187 00ac 5360     		str	r3, [r2, #4]
 222:Drivers/STM32F4xx_HAL_Driver/Src/stm32f4xx_hal_exti.c ****   }
 223:Drivers/STM32F4xx_HAL_Driver/Src/stm32f4xx_hal_exti.c ****   else
 224:Drivers/STM32F4xx_HAL_Driver/Src/stm32f4xx_hal_exti.c ****   {
 225:Drivers/STM32F4xx_HAL_Driver/Src/stm32f4xx_hal_exti.c ****     EXTI->EMR &= ~maskline;
 226:Drivers/STM32F4xx_HAL_Driver/Src/stm32f4xx_hal_exti.c ****   }
 227:Drivers/STM32F4xx_HAL_Driver/Src/stm32f4xx_hal_exti.c **** 
 228:Drivers/STM32F4xx_HAL_Driver/Src/stm32f4xx_hal_exti.c ****   return HAL_OK;
 188              		.loc 1 228 10 view .LVU56
 189 00ae 0020     		movs	r0, #0
 190              	.LVL9:
 191              	.L2:
 229:Drivers/STM32F4xx_HAL_Driver/Src/stm32f4xx_hal_exti.c **** }
 192              		.loc 1 229 1 view .LVU57
 193 00b0 F8BD     		pop	{r3, r4, r5, r6, r7, pc}
 194              	.LVL10:
 195              	.L4:
 155:Drivers/STM32F4xx_HAL_Driver/Src/stm32f4xx_hal_exti.c ****   assert_param(IS_EXTI_MODE(pExtiConfig->Mode));
 196              		.loc 1 155 3 discriminator 6 view .LVU58
 197 00b2 02F01F02 		and	r2, r2, #31
 198 00b6 162A     		cmp	r2, #22
 199 00b8 BDD9     		bls	.L5
 200 00ba B8E7     		b	.L3
 201              	.LVL11:
 202              	.L25:
 168:Drivers/STM32F4xx_HAL_Driver/Src/stm32f4xx_hal_exti.c **** 
 203              		.loc 1 168 5 discriminator 1 view .LVU59
 204 00bc A821     		movs	r1, #168
 205 00be 2148     		ldr	r0, .L29
 206 00c0 FFF7FEFF 		bl	assert_failed
 207              	.LVL12:
 208 00c4 CDE7     		b	.L9
 209              	.L10:
 178:Drivers/STM32F4xx_HAL_Driver/Src/stm32f4xx_hal_exti.c ****     }
 210              		.loc 1 178 7 is_stmt 1 view .LVU60
 178:Drivers/STM32F4xx_HAL_Driver/Src/stm32f4xx_hal_exti.c ****     }
 211              		.loc 1 178 11 is_stmt 0 view .LVU61
 212 00c6 204A     		ldr	r2, .L29+4
 213 00c8 9368     		ldr	r3, [r2, #8]
 178:Drivers/STM32F4xx_HAL_Driver/Src/stm32f4xx_hal_exti.c ****     }
 214              		.loc 1 178 18 view .LVU62
 215 00ca 23EA0503 		bic	r3, r3, r5
 216 00ce 9360     		str	r3, [r2, #8]
 217 00d0 CFE7     		b	.L11
 218              	.L12:
ARM GAS  C:\Users\hanaj\AppData\Local\Temp\cc5LldRU.s 			page 9


 189:Drivers/STM32F4xx_HAL_Driver/Src/stm32f4xx_hal_exti.c ****     }
 219              		.loc 1 189 7 is_stmt 1 view .LVU63
 189:Drivers/STM32F4xx_HAL_Driver/Src/stm32f4xx_hal_exti.c ****     }
 220              		.loc 1 189 11 is_stmt 0 view .LVU64
 221 00d2 1D4A     		ldr	r2, .L29+4
 222 00d4 D368     		ldr	r3, [r2, #12]
 189:Drivers/STM32F4xx_HAL_Driver/Src/stm32f4xx_hal_exti.c ****     }
 223              		.loc 1 189 18 view .LVU65
 224 00d6 23EA0503 		bic	r3, r3, r5
 225 00da D360     		str	r3, [r2, #12]
 226 00dc D1E7     		b	.L13
 227              	.L26:
 196:Drivers/STM32F4xx_HAL_Driver/Src/stm32f4xx_hal_exti.c ****       assert_param(IS_EXTI_GPIO_PIN(linepos));
 228              		.loc 1 196 7 is_stmt 1 view .LVU66
 229 00de E368     		ldr	r3, [r4, #12]
 230 00e0 082B     		cmp	r3, #8
 231 00e2 14D8     		bhi	.L27
 232              	.L14:
 197:Drivers/STM32F4xx_HAL_Driver/Src/stm32f4xx_hal_exti.c **** 
 233              		.loc 1 197 7 view .LVU67
 234 00e4 16F0100F 		tst	r6, #16
 235 00e8 16D1     		bne	.L28
 236              	.L15:
 199:Drivers/STM32F4xx_HAL_Driver/Src/stm32f4xx_hal_exti.c ****       regval &= ~(SYSCFG_EXTICR1_EXTI0 << (SYSCFG_EXTICR1_EXTI1_Pos * (linepos & 0x03u)));
 237              		.loc 1 199 7 view .LVU68
 199:Drivers/STM32F4xx_HAL_Driver/Src/stm32f4xx_hal_exti.c ****       regval &= ~(SYSCFG_EXTICR1_EXTI0 << (SYSCFG_EXTICR1_EXTI1_Pos * (linepos & 0x03u)));
 238              		.loc 1 199 39 is_stmt 0 view .LVU69
 239 00ea BF08     		lsrs	r7, r7, #2
 240              	.LVL13:
 199:Drivers/STM32F4xx_HAL_Driver/Src/stm32f4xx_hal_exti.c ****       regval &= ~(SYSCFG_EXTICR1_EXTI0 << (SYSCFG_EXTICR1_EXTI1_Pos * (linepos & 0x03u)));
 241              		.loc 1 199 14 view .LVU70
 242 00ec 1749     		ldr	r1, .L29+8
 243 00ee 0237     		adds	r7, r7, #2
 244 00f0 51F82720 		ldr	r2, [r1, r7, lsl #2]
 245              	.LVL14:
 200:Drivers/STM32F4xx_HAL_Driver/Src/stm32f4xx_hal_exti.c ****       regval |= (pExtiConfig->GPIOSel << (SYSCFG_EXTICR1_EXTI1_Pos * (linepos & 0x03u)));
 246              		.loc 1 200 7 is_stmt 1 view .LVU71
 200:Drivers/STM32F4xx_HAL_Driver/Src/stm32f4xx_hal_exti.c ****       regval |= (pExtiConfig->GPIOSel << (SYSCFG_EXTICR1_EXTI1_Pos * (linepos & 0x03u)));
 247              		.loc 1 200 80 is_stmt 0 view .LVU72
 248 00f4 06F00306 		and	r6, r6, #3
 249              	.LVL15:
 200:Drivers/STM32F4xx_HAL_Driver/Src/stm32f4xx_hal_exti.c ****       regval |= (pExtiConfig->GPIOSel << (SYSCFG_EXTICR1_EXTI1_Pos * (linepos & 0x03u)));
 250              		.loc 1 200 69 view .LVU73
 251 00f8 B600     		lsls	r6, r6, #2
 200:Drivers/STM32F4xx_HAL_Driver/Src/stm32f4xx_hal_exti.c ****       regval |= (pExtiConfig->GPIOSel << (SYSCFG_EXTICR1_EXTI1_Pos * (linepos & 0x03u)));
 252              		.loc 1 200 40 view .LVU74
 253 00fa 0F23     		movs	r3, #15
 254 00fc B340     		lsls	r3, r3, r6
 200:Drivers/STM32F4xx_HAL_Driver/Src/stm32f4xx_hal_exti.c ****       regval |= (pExtiConfig->GPIOSel << (SYSCFG_EXTICR1_EXTI1_Pos * (linepos & 0x03u)));
 255              		.loc 1 200 14 view .LVU75
 256 00fe 22EA0302 		bic	r2, r2, r3
 257              	.LVL16:
 201:Drivers/STM32F4xx_HAL_Driver/Src/stm32f4xx_hal_exti.c ****       SYSCFG->EXTICR[linepos >> 2u] = regval;
 258              		.loc 1 201 7 is_stmt 1 view .LVU76
 201:Drivers/STM32F4xx_HAL_Driver/Src/stm32f4xx_hal_exti.c ****       SYSCFG->EXTICR[linepos >> 2u] = regval;
 259              		.loc 1 201 29 is_stmt 0 view .LVU77
 260 0102 E368     		ldr	r3, [r4, #12]
ARM GAS  C:\Users\hanaj\AppData\Local\Temp\cc5LldRU.s 			page 10


 201:Drivers/STM32F4xx_HAL_Driver/Src/stm32f4xx_hal_exti.c ****       SYSCFG->EXTICR[linepos >> 2u] = regval;
 261              		.loc 1 201 39 view .LVU78
 262 0104 B340     		lsls	r3, r3, r6
 201:Drivers/STM32F4xx_HAL_Driver/Src/stm32f4xx_hal_exti.c ****       SYSCFG->EXTICR[linepos >> 2u] = regval;
 263              		.loc 1 201 14 view .LVU79
 264 0106 1343     		orrs	r3, r3, r2
 265              	.LVL17:
 202:Drivers/STM32F4xx_HAL_Driver/Src/stm32f4xx_hal_exti.c ****     }
 266              		.loc 1 202 7 is_stmt 1 view .LVU80
 202:Drivers/STM32F4xx_HAL_Driver/Src/stm32f4xx_hal_exti.c ****     }
 267              		.loc 1 202 37 is_stmt 0 view .LVU81
 268 0108 41F82730 		str	r3, [r1, r7, lsl #2]
 269 010c BFE7     		b	.L8
 270              	.LVL18:
 271              	.L27:
 196:Drivers/STM32F4xx_HAL_Driver/Src/stm32f4xx_hal_exti.c ****       assert_param(IS_EXTI_GPIO_PIN(linepos));
 272              		.loc 1 196 7 discriminator 1 view .LVU82
 273 010e C421     		movs	r1, #196
 274 0110 0C48     		ldr	r0, .L29
 275 0112 FFF7FEFF 		bl	assert_failed
 276              	.LVL19:
 277 0116 E5E7     		b	.L14
 278              	.L28:
 197:Drivers/STM32F4xx_HAL_Driver/Src/stm32f4xx_hal_exti.c **** 
 279              		.loc 1 197 7 discriminator 1 view .LVU83
 280 0118 C521     		movs	r1, #197
 281 011a 0A48     		ldr	r0, .L29
 282 011c FFF7FEFF 		bl	assert_failed
 283              	.LVL20:
 284 0120 E3E7     		b	.L15
 285              	.LVL21:
 286              	.L16:
 214:Drivers/STM32F4xx_HAL_Driver/Src/stm32f4xx_hal_exti.c ****   }
 287              		.loc 1 214 5 is_stmt 1 view .LVU84
 214:Drivers/STM32F4xx_HAL_Driver/Src/stm32f4xx_hal_exti.c ****   }
 288              		.loc 1 214 9 is_stmt 0 view .LVU85
 289 0122 094A     		ldr	r2, .L29+4
 290 0124 1368     		ldr	r3, [r2]
 214:Drivers/STM32F4xx_HAL_Driver/Src/stm32f4xx_hal_exti.c ****   }
 291              		.loc 1 214 15 view .LVU86
 292 0126 23EA0503 		bic	r3, r3, r5
 293 012a 1360     		str	r3, [r2]
 294 012c B7E7     		b	.L17
 295              	.L18:
 225:Drivers/STM32F4xx_HAL_Driver/Src/stm32f4xx_hal_exti.c ****   }
 296              		.loc 1 225 5 is_stmt 1 view .LVU87
 225:Drivers/STM32F4xx_HAL_Driver/Src/stm32f4xx_hal_exti.c ****   }
 297              		.loc 1 225 9 is_stmt 0 view .LVU88
 298 012e 064A     		ldr	r2, .L29+4
 299 0130 5368     		ldr	r3, [r2, #4]
 225:Drivers/STM32F4xx_HAL_Driver/Src/stm32f4xx_hal_exti.c ****   }
 300              		.loc 1 225 15 view .LVU89
 301 0132 23EA0503 		bic	r3, r3, r5
 302 0136 5360     		str	r3, [r2, #4]
 228:Drivers/STM32F4xx_HAL_Driver/Src/stm32f4xx_hal_exti.c **** }
 303              		.loc 1 228 10 view .LVU90
 304 0138 0020     		movs	r0, #0
ARM GAS  C:\Users\hanaj\AppData\Local\Temp\cc5LldRU.s 			page 11


 305 013a B9E7     		b	.L2
 306              	.LVL22:
 307              	.L19:
 308              	.LCFI1:
 309              		.cfi_def_cfa_offset 0
 310              		.cfi_restore 3
 311              		.cfi_restore 4
 312              		.cfi_restore 5
 313              		.cfi_restore 6
 314              		.cfi_restore 7
 315              		.cfi_restore 14
 151:Drivers/STM32F4xx_HAL_Driver/Src/stm32f4xx_hal_exti.c ****   }
 316              		.loc 1 151 12 view .LVU91
 317 013c 0120     		movs	r0, #1
 318              	.LVL23:
 319              		.loc 1 229 1 view .LVU92
 320 013e 7047     		bx	lr
 321              	.LVL24:
 322              	.L20:
 323              	.LCFI2:
 324              		.cfi_def_cfa_offset 24
 325              		.cfi_offset 3, -24
 326              		.cfi_offset 4, -20
 327              		.cfi_offset 5, -16
 328              		.cfi_offset 6, -12
 329              		.cfi_offset 7, -8
 330              		.cfi_offset 14, -4
 151:Drivers/STM32F4xx_HAL_Driver/Src/stm32f4xx_hal_exti.c ****   }
 331              		.loc 1 151 12 view .LVU93
 332 0140 0120     		movs	r0, #1
 333              	.LVL25:
 151:Drivers/STM32F4xx_HAL_Driver/Src/stm32f4xx_hal_exti.c ****   }
 334              		.loc 1 151 12 view .LVU94
 335 0142 B5E7     		b	.L2
 336              	.L30:
 337              		.align	2
 338              	.L29:
 339 0144 00000000 		.word	.LC0
 340 0148 003C0140 		.word	1073822720
 341 014c 00380140 		.word	1073821696
 342              		.cfi_endproc
 343              	.LFE239:
 345              		.section	.text.HAL_EXTI_GetConfigLine,"ax",%progbits
 346              		.align	1
 347              		.global	HAL_EXTI_GetConfigLine
 348              		.syntax unified
 349              		.thumb
 350              		.thumb_func
 352              	HAL_EXTI_GetConfigLine:
 353              	.LVL26:
 354              	.LFB240:
 230:Drivers/STM32F4xx_HAL_Driver/Src/stm32f4xx_hal_exti.c **** 
 231:Drivers/STM32F4xx_HAL_Driver/Src/stm32f4xx_hal_exti.c **** /**
 232:Drivers/STM32F4xx_HAL_Driver/Src/stm32f4xx_hal_exti.c ****   * @brief  Get configuration of a dedicated Exti line.
 233:Drivers/STM32F4xx_HAL_Driver/Src/stm32f4xx_hal_exti.c ****   * @param  hexti Exti handle.
 234:Drivers/STM32F4xx_HAL_Driver/Src/stm32f4xx_hal_exti.c ****   * @param  pExtiConfig Pointer on structure to store Exti configuration.
 235:Drivers/STM32F4xx_HAL_Driver/Src/stm32f4xx_hal_exti.c ****   * @retval HAL Status.
ARM GAS  C:\Users\hanaj\AppData\Local\Temp\cc5LldRU.s 			page 12


 236:Drivers/STM32F4xx_HAL_Driver/Src/stm32f4xx_hal_exti.c ****   */
 237:Drivers/STM32F4xx_HAL_Driver/Src/stm32f4xx_hal_exti.c **** HAL_StatusTypeDef HAL_EXTI_GetConfigLine(EXTI_HandleTypeDef *hexti, EXTI_ConfigTypeDef *pExtiConfig
 238:Drivers/STM32F4xx_HAL_Driver/Src/stm32f4xx_hal_exti.c **** {
 355              		.loc 1 238 1 is_stmt 1 view -0
 356              		.cfi_startproc
 357              		@ args = 0, pretend = 0, frame = 0
 358              		@ frame_needed = 0, uses_anonymous_args = 0
 239:Drivers/STM32F4xx_HAL_Driver/Src/stm32f4xx_hal_exti.c ****   uint32_t regval;
 359              		.loc 1 239 3 view .LVU96
 240:Drivers/STM32F4xx_HAL_Driver/Src/stm32f4xx_hal_exti.c ****   uint32_t linepos;
 360              		.loc 1 240 3 view .LVU97
 241:Drivers/STM32F4xx_HAL_Driver/Src/stm32f4xx_hal_exti.c ****   uint32_t maskline;
 361              		.loc 1 241 3 view .LVU98
 242:Drivers/STM32F4xx_HAL_Driver/Src/stm32f4xx_hal_exti.c **** 
 243:Drivers/STM32F4xx_HAL_Driver/Src/stm32f4xx_hal_exti.c ****   /* Check null pointer */
 244:Drivers/STM32F4xx_HAL_Driver/Src/stm32f4xx_hal_exti.c ****   if ((hexti == NULL) || (pExtiConfig == NULL))
 362              		.loc 1 244 3 view .LVU99
 363              		.loc 1 244 6 is_stmt 0 view .LVU100
 364 0000 0028     		cmp	r0, #0
 365 0002 64D0     		beq	.L42
 238:Drivers/STM32F4xx_HAL_Driver/Src/stm32f4xx_hal_exti.c ****   uint32_t regval;
 366              		.loc 1 238 1 view .LVU101
 367 0004 70B5     		push	{r4, r5, r6, lr}
 368              	.LCFI3:
 369              		.cfi_def_cfa_offset 16
 370              		.cfi_offset 4, -16
 371              		.cfi_offset 5, -12
 372              		.cfi_offset 6, -8
 373              		.cfi_offset 14, -4
 374 0006 0C46     		mov	r4, r1
 375 0008 0546     		mov	r5, r0
 376              		.loc 1 244 23 discriminator 1 view .LVU102
 377 000a 0029     		cmp	r1, #0
 378 000c 61D0     		beq	.L43
 245:Drivers/STM32F4xx_HAL_Driver/Src/stm32f4xx_hal_exti.c ****   {
 246:Drivers/STM32F4xx_HAL_Driver/Src/stm32f4xx_hal_exti.c ****     return HAL_ERROR;
 247:Drivers/STM32F4xx_HAL_Driver/Src/stm32f4xx_hal_exti.c ****   }
 248:Drivers/STM32F4xx_HAL_Driver/Src/stm32f4xx_hal_exti.c **** 
 249:Drivers/STM32F4xx_HAL_Driver/Src/stm32f4xx_hal_exti.c ****   /* Check the parameter */
 250:Drivers/STM32F4xx_HAL_Driver/Src/stm32f4xx_hal_exti.c ****   assert_param(IS_EXTI_LINE(hexti->Line));
 379              		.loc 1 250 3 is_stmt 1 view .LVU103
 380 000e 0268     		ldr	r2, [r0]
 381 0010 22F0C063 		bic	r3, r2, #100663296
 382 0014 23F01F03 		bic	r3, r3, #31
 383 0018 3BB9     		cbnz	r3, .L33
 384              		.loc 1 250 3 is_stmt 0 discriminator 2 view .LVU104
 385 001a 02F0C063 		and	r3, r2, #100663296
 386 001e B3F1007F 		cmp	r3, #33554432
 387 0022 35D0     		beq	.L34
 388              		.loc 1 250 3 discriminator 3 view .LVU105
 389 0024 B3F1C06F 		cmp	r3, #100663296
 390 0028 32D0     		beq	.L34
 391              	.L33:
 392              		.loc 1 250 3 discriminator 7 view .LVU106
 393 002a FA21     		movs	r1, #250
 394              	.LVL27:
 395              		.loc 1 250 3 discriminator 7 view .LVU107
ARM GAS  C:\Users\hanaj\AppData\Local\Temp\cc5LldRU.s 			page 13


 396 002c 2B48     		ldr	r0, .L52
 397              	.LVL28:
 398              		.loc 1 250 3 discriminator 7 view .LVU108
 399 002e FFF7FEFF 		bl	assert_failed
 400              	.LVL29:
 401              	.L35:
 251:Drivers/STM32F4xx_HAL_Driver/Src/stm32f4xx_hal_exti.c **** 
 252:Drivers/STM32F4xx_HAL_Driver/Src/stm32f4xx_hal_exti.c ****   /* Store handle line number to configuration structure */
 253:Drivers/STM32F4xx_HAL_Driver/Src/stm32f4xx_hal_exti.c ****   pExtiConfig->Line = hexti->Line;
 402              		.loc 1 253 3 is_stmt 1 view .LVU109
 403              		.loc 1 253 28 is_stmt 0 view .LVU110
 404 0032 2D68     		ldr	r5, [r5]
 405              	.LVL30:
 406              		.loc 1 253 21 view .LVU111
 407 0034 2560     		str	r5, [r4]
 254:Drivers/STM32F4xx_HAL_Driver/Src/stm32f4xx_hal_exti.c **** 
 255:Drivers/STM32F4xx_HAL_Driver/Src/stm32f4xx_hal_exti.c ****   /* Compute line mask */
 256:Drivers/STM32F4xx_HAL_Driver/Src/stm32f4xx_hal_exti.c ****   linepos = (pExtiConfig->Line & EXTI_PIN_MASK);
 408              		.loc 1 256 3 is_stmt 1 view .LVU112
 409              		.loc 1 256 11 is_stmt 0 view .LVU113
 410 0036 05F01F06 		and	r6, r5, #31
 411              	.LVL31:
 257:Drivers/STM32F4xx_HAL_Driver/Src/stm32f4xx_hal_exti.c ****   maskline = (1uL << linepos);
 412              		.loc 1 257 3 is_stmt 1 view .LVU114
 413              		.loc 1 257 12 is_stmt 0 view .LVU115
 414 003a 0123     		movs	r3, #1
 415 003c B340     		lsls	r3, r3, r6
 416              	.LVL32:
 258:Drivers/STM32F4xx_HAL_Driver/Src/stm32f4xx_hal_exti.c **** 
 259:Drivers/STM32F4xx_HAL_Driver/Src/stm32f4xx_hal_exti.c ****   /* 1] Get core mode : interrupt */
 260:Drivers/STM32F4xx_HAL_Driver/Src/stm32f4xx_hal_exti.c **** 
 261:Drivers/STM32F4xx_HAL_Driver/Src/stm32f4xx_hal_exti.c ****   /* Check if selected line is enable */
 262:Drivers/STM32F4xx_HAL_Driver/Src/stm32f4xx_hal_exti.c ****   if ((EXTI->IMR & maskline) != 0x00u)
 417              		.loc 1 262 3 is_stmt 1 view .LVU116
 418              		.loc 1 262 12 is_stmt 0 view .LVU117
 419 003e 284A     		ldr	r2, .L52+4
 420 0040 1268     		ldr	r2, [r2]
 421              		.loc 1 262 6 view .LVU118
 422 0042 1A42     		tst	r2, r3
 423 0044 29D0     		beq	.L36
 263:Drivers/STM32F4xx_HAL_Driver/Src/stm32f4xx_hal_exti.c ****   {
 264:Drivers/STM32F4xx_HAL_Driver/Src/stm32f4xx_hal_exti.c ****     pExtiConfig->Mode = EXTI_MODE_INTERRUPT;
 424              		.loc 1 264 5 is_stmt 1 view .LVU119
 425              		.loc 1 264 23 is_stmt 0 view .LVU120
 426 0046 0122     		movs	r2, #1
 427 0048 6260     		str	r2, [r4, #4]
 428              	.L37:
 265:Drivers/STM32F4xx_HAL_Driver/Src/stm32f4xx_hal_exti.c ****   }
 266:Drivers/STM32F4xx_HAL_Driver/Src/stm32f4xx_hal_exti.c ****   else
 267:Drivers/STM32F4xx_HAL_Driver/Src/stm32f4xx_hal_exti.c ****   {
 268:Drivers/STM32F4xx_HAL_Driver/Src/stm32f4xx_hal_exti.c ****     pExtiConfig->Mode = EXTI_MODE_NONE;
 269:Drivers/STM32F4xx_HAL_Driver/Src/stm32f4xx_hal_exti.c ****   }
 270:Drivers/STM32F4xx_HAL_Driver/Src/stm32f4xx_hal_exti.c **** 
 271:Drivers/STM32F4xx_HAL_Driver/Src/stm32f4xx_hal_exti.c ****   /* Get event mode */
 272:Drivers/STM32F4xx_HAL_Driver/Src/stm32f4xx_hal_exti.c ****   /* Check if selected line is enable */
 273:Drivers/STM32F4xx_HAL_Driver/Src/stm32f4xx_hal_exti.c ****   if ((EXTI->EMR & maskline) != 0x00u)
 429              		.loc 1 273 3 is_stmt 1 view .LVU121
ARM GAS  C:\Users\hanaj\AppData\Local\Temp\cc5LldRU.s 			page 14


 430              		.loc 1 273 12 is_stmt 0 view .LVU122
 431 004a 254A     		ldr	r2, .L52+4
 432 004c 5268     		ldr	r2, [r2, #4]
 433              		.loc 1 273 6 view .LVU123
 434 004e 1A42     		tst	r2, r3
 435 0050 03D0     		beq	.L38
 274:Drivers/STM32F4xx_HAL_Driver/Src/stm32f4xx_hal_exti.c ****   {
 275:Drivers/STM32F4xx_HAL_Driver/Src/stm32f4xx_hal_exti.c ****     pExtiConfig->Mode |= EXTI_MODE_EVENT;
 436              		.loc 1 275 5 is_stmt 1 view .LVU124
 437              		.loc 1 275 16 is_stmt 0 view .LVU125
 438 0052 6268     		ldr	r2, [r4, #4]
 439              		.loc 1 275 23 view .LVU126
 440 0054 42F00202 		orr	r2, r2, #2
 441 0058 6260     		str	r2, [r4, #4]
 442              	.L38:
 276:Drivers/STM32F4xx_HAL_Driver/Src/stm32f4xx_hal_exti.c ****   }
 277:Drivers/STM32F4xx_HAL_Driver/Src/stm32f4xx_hal_exti.c **** 
 278:Drivers/STM32F4xx_HAL_Driver/Src/stm32f4xx_hal_exti.c ****   /* Get default Trigger and GPIOSel configuration */
 279:Drivers/STM32F4xx_HAL_Driver/Src/stm32f4xx_hal_exti.c ****   pExtiConfig->Trigger = EXTI_TRIGGER_NONE;
 443              		.loc 1 279 3 is_stmt 1 view .LVU127
 444              		.loc 1 279 24 is_stmt 0 view .LVU128
 445 005a 0022     		movs	r2, #0
 446 005c A260     		str	r2, [r4, #8]
 280:Drivers/STM32F4xx_HAL_Driver/Src/stm32f4xx_hal_exti.c ****   pExtiConfig->GPIOSel = 0x00u;
 447              		.loc 1 280 3 is_stmt 1 view .LVU129
 448              		.loc 1 280 24 is_stmt 0 view .LVU130
 449 005e E260     		str	r2, [r4, #12]
 281:Drivers/STM32F4xx_HAL_Driver/Src/stm32f4xx_hal_exti.c **** 
 282:Drivers/STM32F4xx_HAL_Driver/Src/stm32f4xx_hal_exti.c ****   /* 2] Get trigger for configurable lines : rising */
 283:Drivers/STM32F4xx_HAL_Driver/Src/stm32f4xx_hal_exti.c ****   if ((pExtiConfig->Line & EXTI_CONFIG) != 0x00u)
 450              		.loc 1 283 3 is_stmt 1 view .LVU131
 451              		.loc 1 283 6 is_stmt 0 view .LVU132
 452 0060 15F0007F 		tst	r5, #33554432
 453 0064 37D0     		beq	.L44
 284:Drivers/STM32F4xx_HAL_Driver/Src/stm32f4xx_hal_exti.c ****   {
 285:Drivers/STM32F4xx_HAL_Driver/Src/stm32f4xx_hal_exti.c ****     /* Check if configuration of selected line is enable */
 286:Drivers/STM32F4xx_HAL_Driver/Src/stm32f4xx_hal_exti.c ****     if ((EXTI->RTSR & maskline) != 0x00u)
 454              		.loc 1 286 5 is_stmt 1 view .LVU133
 455              		.loc 1 286 14 is_stmt 0 view .LVU134
 456 0066 1E4A     		ldr	r2, .L52+4
 457 0068 9268     		ldr	r2, [r2, #8]
 458              		.loc 1 286 8 view .LVU135
 459 006a 1A42     		tst	r2, r3
 460 006c 01D0     		beq	.L39
 287:Drivers/STM32F4xx_HAL_Driver/Src/stm32f4xx_hal_exti.c ****     {
 288:Drivers/STM32F4xx_HAL_Driver/Src/stm32f4xx_hal_exti.c ****       pExtiConfig->Trigger = EXTI_TRIGGER_RISING;
 461              		.loc 1 288 7 is_stmt 1 view .LVU136
 462              		.loc 1 288 28 is_stmt 0 view .LVU137
 463 006e 0122     		movs	r2, #1
 464 0070 A260     		str	r2, [r4, #8]
 465              	.L39:
 289:Drivers/STM32F4xx_HAL_Driver/Src/stm32f4xx_hal_exti.c ****     }
 290:Drivers/STM32F4xx_HAL_Driver/Src/stm32f4xx_hal_exti.c **** 
 291:Drivers/STM32F4xx_HAL_Driver/Src/stm32f4xx_hal_exti.c ****     /* Get falling configuration */
 292:Drivers/STM32F4xx_HAL_Driver/Src/stm32f4xx_hal_exti.c ****     /* Check if configuration of selected line is enable */
 293:Drivers/STM32F4xx_HAL_Driver/Src/stm32f4xx_hal_exti.c ****     if ((EXTI->FTSR & maskline) != 0x00u)
 466              		.loc 1 293 5 is_stmt 1 view .LVU138
ARM GAS  C:\Users\hanaj\AppData\Local\Temp\cc5LldRU.s 			page 15


 467              		.loc 1 293 14 is_stmt 0 view .LVU139
 468 0072 1B4A     		ldr	r2, .L52+4
 469 0074 D268     		ldr	r2, [r2, #12]
 470              		.loc 1 293 8 view .LVU140
 471 0076 1A42     		tst	r2, r3
 472 0078 03D0     		beq	.L40
 294:Drivers/STM32F4xx_HAL_Driver/Src/stm32f4xx_hal_exti.c ****     {
 295:Drivers/STM32F4xx_HAL_Driver/Src/stm32f4xx_hal_exti.c ****       pExtiConfig->Trigger |= EXTI_TRIGGER_FALLING;
 473              		.loc 1 295 7 is_stmt 1 view .LVU141
 474              		.loc 1 295 18 is_stmt 0 view .LVU142
 475 007a A368     		ldr	r3, [r4, #8]
 476              	.LVL33:
 477              		.loc 1 295 28 view .LVU143
 478 007c 43F00203 		orr	r3, r3, #2
 479 0080 A360     		str	r3, [r4, #8]
 480              	.L40:
 296:Drivers/STM32F4xx_HAL_Driver/Src/stm32f4xx_hal_exti.c ****     }
 297:Drivers/STM32F4xx_HAL_Driver/Src/stm32f4xx_hal_exti.c **** 
 298:Drivers/STM32F4xx_HAL_Driver/Src/stm32f4xx_hal_exti.c ****     /* Get Gpio port selection for gpio lines */
 299:Drivers/STM32F4xx_HAL_Driver/Src/stm32f4xx_hal_exti.c ****     if ((pExtiConfig->Line & EXTI_GPIO) == EXTI_GPIO)
 481              		.loc 1 299 5 is_stmt 1 view .LVU144
 482              		.loc 1 299 28 is_stmt 0 view .LVU145
 483 0082 05F0C063 		and	r3, r5, #100663296
 484              		.loc 1 299 8 view .LVU146
 485 0086 B3F1C06F 		cmp	r3, #100663296
 486 008a 09D0     		beq	.L50
 300:Drivers/STM32F4xx_HAL_Driver/Src/stm32f4xx_hal_exti.c ****     {
 301:Drivers/STM32F4xx_HAL_Driver/Src/stm32f4xx_hal_exti.c ****       assert_param(IS_EXTI_GPIO_PIN(linepos));
 302:Drivers/STM32F4xx_HAL_Driver/Src/stm32f4xx_hal_exti.c **** 
 303:Drivers/STM32F4xx_HAL_Driver/Src/stm32f4xx_hal_exti.c ****       regval = SYSCFG->EXTICR[linepos >> 2u];
 304:Drivers/STM32F4xx_HAL_Driver/Src/stm32f4xx_hal_exti.c ****       pExtiConfig->GPIOSel = (regval >> (SYSCFG_EXTICR1_EXTI1_Pos * (linepos & 0x03u))) & SYSCFG_EX
 305:Drivers/STM32F4xx_HAL_Driver/Src/stm32f4xx_hal_exti.c ****     }
 306:Drivers/STM32F4xx_HAL_Driver/Src/stm32f4xx_hal_exti.c ****   }
 307:Drivers/STM32F4xx_HAL_Driver/Src/stm32f4xx_hal_exti.c **** 
 308:Drivers/STM32F4xx_HAL_Driver/Src/stm32f4xx_hal_exti.c ****   return HAL_OK;
 487              		.loc 1 308 10 view .LVU147
 488 008c 0020     		movs	r0, #0
 489 008e 23E0     		b	.L32
 490              	.LVL34:
 491              	.L34:
 250:Drivers/STM32F4xx_HAL_Driver/Src/stm32f4xx_hal_exti.c **** 
 492              		.loc 1 250 3 discriminator 6 view .LVU148
 493 0090 02F01F02 		and	r2, r2, #31
 494 0094 162A     		cmp	r2, #22
 495 0096 CCD9     		bls	.L35
 496 0098 C7E7     		b	.L33
 497              	.LVL35:
 498              	.L36:
 268:Drivers/STM32F4xx_HAL_Driver/Src/stm32f4xx_hal_exti.c ****   }
 499              		.loc 1 268 5 is_stmt 1 view .LVU149
 268:Drivers/STM32F4xx_HAL_Driver/Src/stm32f4xx_hal_exti.c ****   }
 500              		.loc 1 268 23 is_stmt 0 view .LVU150
 501 009a 0022     		movs	r2, #0
 502 009c 6260     		str	r2, [r4, #4]
 503 009e D4E7     		b	.L37
 504              	.LVL36:
 505              	.L50:
ARM GAS  C:\Users\hanaj\AppData\Local\Temp\cc5LldRU.s 			page 16


 301:Drivers/STM32F4xx_HAL_Driver/Src/stm32f4xx_hal_exti.c **** 
 506              		.loc 1 301 7 is_stmt 1 view .LVU151
 507 00a0 15F0100F 		tst	r5, #16
 508 00a4 0DD1     		bne	.L51
 509              	.L41:
 303:Drivers/STM32F4xx_HAL_Driver/Src/stm32f4xx_hal_exti.c ****       pExtiConfig->GPIOSel = (regval >> (SYSCFG_EXTICR1_EXTI1_Pos * (linepos & 0x03u))) & SYSCFG_EX
 510              		.loc 1 303 7 view .LVU152
 303:Drivers/STM32F4xx_HAL_Driver/Src/stm32f4xx_hal_exti.c ****       pExtiConfig->GPIOSel = (regval >> (SYSCFG_EXTICR1_EXTI1_Pos * (linepos & 0x03u))) & SYSCFG_EX
 511              		.loc 1 303 39 is_stmt 0 view .LVU153
 512 00a6 B608     		lsrs	r6, r6, #2
 513              	.LVL37:
 303:Drivers/STM32F4xx_HAL_Driver/Src/stm32f4xx_hal_exti.c ****       pExtiConfig->GPIOSel = (regval >> (SYSCFG_EXTICR1_EXTI1_Pos * (linepos & 0x03u))) & SYSCFG_EX
 514              		.loc 1 303 14 view .LVU154
 515 00a8 0236     		adds	r6, r6, #2
 516 00aa 0E4B     		ldr	r3, .L52+8
 517 00ac 53F82630 		ldr	r3, [r3, r6, lsl #2]
 518              	.LVL38:
 304:Drivers/STM32F4xx_HAL_Driver/Src/stm32f4xx_hal_exti.c ****     }
 519              		.loc 1 304 7 is_stmt 1 view .LVU155
 304:Drivers/STM32F4xx_HAL_Driver/Src/stm32f4xx_hal_exti.c ****     }
 520              		.loc 1 304 78 is_stmt 0 view .LVU156
 521 00b0 05F00305 		and	r5, r5, #3
 522              	.LVL39:
 304:Drivers/STM32F4xx_HAL_Driver/Src/stm32f4xx_hal_exti.c ****     }
 523              		.loc 1 304 67 view .LVU157
 524 00b4 AD00     		lsls	r5, r5, #2
 304:Drivers/STM32F4xx_HAL_Driver/Src/stm32f4xx_hal_exti.c ****     }
 525              		.loc 1 304 38 view .LVU158
 526 00b6 EB40     		lsrs	r3, r3, r5
 527              	.LVL40:
 304:Drivers/STM32F4xx_HAL_Driver/Src/stm32f4xx_hal_exti.c ****     }
 528              		.loc 1 304 89 view .LVU159
 529 00b8 03F00F03 		and	r3, r3, #15
 304:Drivers/STM32F4xx_HAL_Driver/Src/stm32f4xx_hal_exti.c ****     }
 530              		.loc 1 304 28 view .LVU160
 531 00bc E360     		str	r3, [r4, #12]
 532              		.loc 1 308 10 view .LVU161
 533 00be 0020     		movs	r0, #0
 534 00c0 0AE0     		b	.L32
 535              	.LVL41:
 536              	.L51:
 301:Drivers/STM32F4xx_HAL_Driver/Src/stm32f4xx_hal_exti.c **** 
 537              		.loc 1 301 7 discriminator 1 view .LVU162
 538 00c2 40F22D11 		movw	r1, #301
 539 00c6 0548     		ldr	r0, .L52
 540 00c8 FFF7FEFF 		bl	assert_failed
 541              	.LVL42:
 542 00cc EBE7     		b	.L41
 543              	.LVL43:
 544              	.L42:
 545              	.LCFI4:
 546              		.cfi_def_cfa_offset 0
 547              		.cfi_restore 4
 548              		.cfi_restore 5
 549              		.cfi_restore 6
 550              		.cfi_restore 14
 246:Drivers/STM32F4xx_HAL_Driver/Src/stm32f4xx_hal_exti.c ****   }
ARM GAS  C:\Users\hanaj\AppData\Local\Temp\cc5LldRU.s 			page 17


 551              		.loc 1 246 12 view .LVU163
 552 00ce 0120     		movs	r0, #1
 553              	.LVL44:
 309:Drivers/STM32F4xx_HAL_Driver/Src/stm32f4xx_hal_exti.c **** }
 554              		.loc 1 309 1 view .LVU164
 555 00d0 7047     		bx	lr
 556              	.LVL45:
 557              	.L43:
 558              	.LCFI5:
 559              		.cfi_def_cfa_offset 16
 560              		.cfi_offset 4, -16
 561              		.cfi_offset 5, -12
 562              		.cfi_offset 6, -8
 563              		.cfi_offset 14, -4
 246:Drivers/STM32F4xx_HAL_Driver/Src/stm32f4xx_hal_exti.c ****   }
 564              		.loc 1 246 12 view .LVU165
 565 00d2 0120     		movs	r0, #1
 566              	.LVL46:
 246:Drivers/STM32F4xx_HAL_Driver/Src/stm32f4xx_hal_exti.c ****   }
 567              		.loc 1 246 12 view .LVU166
 568 00d4 00E0     		b	.L32
 569              	.LVL47:
 570              	.L44:
 308:Drivers/STM32F4xx_HAL_Driver/Src/stm32f4xx_hal_exti.c **** }
 571              		.loc 1 308 10 view .LVU167
 572 00d6 0020     		movs	r0, #0
 573              	.LVL48:
 574              	.L32:
 575              		.loc 1 309 1 view .LVU168
 576 00d8 70BD     		pop	{r4, r5, r6, pc}
 577              	.LVL49:
 578              	.L53:
 579              		.loc 1 309 1 view .LVU169
 580 00da 00BF     		.align	2
 581              	.L52:
 582 00dc 00000000 		.word	.LC0
 583 00e0 003C0140 		.word	1073822720
 584 00e4 00380140 		.word	1073821696
 585              		.cfi_endproc
 586              	.LFE240:
 588              		.section	.text.HAL_EXTI_ClearConfigLine,"ax",%progbits
 589              		.align	1
 590              		.global	HAL_EXTI_ClearConfigLine
 591              		.syntax unified
 592              		.thumb
 593              		.thumb_func
 595              	HAL_EXTI_ClearConfigLine:
 596              	.LVL50:
 597              	.LFB241:
 310:Drivers/STM32F4xx_HAL_Driver/Src/stm32f4xx_hal_exti.c **** 
 311:Drivers/STM32F4xx_HAL_Driver/Src/stm32f4xx_hal_exti.c **** /**
 312:Drivers/STM32F4xx_HAL_Driver/Src/stm32f4xx_hal_exti.c ****   * @brief  Clear whole configuration of a dedicated Exti line.
 313:Drivers/STM32F4xx_HAL_Driver/Src/stm32f4xx_hal_exti.c ****   * @param  hexti Exti handle.
 314:Drivers/STM32F4xx_HAL_Driver/Src/stm32f4xx_hal_exti.c ****   * @retval HAL Status.
 315:Drivers/STM32F4xx_HAL_Driver/Src/stm32f4xx_hal_exti.c ****   */
 316:Drivers/STM32F4xx_HAL_Driver/Src/stm32f4xx_hal_exti.c **** HAL_StatusTypeDef HAL_EXTI_ClearConfigLine(EXTI_HandleTypeDef *hexti)
 317:Drivers/STM32F4xx_HAL_Driver/Src/stm32f4xx_hal_exti.c **** {
ARM GAS  C:\Users\hanaj\AppData\Local\Temp\cc5LldRU.s 			page 18


 598              		.loc 1 317 1 is_stmt 1 view -0
 599              		.cfi_startproc
 600              		@ args = 0, pretend = 0, frame = 0
 601              		@ frame_needed = 0, uses_anonymous_args = 0
 318:Drivers/STM32F4xx_HAL_Driver/Src/stm32f4xx_hal_exti.c ****   uint32_t regval;
 602              		.loc 1 318 3 view .LVU171
 319:Drivers/STM32F4xx_HAL_Driver/Src/stm32f4xx_hal_exti.c ****   uint32_t linepos;
 603              		.loc 1 319 3 view .LVU172
 320:Drivers/STM32F4xx_HAL_Driver/Src/stm32f4xx_hal_exti.c ****   uint32_t maskline;
 604              		.loc 1 320 3 view .LVU173
 321:Drivers/STM32F4xx_HAL_Driver/Src/stm32f4xx_hal_exti.c **** 
 322:Drivers/STM32F4xx_HAL_Driver/Src/stm32f4xx_hal_exti.c ****   /* Check null pointer */
 323:Drivers/STM32F4xx_HAL_Driver/Src/stm32f4xx_hal_exti.c ****   if (hexti == NULL)
 605              		.loc 1 323 3 view .LVU174
 606              		.loc 1 323 6 is_stmt 0 view .LVU175
 607 0000 0028     		cmp	r0, #0
 608 0002 54D0     		beq	.L60
 317:Drivers/STM32F4xx_HAL_Driver/Src/stm32f4xx_hal_exti.c ****   uint32_t regval;
 609              		.loc 1 317 1 view .LVU176
 610 0004 70B5     		push	{r4, r5, r6, lr}
 611              	.LCFI6:
 612              		.cfi_def_cfa_offset 16
 613              		.cfi_offset 4, -16
 614              		.cfi_offset 5, -12
 615              		.cfi_offset 6, -8
 616              		.cfi_offset 14, -4
 617 0006 0446     		mov	r4, r0
 324:Drivers/STM32F4xx_HAL_Driver/Src/stm32f4xx_hal_exti.c ****   {
 325:Drivers/STM32F4xx_HAL_Driver/Src/stm32f4xx_hal_exti.c ****     return HAL_ERROR;
 326:Drivers/STM32F4xx_HAL_Driver/Src/stm32f4xx_hal_exti.c ****   }
 327:Drivers/STM32F4xx_HAL_Driver/Src/stm32f4xx_hal_exti.c **** 
 328:Drivers/STM32F4xx_HAL_Driver/Src/stm32f4xx_hal_exti.c ****   /* Check the parameter */
 329:Drivers/STM32F4xx_HAL_Driver/Src/stm32f4xx_hal_exti.c ****   assert_param(IS_EXTI_LINE(hexti->Line));
 618              		.loc 1 329 3 is_stmt 1 view .LVU177
 619 0008 0268     		ldr	r2, [r0]
 620 000a 22F0C063 		bic	r3, r2, #100663296
 621 000e 23F01F03 		bic	r3, r3, #31
 622 0012 3BB9     		cbnz	r3, .L56
 623              		.loc 1 329 3 is_stmt 0 discriminator 2 view .LVU178
 624 0014 02F0C063 		and	r3, r2, #100663296
 625 0018 B3F1007F 		cmp	r3, #33554432
 626 001c 29D0     		beq	.L57
 627              		.loc 1 329 3 discriminator 3 view .LVU179
 628 001e B3F1C06F 		cmp	r3, #100663296
 629 0022 26D0     		beq	.L57
 630              	.L56:
 631              		.loc 1 329 3 discriminator 7 view .LVU180
 632 0024 40F24911 		movw	r1, #329
 633 0028 2348     		ldr	r0, .L69
 634              	.LVL51:
 635              		.loc 1 329 3 discriminator 7 view .LVU181
 636 002a FFF7FEFF 		bl	assert_failed
 637              	.LVL52:
 638              	.L58:
 330:Drivers/STM32F4xx_HAL_Driver/Src/stm32f4xx_hal_exti.c **** 
 331:Drivers/STM32F4xx_HAL_Driver/Src/stm32f4xx_hal_exti.c ****   /* compute line mask */
 332:Drivers/STM32F4xx_HAL_Driver/Src/stm32f4xx_hal_exti.c ****   linepos = (hexti->Line & EXTI_PIN_MASK);
ARM GAS  C:\Users\hanaj\AppData\Local\Temp\cc5LldRU.s 			page 19


 639              		.loc 1 332 3 is_stmt 1 view .LVU182
 640              		.loc 1 332 19 is_stmt 0 view .LVU183
 641 002e 2668     		ldr	r6, [r4]
 642              		.loc 1 332 11 view .LVU184
 643 0030 06F01F05 		and	r5, r6, #31
 644              	.LVL53:
 333:Drivers/STM32F4xx_HAL_Driver/Src/stm32f4xx_hal_exti.c ****   maskline = (1uL << linepos);
 645              		.loc 1 333 3 is_stmt 1 view .LVU185
 646              		.loc 1 333 12 is_stmt 0 view .LVU186
 647 0034 0123     		movs	r3, #1
 648 0036 AB40     		lsls	r3, r3, r5
 649              	.LVL54:
 334:Drivers/STM32F4xx_HAL_Driver/Src/stm32f4xx_hal_exti.c **** 
 335:Drivers/STM32F4xx_HAL_Driver/Src/stm32f4xx_hal_exti.c ****   /* 1] Clear interrupt mode */
 336:Drivers/STM32F4xx_HAL_Driver/Src/stm32f4xx_hal_exti.c ****   EXTI->IMR = (EXTI->IMR & ~maskline);
 650              		.loc 1 336 3 is_stmt 1 view .LVU187
 651              		.loc 1 336 20 is_stmt 0 view .LVU188
 652 0038 204A     		ldr	r2, .L69+4
 653 003a 1168     		ldr	r1, [r2]
 654              		.loc 1 336 28 view .LVU189
 655 003c D843     		mvns	r0, r3
 656              		.loc 1 336 26 view .LVU190
 657 003e 21EA0301 		bic	r1, r1, r3
 658              		.loc 1 336 13 view .LVU191
 659 0042 1160     		str	r1, [r2]
 337:Drivers/STM32F4xx_HAL_Driver/Src/stm32f4xx_hal_exti.c **** 
 338:Drivers/STM32F4xx_HAL_Driver/Src/stm32f4xx_hal_exti.c ****   /* 2] Clear event mode */
 339:Drivers/STM32F4xx_HAL_Driver/Src/stm32f4xx_hal_exti.c ****   EXTI->EMR = (EXTI->EMR & ~maskline);
 660              		.loc 1 339 3 is_stmt 1 view .LVU192
 661              		.loc 1 339 20 is_stmt 0 view .LVU193
 662 0044 5168     		ldr	r1, [r2, #4]
 663              		.loc 1 339 26 view .LVU194
 664 0046 21EA0303 		bic	r3, r1, r3
 665              	.LVL55:
 666              		.loc 1 339 13 view .LVU195
 667 004a 5360     		str	r3, [r2, #4]
 340:Drivers/STM32F4xx_HAL_Driver/Src/stm32f4xx_hal_exti.c **** 
 341:Drivers/STM32F4xx_HAL_Driver/Src/stm32f4xx_hal_exti.c ****   /* 3] Clear triggers in case of configurable lines */
 342:Drivers/STM32F4xx_HAL_Driver/Src/stm32f4xx_hal_exti.c ****   if ((hexti->Line & EXTI_CONFIG) != 0x00u)
 668              		.loc 1 342 3 is_stmt 1 view .LVU196
 669              		.loc 1 342 13 is_stmt 0 view .LVU197
 670 004c 2368     		ldr	r3, [r4]
 671              		.loc 1 342 6 view .LVU198
 672 004e 13F0007F 		tst	r3, #33554432
 673 0052 2ED0     		beq	.L61
 343:Drivers/STM32F4xx_HAL_Driver/Src/stm32f4xx_hal_exti.c ****   {
 344:Drivers/STM32F4xx_HAL_Driver/Src/stm32f4xx_hal_exti.c ****     EXTI->RTSR = (EXTI->RTSR & ~maskline);
 674              		.loc 1 344 5 is_stmt 1 view .LVU199
 675              		.loc 1 344 23 is_stmt 0 view .LVU200
 676 0054 1346     		mov	r3, r2
 677 0056 9268     		ldr	r2, [r2, #8]
 678              		.loc 1 344 30 view .LVU201
 679 0058 0240     		ands	r2, r2, r0
 680              		.loc 1 344 16 view .LVU202
 681 005a 9A60     		str	r2, [r3, #8]
 345:Drivers/STM32F4xx_HAL_Driver/Src/stm32f4xx_hal_exti.c ****     EXTI->FTSR = (EXTI->FTSR & ~maskline);
 682              		.loc 1 345 5 is_stmt 1 view .LVU203
ARM GAS  C:\Users\hanaj\AppData\Local\Temp\cc5LldRU.s 			page 20


 683              		.loc 1 345 23 is_stmt 0 view .LVU204
 684 005c DA68     		ldr	r2, [r3, #12]
 685              		.loc 1 345 30 view .LVU205
 686 005e 1040     		ands	r0, r0, r2
 687              	.LVL56:
 688              		.loc 1 345 16 view .LVU206
 689 0060 D860     		str	r0, [r3, #12]
 346:Drivers/STM32F4xx_HAL_Driver/Src/stm32f4xx_hal_exti.c **** 
 347:Drivers/STM32F4xx_HAL_Driver/Src/stm32f4xx_hal_exti.c ****     /* Get Gpio port selection for gpio lines */
 348:Drivers/STM32F4xx_HAL_Driver/Src/stm32f4xx_hal_exti.c ****     if ((hexti->Line & EXTI_GPIO) == EXTI_GPIO)
 690              		.loc 1 348 5 is_stmt 1 view .LVU207
 691              		.loc 1 348 15 is_stmt 0 view .LVU208
 692 0062 2368     		ldr	r3, [r4]
 693              		.loc 1 348 22 view .LVU209
 694 0064 03F0C063 		and	r3, r3, #100663296
 695              		.loc 1 348 8 view .LVU210
 696 0068 B3F1C06F 		cmp	r3, #100663296
 697 006c 06D0     		beq	.L67
 349:Drivers/STM32F4xx_HAL_Driver/Src/stm32f4xx_hal_exti.c ****     {
 350:Drivers/STM32F4xx_HAL_Driver/Src/stm32f4xx_hal_exti.c ****       assert_param(IS_EXTI_GPIO_PIN(linepos));
 351:Drivers/STM32F4xx_HAL_Driver/Src/stm32f4xx_hal_exti.c **** 
 352:Drivers/STM32F4xx_HAL_Driver/Src/stm32f4xx_hal_exti.c ****       regval = SYSCFG->EXTICR[linepos >> 2u];
 353:Drivers/STM32F4xx_HAL_Driver/Src/stm32f4xx_hal_exti.c ****       regval &= ~(SYSCFG_EXTICR1_EXTI0 << (SYSCFG_EXTICR1_EXTI1_Pos * (linepos & 0x03u)));
 354:Drivers/STM32F4xx_HAL_Driver/Src/stm32f4xx_hal_exti.c ****       SYSCFG->EXTICR[linepos >> 2u] = regval;
 355:Drivers/STM32F4xx_HAL_Driver/Src/stm32f4xx_hal_exti.c ****     }
 356:Drivers/STM32F4xx_HAL_Driver/Src/stm32f4xx_hal_exti.c ****   }
 357:Drivers/STM32F4xx_HAL_Driver/Src/stm32f4xx_hal_exti.c **** 
 358:Drivers/STM32F4xx_HAL_Driver/Src/stm32f4xx_hal_exti.c ****   return HAL_OK;
 698              		.loc 1 358 10 view .LVU211
 699 006e 0020     		movs	r0, #0
 700 0070 20E0     		b	.L55
 701              	.LVL57:
 702              	.L57:
 329:Drivers/STM32F4xx_HAL_Driver/Src/stm32f4xx_hal_exti.c **** 
 703              		.loc 1 329 3 discriminator 6 view .LVU212
 704 0072 02F01F02 		and	r2, r2, #31
 705 0076 162A     		cmp	r2, #22
 706 0078 D9D9     		bls	.L58
 707 007a D3E7     		b	.L56
 708              	.LVL58:
 709              	.L67:
 350:Drivers/STM32F4xx_HAL_Driver/Src/stm32f4xx_hal_exti.c **** 
 710              		.loc 1 350 7 is_stmt 1 view .LVU213
 711 007c 16F0100F 		tst	r6, #16
 712 0080 0FD1     		bne	.L68
 713              	.L59:
 352:Drivers/STM32F4xx_HAL_Driver/Src/stm32f4xx_hal_exti.c ****       regval &= ~(SYSCFG_EXTICR1_EXTI0 << (SYSCFG_EXTICR1_EXTI1_Pos * (linepos & 0x03u)));
 714              		.loc 1 352 7 view .LVU214
 352:Drivers/STM32F4xx_HAL_Driver/Src/stm32f4xx_hal_exti.c ****       regval &= ~(SYSCFG_EXTICR1_EXTI0 << (SYSCFG_EXTICR1_EXTI1_Pos * (linepos & 0x03u)));
 715              		.loc 1 352 39 is_stmt 0 view .LVU215
 716 0082 AD08     		lsrs	r5, r5, #2
 717              	.LVL59:
 352:Drivers/STM32F4xx_HAL_Driver/Src/stm32f4xx_hal_exti.c ****       regval &= ~(SYSCFG_EXTICR1_EXTI0 << (SYSCFG_EXTICR1_EXTI1_Pos * (linepos & 0x03u)));
 718              		.loc 1 352 14 view .LVU216
 719 0084 0E49     		ldr	r1, .L69+8
 720 0086 0235     		adds	r5, r5, #2
 721 0088 51F82530 		ldr	r3, [r1, r5, lsl #2]
ARM GAS  C:\Users\hanaj\AppData\Local\Temp\cc5LldRU.s 			page 21


 722              	.LVL60:
 353:Drivers/STM32F4xx_HAL_Driver/Src/stm32f4xx_hal_exti.c ****       SYSCFG->EXTICR[linepos >> 2u] = regval;
 723              		.loc 1 353 7 is_stmt 1 view .LVU217
 353:Drivers/STM32F4xx_HAL_Driver/Src/stm32f4xx_hal_exti.c ****       SYSCFG->EXTICR[linepos >> 2u] = regval;
 724              		.loc 1 353 80 is_stmt 0 view .LVU218
 725 008c 06F00306 		and	r6, r6, #3
 726              	.LVL61:
 353:Drivers/STM32F4xx_HAL_Driver/Src/stm32f4xx_hal_exti.c ****       SYSCFG->EXTICR[linepos >> 2u] = regval;
 727              		.loc 1 353 69 view .LVU219
 728 0090 B600     		lsls	r6, r6, #2
 353:Drivers/STM32F4xx_HAL_Driver/Src/stm32f4xx_hal_exti.c ****       SYSCFG->EXTICR[linepos >> 2u] = regval;
 729              		.loc 1 353 40 view .LVU220
 730 0092 0F22     		movs	r2, #15
 731 0094 B240     		lsls	r2, r2, r6
 353:Drivers/STM32F4xx_HAL_Driver/Src/stm32f4xx_hal_exti.c ****       SYSCFG->EXTICR[linepos >> 2u] = regval;
 732              		.loc 1 353 14 view .LVU221
 733 0096 23EA0203 		bic	r3, r3, r2
 734              	.LVL62:
 354:Drivers/STM32F4xx_HAL_Driver/Src/stm32f4xx_hal_exti.c ****     }
 735              		.loc 1 354 7 is_stmt 1 view .LVU222
 354:Drivers/STM32F4xx_HAL_Driver/Src/stm32f4xx_hal_exti.c ****     }
 736              		.loc 1 354 37 is_stmt 0 view .LVU223
 737 009a 41F82530 		str	r3, [r1, r5, lsl #2]
 738              		.loc 1 358 10 view .LVU224
 739 009e 0020     		movs	r0, #0
 740 00a0 08E0     		b	.L55
 741              	.LVL63:
 742              	.L68:
 350:Drivers/STM32F4xx_HAL_Driver/Src/stm32f4xx_hal_exti.c **** 
 743              		.loc 1 350 7 discriminator 1 view .LVU225
 744 00a2 4FF4AF71 		mov	r1, #350
 745 00a6 0448     		ldr	r0, .L69
 746 00a8 FFF7FEFF 		bl	assert_failed
 747              	.LVL64:
 748 00ac E9E7     		b	.L59
 749              	.LVL65:
 750              	.L60:
 751              	.LCFI7:
 752              		.cfi_def_cfa_offset 0
 753              		.cfi_restore 4
 754              		.cfi_restore 5
 755              		.cfi_restore 6
 756              		.cfi_restore 14
 325:Drivers/STM32F4xx_HAL_Driver/Src/stm32f4xx_hal_exti.c ****   }
 757              		.loc 1 325 12 view .LVU226
 758 00ae 0120     		movs	r0, #1
 759              	.LVL66:
 359:Drivers/STM32F4xx_HAL_Driver/Src/stm32f4xx_hal_exti.c **** }
 760              		.loc 1 359 1 view .LVU227
 761 00b0 7047     		bx	lr
 762              	.LVL67:
 763              	.L61:
 764              	.LCFI8:
 765              		.cfi_def_cfa_offset 16
 766              		.cfi_offset 4, -16
 767              		.cfi_offset 5, -12
 768              		.cfi_offset 6, -8
ARM GAS  C:\Users\hanaj\AppData\Local\Temp\cc5LldRU.s 			page 22


 769              		.cfi_offset 14, -4
 358:Drivers/STM32F4xx_HAL_Driver/Src/stm32f4xx_hal_exti.c **** }
 770              		.loc 1 358 10 view .LVU228
 771 00b2 0020     		movs	r0, #0
 772              	.LVL68:
 773              	.L55:
 774              		.loc 1 359 1 view .LVU229
 775 00b4 70BD     		pop	{r4, r5, r6, pc}
 776              	.LVL69:
 777              	.L70:
 778              		.loc 1 359 1 view .LVU230
 779 00b6 00BF     		.align	2
 780              	.L69:
 781 00b8 00000000 		.word	.LC0
 782 00bc 003C0140 		.word	1073822720
 783 00c0 00380140 		.word	1073821696
 784              		.cfi_endproc
 785              	.LFE241:
 787              		.section	.text.HAL_EXTI_RegisterCallback,"ax",%progbits
 788              		.align	1
 789              		.global	HAL_EXTI_RegisterCallback
 790              		.syntax unified
 791              		.thumb
 792              		.thumb_func
 794              	HAL_EXTI_RegisterCallback:
 795              	.LVL70:
 796              	.LFB242:
 360:Drivers/STM32F4xx_HAL_Driver/Src/stm32f4xx_hal_exti.c **** 
 361:Drivers/STM32F4xx_HAL_Driver/Src/stm32f4xx_hal_exti.c **** /**
 362:Drivers/STM32F4xx_HAL_Driver/Src/stm32f4xx_hal_exti.c ****   * @brief  Register callback for a dedicated Exti line.
 363:Drivers/STM32F4xx_HAL_Driver/Src/stm32f4xx_hal_exti.c ****   * @param  hexti Exti handle.
 364:Drivers/STM32F4xx_HAL_Driver/Src/stm32f4xx_hal_exti.c ****   * @param  CallbackID User callback identifier.
 365:Drivers/STM32F4xx_HAL_Driver/Src/stm32f4xx_hal_exti.c ****   *         This parameter can be one of @arg @ref EXTI_CallbackIDTypeDef values.
 366:Drivers/STM32F4xx_HAL_Driver/Src/stm32f4xx_hal_exti.c ****   * @param  pPendingCbfn function pointer to be stored as callback.
 367:Drivers/STM32F4xx_HAL_Driver/Src/stm32f4xx_hal_exti.c ****   * @retval HAL Status.
 368:Drivers/STM32F4xx_HAL_Driver/Src/stm32f4xx_hal_exti.c ****   */
 369:Drivers/STM32F4xx_HAL_Driver/Src/stm32f4xx_hal_exti.c **** HAL_StatusTypeDef HAL_EXTI_RegisterCallback(EXTI_HandleTypeDef *hexti, EXTI_CallbackIDTypeDef Callb
 370:Drivers/STM32F4xx_HAL_Driver/Src/stm32f4xx_hal_exti.c **** {
 797              		.loc 1 370 1 is_stmt 1 view -0
 798              		.cfi_startproc
 799              		@ args = 0, pretend = 0, frame = 0
 800              		@ frame_needed = 0, uses_anonymous_args = 0
 801              		@ link register save eliminated.
 802              		.loc 1 370 1 is_stmt 0 view .LVU232
 803 0000 0346     		mov	r3, r0
 371:Drivers/STM32F4xx_HAL_Driver/Src/stm32f4xx_hal_exti.c ****   HAL_StatusTypeDef status = HAL_OK;
 804              		.loc 1 371 3 is_stmt 1 view .LVU233
 805              	.LVL71:
 372:Drivers/STM32F4xx_HAL_Driver/Src/stm32f4xx_hal_exti.c **** 
 373:Drivers/STM32F4xx_HAL_Driver/Src/stm32f4xx_hal_exti.c ****   switch (CallbackID)
 806              		.loc 1 373 3 view .LVU234
 807 0002 0846     		mov	r0, r1
 808              	.LVL72:
 809              		.loc 1 373 3 is_stmt 0 view .LVU235
 810 0004 09B9     		cbnz	r1, .L73
 374:Drivers/STM32F4xx_HAL_Driver/Src/stm32f4xx_hal_exti.c ****   {
 375:Drivers/STM32F4xx_HAL_Driver/Src/stm32f4xx_hal_exti.c ****     case  HAL_EXTI_COMMON_CB_ID:
ARM GAS  C:\Users\hanaj\AppData\Local\Temp\cc5LldRU.s 			page 23


 376:Drivers/STM32F4xx_HAL_Driver/Src/stm32f4xx_hal_exti.c ****       hexti->PendingCallback = pPendingCbfn;
 811              		.loc 1 376 7 is_stmt 1 view .LVU236
 812              		.loc 1 376 30 is_stmt 0 view .LVU237
 813 0006 5A60     		str	r2, [r3, #4]
 377:Drivers/STM32F4xx_HAL_Driver/Src/stm32f4xx_hal_exti.c ****       break;
 814              		.loc 1 377 7 is_stmt 1 view .LVU238
 815 0008 7047     		bx	lr
 816              	.L73:
 378:Drivers/STM32F4xx_HAL_Driver/Src/stm32f4xx_hal_exti.c **** 
 379:Drivers/STM32F4xx_HAL_Driver/Src/stm32f4xx_hal_exti.c ****     default:
 380:Drivers/STM32F4xx_HAL_Driver/Src/stm32f4xx_hal_exti.c ****       status = HAL_ERROR;
 817              		.loc 1 380 14 is_stmt 0 view .LVU239
 818 000a 0120     		movs	r0, #1
 819              	.LVL73:
 381:Drivers/STM32F4xx_HAL_Driver/Src/stm32f4xx_hal_exti.c ****       break;
 382:Drivers/STM32F4xx_HAL_Driver/Src/stm32f4xx_hal_exti.c ****   }
 383:Drivers/STM32F4xx_HAL_Driver/Src/stm32f4xx_hal_exti.c **** 
 384:Drivers/STM32F4xx_HAL_Driver/Src/stm32f4xx_hal_exti.c ****   return status;
 820              		.loc 1 384 3 is_stmt 1 view .LVU240
 385:Drivers/STM32F4xx_HAL_Driver/Src/stm32f4xx_hal_exti.c **** }
 821              		.loc 1 385 1 is_stmt 0 view .LVU241
 822 000c 7047     		bx	lr
 823              		.cfi_endproc
 824              	.LFE242:
 826              		.section	.text.HAL_EXTI_GetHandle,"ax",%progbits
 827              		.align	1
 828              		.global	HAL_EXTI_GetHandle
 829              		.syntax unified
 830              		.thumb
 831              		.thumb_func
 833              	HAL_EXTI_GetHandle:
 834              	.LVL74:
 835              	.LFB243:
 386:Drivers/STM32F4xx_HAL_Driver/Src/stm32f4xx_hal_exti.c **** 
 387:Drivers/STM32F4xx_HAL_Driver/Src/stm32f4xx_hal_exti.c **** /**
 388:Drivers/STM32F4xx_HAL_Driver/Src/stm32f4xx_hal_exti.c ****   * @brief  Store line number as handle private field.
 389:Drivers/STM32F4xx_HAL_Driver/Src/stm32f4xx_hal_exti.c ****   * @param  hexti Exti handle.
 390:Drivers/STM32F4xx_HAL_Driver/Src/stm32f4xx_hal_exti.c ****   * @param  ExtiLine Exti line number.
 391:Drivers/STM32F4xx_HAL_Driver/Src/stm32f4xx_hal_exti.c ****   *         This parameter can be from 0 to @ref EXTI_LINE_NB.
 392:Drivers/STM32F4xx_HAL_Driver/Src/stm32f4xx_hal_exti.c ****   * @retval HAL Status.
 393:Drivers/STM32F4xx_HAL_Driver/Src/stm32f4xx_hal_exti.c ****   */
 394:Drivers/STM32F4xx_HAL_Driver/Src/stm32f4xx_hal_exti.c **** HAL_StatusTypeDef HAL_EXTI_GetHandle(EXTI_HandleTypeDef *hexti, uint32_t ExtiLine)
 395:Drivers/STM32F4xx_HAL_Driver/Src/stm32f4xx_hal_exti.c **** {
 836              		.loc 1 395 1 is_stmt 1 view -0
 837              		.cfi_startproc
 838              		@ args = 0, pretend = 0, frame = 0
 839              		@ frame_needed = 0, uses_anonymous_args = 0
 840              		.loc 1 395 1 is_stmt 0 view .LVU243
 841 0000 38B5     		push	{r3, r4, r5, lr}
 842              	.LCFI9:
 843              		.cfi_def_cfa_offset 16
 844              		.cfi_offset 3, -16
 845              		.cfi_offset 4, -12
 846              		.cfi_offset 5, -8
 847              		.cfi_offset 14, -4
 848 0002 0546     		mov	r5, r0
 849 0004 0C46     		mov	r4, r1
ARM GAS  C:\Users\hanaj\AppData\Local\Temp\cc5LldRU.s 			page 24


 396:Drivers/STM32F4xx_HAL_Driver/Src/stm32f4xx_hal_exti.c ****   /* Check the parameters */
 397:Drivers/STM32F4xx_HAL_Driver/Src/stm32f4xx_hal_exti.c ****   assert_param(IS_EXTI_LINE(ExtiLine));
 850              		.loc 1 397 3 is_stmt 1 view .LVU244
 851 0006 21F0C063 		bic	r3, r1, #100663296
 852 000a 23F01F03 		bic	r3, r3, #31
 853 000e 3BB9     		cbnz	r3, .L75
 854              		.loc 1 397 3 is_stmt 0 discriminator 2 view .LVU245
 855 0010 01F0C063 		and	r3, r1, #100663296
 856 0014 B3F1007F 		cmp	r3, #33554432
 857 0018 0BD0     		beq	.L76
 858              		.loc 1 397 3 discriminator 3 view .LVU246
 859 001a B3F1C06F 		cmp	r3, #100663296
 860 001e 08D0     		beq	.L76
 861              	.L75:
 862              		.loc 1 397 3 discriminator 7 view .LVU247
 863 0020 40F28D11 		movw	r1, #397
 864              	.LVL75:
 865              		.loc 1 397 3 discriminator 7 view .LVU248
 866 0024 0648     		ldr	r0, .L81
 867              	.LVL76:
 868              		.loc 1 397 3 discriminator 7 view .LVU249
 869 0026 FFF7FEFF 		bl	assert_failed
 870              	.LVL77:
 871              	.L77:
 398:Drivers/STM32F4xx_HAL_Driver/Src/stm32f4xx_hal_exti.c **** 
 399:Drivers/STM32F4xx_HAL_Driver/Src/stm32f4xx_hal_exti.c ****   /* Check null pointer */
 400:Drivers/STM32F4xx_HAL_Driver/Src/stm32f4xx_hal_exti.c ****   if (hexti == NULL)
 872              		.loc 1 400 3 is_stmt 1 view .LVU250
 873              		.loc 1 400 6 is_stmt 0 view .LVU251
 874 002a 3DB1     		cbz	r5, .L79
 401:Drivers/STM32F4xx_HAL_Driver/Src/stm32f4xx_hal_exti.c ****   {
 402:Drivers/STM32F4xx_HAL_Driver/Src/stm32f4xx_hal_exti.c ****     return HAL_ERROR;
 403:Drivers/STM32F4xx_HAL_Driver/Src/stm32f4xx_hal_exti.c ****   }
 404:Drivers/STM32F4xx_HAL_Driver/Src/stm32f4xx_hal_exti.c ****   else
 405:Drivers/STM32F4xx_HAL_Driver/Src/stm32f4xx_hal_exti.c ****   {
 406:Drivers/STM32F4xx_HAL_Driver/Src/stm32f4xx_hal_exti.c ****     /* Store line number as handle private field */
 407:Drivers/STM32F4xx_HAL_Driver/Src/stm32f4xx_hal_exti.c ****     hexti->Line = ExtiLine;
 875              		.loc 1 407 5 is_stmt 1 view .LVU252
 876              		.loc 1 407 17 is_stmt 0 view .LVU253
 877 002c 2C60     		str	r4, [r5]
 408:Drivers/STM32F4xx_HAL_Driver/Src/stm32f4xx_hal_exti.c **** 
 409:Drivers/STM32F4xx_HAL_Driver/Src/stm32f4xx_hal_exti.c ****     return HAL_OK;
 878              		.loc 1 409 5 is_stmt 1 view .LVU254
 879              		.loc 1 409 12 is_stmt 0 view .LVU255
 880 002e 0020     		movs	r0, #0
 881              	.L78:
 410:Drivers/STM32F4xx_HAL_Driver/Src/stm32f4xx_hal_exti.c ****   }
 411:Drivers/STM32F4xx_HAL_Driver/Src/stm32f4xx_hal_exti.c **** }
 882              		.loc 1 411 1 view .LVU256
 883 0030 38BD     		pop	{r3, r4, r5, pc}
 884              	.LVL78:
 885              	.L76:
 397:Drivers/STM32F4xx_HAL_Driver/Src/stm32f4xx_hal_exti.c **** 
 886              		.loc 1 397 3 discriminator 6 view .LVU257
 887 0032 04F01F03 		and	r3, r4, #31
 888 0036 162B     		cmp	r3, #22
 889 0038 F7D9     		bls	.L77
ARM GAS  C:\Users\hanaj\AppData\Local\Temp\cc5LldRU.s 			page 25


 890 003a F1E7     		b	.L75
 891              	.LVL79:
 892              	.L79:
 402:Drivers/STM32F4xx_HAL_Driver/Src/stm32f4xx_hal_exti.c ****   }
 893              		.loc 1 402 12 view .LVU258
 894 003c 0120     		movs	r0, #1
 895 003e F7E7     		b	.L78
 896              	.L82:
 897              		.align	2
 898              	.L81:
 899 0040 00000000 		.word	.LC0
 900              		.cfi_endproc
 901              	.LFE243:
 903              		.section	.text.HAL_EXTI_IRQHandler,"ax",%progbits
 904              		.align	1
 905              		.global	HAL_EXTI_IRQHandler
 906              		.syntax unified
 907              		.thumb
 908              		.thumb_func
 910              	HAL_EXTI_IRQHandler:
 911              	.LVL80:
 912              	.LFB244:
 412:Drivers/STM32F4xx_HAL_Driver/Src/stm32f4xx_hal_exti.c **** 
 413:Drivers/STM32F4xx_HAL_Driver/Src/stm32f4xx_hal_exti.c **** /**
 414:Drivers/STM32F4xx_HAL_Driver/Src/stm32f4xx_hal_exti.c ****   * @}
 415:Drivers/STM32F4xx_HAL_Driver/Src/stm32f4xx_hal_exti.c ****   */
 416:Drivers/STM32F4xx_HAL_Driver/Src/stm32f4xx_hal_exti.c **** 
 417:Drivers/STM32F4xx_HAL_Driver/Src/stm32f4xx_hal_exti.c **** /** @addtogroup EXTI_Exported_Functions_Group2
 418:Drivers/STM32F4xx_HAL_Driver/Src/stm32f4xx_hal_exti.c ****   *  @brief EXTI IO functions.
 419:Drivers/STM32F4xx_HAL_Driver/Src/stm32f4xx_hal_exti.c ****   *
 420:Drivers/STM32F4xx_HAL_Driver/Src/stm32f4xx_hal_exti.c **** @verbatim
 421:Drivers/STM32F4xx_HAL_Driver/Src/stm32f4xx_hal_exti.c ****  ===============================================================================
 422:Drivers/STM32F4xx_HAL_Driver/Src/stm32f4xx_hal_exti.c ****                        ##### IO operation functions #####
 423:Drivers/STM32F4xx_HAL_Driver/Src/stm32f4xx_hal_exti.c ****  ===============================================================================
 424:Drivers/STM32F4xx_HAL_Driver/Src/stm32f4xx_hal_exti.c **** 
 425:Drivers/STM32F4xx_HAL_Driver/Src/stm32f4xx_hal_exti.c **** @endverbatim
 426:Drivers/STM32F4xx_HAL_Driver/Src/stm32f4xx_hal_exti.c ****   * @{
 427:Drivers/STM32F4xx_HAL_Driver/Src/stm32f4xx_hal_exti.c ****   */
 428:Drivers/STM32F4xx_HAL_Driver/Src/stm32f4xx_hal_exti.c **** 
 429:Drivers/STM32F4xx_HAL_Driver/Src/stm32f4xx_hal_exti.c **** /**
 430:Drivers/STM32F4xx_HAL_Driver/Src/stm32f4xx_hal_exti.c ****   * @brief  Handle EXTI interrupt request.
 431:Drivers/STM32F4xx_HAL_Driver/Src/stm32f4xx_hal_exti.c ****   * @param  hexti Exti handle.
 432:Drivers/STM32F4xx_HAL_Driver/Src/stm32f4xx_hal_exti.c ****   * @retval none.
 433:Drivers/STM32F4xx_HAL_Driver/Src/stm32f4xx_hal_exti.c ****   */
 434:Drivers/STM32F4xx_HAL_Driver/Src/stm32f4xx_hal_exti.c **** void HAL_EXTI_IRQHandler(EXTI_HandleTypeDef *hexti)
 435:Drivers/STM32F4xx_HAL_Driver/Src/stm32f4xx_hal_exti.c **** {
 913              		.loc 1 435 1 is_stmt 1 view -0
 914              		.cfi_startproc
 915              		@ args = 0, pretend = 0, frame = 0
 916              		@ frame_needed = 0, uses_anonymous_args = 0
 917              		.loc 1 435 1 is_stmt 0 view .LVU260
 918 0000 08B5     		push	{r3, lr}
 919              	.LCFI10:
 920              		.cfi_def_cfa_offset 8
 921              		.cfi_offset 3, -8
 922              		.cfi_offset 14, -4
 436:Drivers/STM32F4xx_HAL_Driver/Src/stm32f4xx_hal_exti.c ****   uint32_t regval;
ARM GAS  C:\Users\hanaj\AppData\Local\Temp\cc5LldRU.s 			page 26


 923              		.loc 1 436 3 is_stmt 1 view .LVU261
 437:Drivers/STM32F4xx_HAL_Driver/Src/stm32f4xx_hal_exti.c ****   uint32_t maskline;
 924              		.loc 1 437 3 view .LVU262
 438:Drivers/STM32F4xx_HAL_Driver/Src/stm32f4xx_hal_exti.c **** 
 439:Drivers/STM32F4xx_HAL_Driver/Src/stm32f4xx_hal_exti.c ****   /* Compute line mask */
 440:Drivers/STM32F4xx_HAL_Driver/Src/stm32f4xx_hal_exti.c ****   maskline = (1uL << (hexti->Line & EXTI_PIN_MASK));
 925              		.loc 1 440 3 view .LVU263
 926              		.loc 1 440 28 is_stmt 0 view .LVU264
 927 0002 0368     		ldr	r3, [r0]
 928              		.loc 1 440 35 view .LVU265
 929 0004 03F01F02 		and	r2, r3, #31
 930              		.loc 1 440 12 view .LVU266
 931 0008 0123     		movs	r3, #1
 932 000a 9340     		lsls	r3, r3, r2
 933              	.LVL81:
 441:Drivers/STM32F4xx_HAL_Driver/Src/stm32f4xx_hal_exti.c **** 
 442:Drivers/STM32F4xx_HAL_Driver/Src/stm32f4xx_hal_exti.c ****   /* Get pending bit  */
 443:Drivers/STM32F4xx_HAL_Driver/Src/stm32f4xx_hal_exti.c ****   regval = (EXTI->PR & maskline);
 934              		.loc 1 443 3 is_stmt 1 view .LVU267
 935              		.loc 1 443 17 is_stmt 0 view .LVU268
 936 000c 044A     		ldr	r2, .L86
 937 000e 5269     		ldr	r2, [r2, #20]
 938              	.LVL82:
 444:Drivers/STM32F4xx_HAL_Driver/Src/stm32f4xx_hal_exti.c ****   if (regval != 0x00u)
 939              		.loc 1 444 3 is_stmt 1 view .LVU269
 940              		.loc 1 444 6 is_stmt 0 view .LVU270
 941 0010 1A42     		tst	r2, r3
 942 0012 04D0     		beq	.L83
 445:Drivers/STM32F4xx_HAL_Driver/Src/stm32f4xx_hal_exti.c ****   {
 446:Drivers/STM32F4xx_HAL_Driver/Src/stm32f4xx_hal_exti.c ****     /* Clear pending bit */
 447:Drivers/STM32F4xx_HAL_Driver/Src/stm32f4xx_hal_exti.c ****     EXTI->PR = maskline;
 943              		.loc 1 447 5 is_stmt 1 view .LVU271
 944              		.loc 1 447 14 is_stmt 0 view .LVU272
 945 0014 024A     		ldr	r2, .L86
 946              	.LVL83:
 947              		.loc 1 447 14 view .LVU273
 948 0016 5361     		str	r3, [r2, #20]
 448:Drivers/STM32F4xx_HAL_Driver/Src/stm32f4xx_hal_exti.c **** 
 449:Drivers/STM32F4xx_HAL_Driver/Src/stm32f4xx_hal_exti.c ****     /* Call callback */
 450:Drivers/STM32F4xx_HAL_Driver/Src/stm32f4xx_hal_exti.c ****     if (hexti->PendingCallback != NULL)
 949              		.loc 1 450 5 is_stmt 1 view .LVU274
 950              		.loc 1 450 14 is_stmt 0 view .LVU275
 951 0018 4368     		ldr	r3, [r0, #4]
 952              	.LVL84:
 953              		.loc 1 450 8 view .LVU276
 954 001a 03B1     		cbz	r3, .L83
 451:Drivers/STM32F4xx_HAL_Driver/Src/stm32f4xx_hal_exti.c ****     {
 452:Drivers/STM32F4xx_HAL_Driver/Src/stm32f4xx_hal_exti.c ****       hexti->PendingCallback();
 955              		.loc 1 452 7 is_stmt 1 view .LVU277
 956 001c 9847     		blx	r3
 957              	.LVL85:
 958              	.L83:
 453:Drivers/STM32F4xx_HAL_Driver/Src/stm32f4xx_hal_exti.c ****     }
 454:Drivers/STM32F4xx_HAL_Driver/Src/stm32f4xx_hal_exti.c ****   }
 455:Drivers/STM32F4xx_HAL_Driver/Src/stm32f4xx_hal_exti.c **** }
 959              		.loc 1 455 1 is_stmt 0 view .LVU278
 960 001e 08BD     		pop	{r3, pc}
ARM GAS  C:\Users\hanaj\AppData\Local\Temp\cc5LldRU.s 			page 27


 961              	.L87:
 962              		.align	2
 963              	.L86:
 964 0020 003C0140 		.word	1073822720
 965              		.cfi_endproc
 966              	.LFE244:
 968              		.section	.text.HAL_EXTI_GetPending,"ax",%progbits
 969              		.align	1
 970              		.global	HAL_EXTI_GetPending
 971              		.syntax unified
 972              		.thumb
 973              		.thumb_func
 975              	HAL_EXTI_GetPending:
 976              	.LVL86:
 977              	.LFB245:
 456:Drivers/STM32F4xx_HAL_Driver/Src/stm32f4xx_hal_exti.c **** 
 457:Drivers/STM32F4xx_HAL_Driver/Src/stm32f4xx_hal_exti.c **** /**
 458:Drivers/STM32F4xx_HAL_Driver/Src/stm32f4xx_hal_exti.c ****   * @brief  Get interrupt pending bit of a dedicated line.
 459:Drivers/STM32F4xx_HAL_Driver/Src/stm32f4xx_hal_exti.c ****   * @param  hexti Exti handle.
 460:Drivers/STM32F4xx_HAL_Driver/Src/stm32f4xx_hal_exti.c ****   * @param  Edge Specify which pending edge as to be checked.
 461:Drivers/STM32F4xx_HAL_Driver/Src/stm32f4xx_hal_exti.c ****   *         This parameter can be one of the following values:
 462:Drivers/STM32F4xx_HAL_Driver/Src/stm32f4xx_hal_exti.c ****   *           @arg @ref EXTI_TRIGGER_RISING_FALLING
 463:Drivers/STM32F4xx_HAL_Driver/Src/stm32f4xx_hal_exti.c ****   *         This parameter is kept for compatibility with other series.
 464:Drivers/STM32F4xx_HAL_Driver/Src/stm32f4xx_hal_exti.c ****   * @retval 1 if interrupt is pending else 0.
 465:Drivers/STM32F4xx_HAL_Driver/Src/stm32f4xx_hal_exti.c ****   */
 466:Drivers/STM32F4xx_HAL_Driver/Src/stm32f4xx_hal_exti.c **** uint32_t HAL_EXTI_GetPending(EXTI_HandleTypeDef *hexti, uint32_t Edge)
 467:Drivers/STM32F4xx_HAL_Driver/Src/stm32f4xx_hal_exti.c **** {
 978              		.loc 1 467 1 is_stmt 1 view -0
 979              		.cfi_startproc
 980              		@ args = 0, pretend = 0, frame = 0
 981              		@ frame_needed = 0, uses_anonymous_args = 0
 982              		.loc 1 467 1 is_stmt 0 view .LVU280
 983 0000 38B5     		push	{r3, r4, r5, lr}
 984              	.LCFI11:
 985              		.cfi_def_cfa_offset 16
 986              		.cfi_offset 3, -16
 987              		.cfi_offset 4, -12
 988              		.cfi_offset 5, -8
 989              		.cfi_offset 14, -4
 990 0002 0446     		mov	r4, r0
 991 0004 0D46     		mov	r5, r1
 468:Drivers/STM32F4xx_HAL_Driver/Src/stm32f4xx_hal_exti.c ****   uint32_t regval;
 992              		.loc 1 468 3 is_stmt 1 view .LVU281
 469:Drivers/STM32F4xx_HAL_Driver/Src/stm32f4xx_hal_exti.c ****   uint32_t linepos;
 993              		.loc 1 469 3 view .LVU282
 470:Drivers/STM32F4xx_HAL_Driver/Src/stm32f4xx_hal_exti.c ****   uint32_t maskline;
 994              		.loc 1 470 3 view .LVU283
 471:Drivers/STM32F4xx_HAL_Driver/Src/stm32f4xx_hal_exti.c **** 
 472:Drivers/STM32F4xx_HAL_Driver/Src/stm32f4xx_hal_exti.c ****   /* Prevent unused argument(s) compilation warning */
 473:Drivers/STM32F4xx_HAL_Driver/Src/stm32f4xx_hal_exti.c ****   UNUSED(Edge);
 995              		.loc 1 473 3 view .LVU284
 474:Drivers/STM32F4xx_HAL_Driver/Src/stm32f4xx_hal_exti.c **** 
 475:Drivers/STM32F4xx_HAL_Driver/Src/stm32f4xx_hal_exti.c ****   /* Check parameters */
 476:Drivers/STM32F4xx_HAL_Driver/Src/stm32f4xx_hal_exti.c ****   assert_param(IS_EXTI_LINE(hexti->Line));
 996              		.loc 1 476 3 view .LVU285
 997 0006 0268     		ldr	r2, [r0]
 998 0008 22F0C063 		bic	r3, r2, #100663296
ARM GAS  C:\Users\hanaj\AppData\Local\Temp\cc5LldRU.s 			page 28


 999 000c 23F01F03 		bic	r3, r3, #31
 1000 0010 3BB9     		cbnz	r3, .L89
 1001              		.loc 1 476 3 is_stmt 0 discriminator 2 view .LVU286
 1002 0012 02F0C063 		and	r3, r2, #100663296
 1003 0016 B3F1007F 		cmp	r3, #33554432
 1004 001a 17D0     		beq	.L90
 1005              		.loc 1 476 3 discriminator 3 view .LVU287
 1006 001c B3F1C06F 		cmp	r3, #100663296
 1007 0020 14D0     		beq	.L90
 1008              	.L89:
 1009              		.loc 1 476 3 discriminator 7 view .LVU288
 1010 0022 4FF4EE71 		mov	r1, #476
 1011              	.LVL87:
 1012              		.loc 1 476 3 discriminator 7 view .LVU289
 1013 0026 1248     		ldr	r0, .L97
 1014              	.LVL88:
 1015              		.loc 1 476 3 discriminator 7 view .LVU290
 1016 0028 FFF7FEFF 		bl	assert_failed
 1017              	.LVL89:
 1018              	.L91:
 477:Drivers/STM32F4xx_HAL_Driver/Src/stm32f4xx_hal_exti.c ****   assert_param(IS_EXTI_CONFIG_LINE(hexti->Line));
 1019              		.loc 1 477 3 is_stmt 1 view .LVU291
 1020 002c 2368     		ldr	r3, [r4]
 1021 002e 13F0007F 		tst	r3, #33554432
 1022 0032 10D0     		beq	.L95
 1023              	.L92:
 478:Drivers/STM32F4xx_HAL_Driver/Src/stm32f4xx_hal_exti.c ****   assert_param(IS_EXTI_PENDING_EDGE(Edge));
 1024              		.loc 1 478 3 view .LVU292
 1025 0034 032D     		cmp	r5, #3
 1026 0036 14D1     		bne	.L96
 1027              	.L93:
 479:Drivers/STM32F4xx_HAL_Driver/Src/stm32f4xx_hal_exti.c **** 
 480:Drivers/STM32F4xx_HAL_Driver/Src/stm32f4xx_hal_exti.c ****   /* Compute line mask */
 481:Drivers/STM32F4xx_HAL_Driver/Src/stm32f4xx_hal_exti.c ****   linepos = (hexti->Line & EXTI_PIN_MASK);
 1028              		.loc 1 481 3 view .LVU293
 1029              		.loc 1 481 19 is_stmt 0 view .LVU294
 1030 0038 2368     		ldr	r3, [r4]
 1031              		.loc 1 481 11 view .LVU295
 1032 003a 03F01F03 		and	r3, r3, #31
 1033              	.LVL90:
 482:Drivers/STM32F4xx_HAL_Driver/Src/stm32f4xx_hal_exti.c ****   maskline = (1uL << linepos);
 1034              		.loc 1 482 3 is_stmt 1 view .LVU296
 1035              		.loc 1 482 12 is_stmt 0 view .LVU297
 1036 003e 0122     		movs	r2, #1
 1037 0040 9A40     		lsls	r2, r2, r3
 1038              	.LVL91:
 483:Drivers/STM32F4xx_HAL_Driver/Src/stm32f4xx_hal_exti.c **** 
 484:Drivers/STM32F4xx_HAL_Driver/Src/stm32f4xx_hal_exti.c ****   /* return 1 if bit is set else 0 */
 485:Drivers/STM32F4xx_HAL_Driver/Src/stm32f4xx_hal_exti.c ****   regval = ((EXTI->PR & maskline) >> linepos);
 1039              		.loc 1 485 3 is_stmt 1 view .LVU298
 1040              		.loc 1 485 18 is_stmt 0 view .LVU299
 1041 0042 0C49     		ldr	r1, .L97+4
 1042 0044 4869     		ldr	r0, [r1, #20]
 1043              		.loc 1 485 23 view .LVU300
 1044 0046 1040     		ands	r0, r0, r2
 1045              	.LVL92:
 486:Drivers/STM32F4xx_HAL_Driver/Src/stm32f4xx_hal_exti.c ****   return regval;
ARM GAS  C:\Users\hanaj\AppData\Local\Temp\cc5LldRU.s 			page 29


 1046              		.loc 1 486 3 is_stmt 1 view .LVU301
 487:Drivers/STM32F4xx_HAL_Driver/Src/stm32f4xx_hal_exti.c **** }
 1047              		.loc 1 487 1 is_stmt 0 view .LVU302
 1048 0048 D840     		lsrs	r0, r0, r3
 1049              	.LVL93:
 1050              		.loc 1 487 1 view .LVU303
 1051 004a 38BD     		pop	{r3, r4, r5, pc}
 1052              	.LVL94:
 1053              	.L90:
 476:Drivers/STM32F4xx_HAL_Driver/Src/stm32f4xx_hal_exti.c ****   assert_param(IS_EXTI_CONFIG_LINE(hexti->Line));
 1054              		.loc 1 476 3 discriminator 6 view .LVU304
 1055 004c 02F01F02 		and	r2, r2, #31
 1056 0050 162A     		cmp	r2, #22
 1057 0052 EBD9     		bls	.L91
 1058 0054 E5E7     		b	.L89
 1059              	.LVL95:
 1060              	.L95:
 477:Drivers/STM32F4xx_HAL_Driver/Src/stm32f4xx_hal_exti.c ****   assert_param(IS_EXTI_PENDING_EDGE(Edge));
 1061              		.loc 1 477 3 discriminator 1 view .LVU305
 1062 0056 40F2DD11 		movw	r1, #477
 1063 005a 0548     		ldr	r0, .L97
 1064 005c FFF7FEFF 		bl	assert_failed
 1065              	.LVL96:
 1066 0060 E8E7     		b	.L92
 1067              	.L96:
 478:Drivers/STM32F4xx_HAL_Driver/Src/stm32f4xx_hal_exti.c **** 
 1068              		.loc 1 478 3 discriminator 1 view .LVU306
 1069 0062 4FF4EF71 		mov	r1, #478
 1070 0066 0248     		ldr	r0, .L97
 1071 0068 FFF7FEFF 		bl	assert_failed
 1072              	.LVL97:
 1073 006c E4E7     		b	.L93
 1074              	.L98:
 1075 006e 00BF     		.align	2
 1076              	.L97:
 1077 0070 00000000 		.word	.LC0
 1078 0074 003C0140 		.word	1073822720
 1079              		.cfi_endproc
 1080              	.LFE245:
 1082              		.section	.text.HAL_EXTI_ClearPending,"ax",%progbits
 1083              		.align	1
 1084              		.global	HAL_EXTI_ClearPending
 1085              		.syntax unified
 1086              		.thumb
 1087              		.thumb_func
 1089              	HAL_EXTI_ClearPending:
 1090              	.LVL98:
 1091              	.LFB246:
 488:Drivers/STM32F4xx_HAL_Driver/Src/stm32f4xx_hal_exti.c **** 
 489:Drivers/STM32F4xx_HAL_Driver/Src/stm32f4xx_hal_exti.c **** /**
 490:Drivers/STM32F4xx_HAL_Driver/Src/stm32f4xx_hal_exti.c ****   * @brief  Clear interrupt pending bit of a dedicated line.
 491:Drivers/STM32F4xx_HAL_Driver/Src/stm32f4xx_hal_exti.c ****   * @param  hexti Exti handle.
 492:Drivers/STM32F4xx_HAL_Driver/Src/stm32f4xx_hal_exti.c ****   * @param  Edge Specify which pending edge as to be clear.
 493:Drivers/STM32F4xx_HAL_Driver/Src/stm32f4xx_hal_exti.c ****   *         This parameter can be one of the following values:
 494:Drivers/STM32F4xx_HAL_Driver/Src/stm32f4xx_hal_exti.c ****   *           @arg @ref EXTI_TRIGGER_RISING_FALLING
 495:Drivers/STM32F4xx_HAL_Driver/Src/stm32f4xx_hal_exti.c ****   *         This parameter is kept for compatibility with other series.
 496:Drivers/STM32F4xx_HAL_Driver/Src/stm32f4xx_hal_exti.c ****   * @retval None.
ARM GAS  C:\Users\hanaj\AppData\Local\Temp\cc5LldRU.s 			page 30


 497:Drivers/STM32F4xx_HAL_Driver/Src/stm32f4xx_hal_exti.c ****   */
 498:Drivers/STM32F4xx_HAL_Driver/Src/stm32f4xx_hal_exti.c **** void HAL_EXTI_ClearPending(EXTI_HandleTypeDef *hexti, uint32_t Edge)
 499:Drivers/STM32F4xx_HAL_Driver/Src/stm32f4xx_hal_exti.c **** {
 1092              		.loc 1 499 1 is_stmt 1 view -0
 1093              		.cfi_startproc
 1094              		@ args = 0, pretend = 0, frame = 0
 1095              		@ frame_needed = 0, uses_anonymous_args = 0
 1096              		.loc 1 499 1 is_stmt 0 view .LVU308
 1097 0000 38B5     		push	{r3, r4, r5, lr}
 1098              	.LCFI12:
 1099              		.cfi_def_cfa_offset 16
 1100              		.cfi_offset 3, -16
 1101              		.cfi_offset 4, -12
 1102              		.cfi_offset 5, -8
 1103              		.cfi_offset 14, -4
 1104 0002 0446     		mov	r4, r0
 1105 0004 0D46     		mov	r5, r1
 500:Drivers/STM32F4xx_HAL_Driver/Src/stm32f4xx_hal_exti.c ****   uint32_t maskline;
 1106              		.loc 1 500 3 is_stmt 1 view .LVU309
 501:Drivers/STM32F4xx_HAL_Driver/Src/stm32f4xx_hal_exti.c **** 
 502:Drivers/STM32F4xx_HAL_Driver/Src/stm32f4xx_hal_exti.c ****   /* Prevent unused argument(s) compilation warning */
 503:Drivers/STM32F4xx_HAL_Driver/Src/stm32f4xx_hal_exti.c ****   UNUSED(Edge);
 1107              		.loc 1 503 3 view .LVU310
 504:Drivers/STM32F4xx_HAL_Driver/Src/stm32f4xx_hal_exti.c **** 
 505:Drivers/STM32F4xx_HAL_Driver/Src/stm32f4xx_hal_exti.c ****   /* Check parameters */
 506:Drivers/STM32F4xx_HAL_Driver/Src/stm32f4xx_hal_exti.c ****   assert_param(IS_EXTI_LINE(hexti->Line));
 1108              		.loc 1 506 3 view .LVU311
 1109 0006 0268     		ldr	r2, [r0]
 1110 0008 22F0C063 		bic	r3, r2, #100663296
 1111 000c 23F01F03 		bic	r3, r3, #31
 1112 0010 3BB9     		cbnz	r3, .L100
 1113              		.loc 1 506 3 is_stmt 0 discriminator 2 view .LVU312
 1114 0012 02F0C063 		and	r3, r2, #100663296
 1115 0016 B3F1007F 		cmp	r3, #33554432
 1116 001a 15D0     		beq	.L101
 1117              		.loc 1 506 3 discriminator 3 view .LVU313
 1118 001c B3F1C06F 		cmp	r3, #100663296
 1119 0020 12D0     		beq	.L101
 1120              	.L100:
 1121              		.loc 1 506 3 discriminator 7 view .LVU314
 1122 0022 4FF4FD71 		mov	r1, #506
 1123              	.LVL99:
 1124              		.loc 1 506 3 discriminator 7 view .LVU315
 1125 0026 1148     		ldr	r0, .L108
 1126              	.LVL100:
 1127              		.loc 1 506 3 discriminator 7 view .LVU316
 1128 0028 FFF7FEFF 		bl	assert_failed
 1129              	.LVL101:
 1130              	.L102:
 507:Drivers/STM32F4xx_HAL_Driver/Src/stm32f4xx_hal_exti.c ****   assert_param(IS_EXTI_CONFIG_LINE(hexti->Line));
 1131              		.loc 1 507 3 is_stmt 1 view .LVU317
 1132 002c 2368     		ldr	r3, [r4]
 1133 002e 13F0007F 		tst	r3, #33554432
 1134 0032 0ED0     		beq	.L106
 1135              	.L103:
 508:Drivers/STM32F4xx_HAL_Driver/Src/stm32f4xx_hal_exti.c ****   assert_param(IS_EXTI_PENDING_EDGE(Edge));
 1136              		.loc 1 508 3 view .LVU318
ARM GAS  C:\Users\hanaj\AppData\Local\Temp\cc5LldRU.s 			page 31


 1137 0034 032D     		cmp	r5, #3
 1138 0036 12D1     		bne	.L107
 1139              	.L104:
 509:Drivers/STM32F4xx_HAL_Driver/Src/stm32f4xx_hal_exti.c **** 
 510:Drivers/STM32F4xx_HAL_Driver/Src/stm32f4xx_hal_exti.c ****   /* Compute line mask */
 511:Drivers/STM32F4xx_HAL_Driver/Src/stm32f4xx_hal_exti.c ****   maskline = (1uL << (hexti->Line & EXTI_PIN_MASK));
 1140              		.loc 1 511 3 view .LVU319
 1141              		.loc 1 511 28 is_stmt 0 view .LVU320
 1142 0038 2268     		ldr	r2, [r4]
 1143              		.loc 1 511 35 view .LVU321
 1144 003a 02F01F02 		and	r2, r2, #31
 1145              		.loc 1 511 12 view .LVU322
 1146 003e 0123     		movs	r3, #1
 1147 0040 9340     		lsls	r3, r3, r2
 1148              	.LVL102:
 512:Drivers/STM32F4xx_HAL_Driver/Src/stm32f4xx_hal_exti.c **** 
 513:Drivers/STM32F4xx_HAL_Driver/Src/stm32f4xx_hal_exti.c ****   /* Clear Pending bit */
 514:Drivers/STM32F4xx_HAL_Driver/Src/stm32f4xx_hal_exti.c ****   EXTI->PR =  maskline;
 1149              		.loc 1 514 3 is_stmt 1 view .LVU323
 1150              		.loc 1 514 12 is_stmt 0 view .LVU324
 1151 0042 0B4A     		ldr	r2, .L108+4
 1152 0044 5361     		str	r3, [r2, #20]
 515:Drivers/STM32F4xx_HAL_Driver/Src/stm32f4xx_hal_exti.c **** }
 1153              		.loc 1 515 1 view .LVU325
 1154 0046 38BD     		pop	{r3, r4, r5, pc}
 1155              	.LVL103:
 1156              	.L101:
 506:Drivers/STM32F4xx_HAL_Driver/Src/stm32f4xx_hal_exti.c ****   assert_param(IS_EXTI_CONFIG_LINE(hexti->Line));
 1157              		.loc 1 506 3 discriminator 6 view .LVU326
 1158 0048 02F01F02 		and	r2, r2, #31
 1159 004c 162A     		cmp	r2, #22
 1160 004e EDD9     		bls	.L102
 1161 0050 E7E7     		b	.L100
 1162              	.LVL104:
 1163              	.L106:
 507:Drivers/STM32F4xx_HAL_Driver/Src/stm32f4xx_hal_exti.c ****   assert_param(IS_EXTI_PENDING_EDGE(Edge));
 1164              		.loc 1 507 3 discriminator 1 view .LVU327
 1165 0052 40F2FB11 		movw	r1, #507
 1166 0056 0548     		ldr	r0, .L108
 1167 0058 FFF7FEFF 		bl	assert_failed
 1168              	.LVL105:
 1169 005c EAE7     		b	.L103
 1170              	.L107:
 508:Drivers/STM32F4xx_HAL_Driver/Src/stm32f4xx_hal_exti.c **** 
 1171              		.loc 1 508 3 discriminator 1 view .LVU328
 1172 005e 4FF4FE71 		mov	r1, #508
 1173 0062 0248     		ldr	r0, .L108
 1174 0064 FFF7FEFF 		bl	assert_failed
 1175              	.LVL106:
 1176 0068 E6E7     		b	.L104
 1177              	.L109:
 1178 006a 00BF     		.align	2
 1179              	.L108:
 1180 006c 00000000 		.word	.LC0
 1181 0070 003C0140 		.word	1073822720
 1182              		.cfi_endproc
 1183              	.LFE246:
ARM GAS  C:\Users\hanaj\AppData\Local\Temp\cc5LldRU.s 			page 32


 1185              		.section	.text.HAL_EXTI_GenerateSWI,"ax",%progbits
 1186              		.align	1
 1187              		.global	HAL_EXTI_GenerateSWI
 1188              		.syntax unified
 1189              		.thumb
 1190              		.thumb_func
 1192              	HAL_EXTI_GenerateSWI:
 1193              	.LVL107:
 1194              	.LFB247:
 516:Drivers/STM32F4xx_HAL_Driver/Src/stm32f4xx_hal_exti.c **** 
 517:Drivers/STM32F4xx_HAL_Driver/Src/stm32f4xx_hal_exti.c **** /**
 518:Drivers/STM32F4xx_HAL_Driver/Src/stm32f4xx_hal_exti.c ****   * @brief  Generate a software interrupt for a dedicated line.
 519:Drivers/STM32F4xx_HAL_Driver/Src/stm32f4xx_hal_exti.c ****   * @param  hexti Exti handle.
 520:Drivers/STM32F4xx_HAL_Driver/Src/stm32f4xx_hal_exti.c ****   * @retval None.
 521:Drivers/STM32F4xx_HAL_Driver/Src/stm32f4xx_hal_exti.c ****   */
 522:Drivers/STM32F4xx_HAL_Driver/Src/stm32f4xx_hal_exti.c **** void HAL_EXTI_GenerateSWI(EXTI_HandleTypeDef *hexti)
 523:Drivers/STM32F4xx_HAL_Driver/Src/stm32f4xx_hal_exti.c **** {
 1195              		.loc 1 523 1 is_stmt 1 view -0
 1196              		.cfi_startproc
 1197              		@ args = 0, pretend = 0, frame = 0
 1198              		@ frame_needed = 0, uses_anonymous_args = 0
 1199              		.loc 1 523 1 is_stmt 0 view .LVU330
 1200 0000 10B5     		push	{r4, lr}
 1201              	.LCFI13:
 1202              		.cfi_def_cfa_offset 8
 1203              		.cfi_offset 4, -8
 1204              		.cfi_offset 14, -4
 1205 0002 0446     		mov	r4, r0
 524:Drivers/STM32F4xx_HAL_Driver/Src/stm32f4xx_hal_exti.c ****   uint32_t maskline;
 1206              		.loc 1 524 3 is_stmt 1 view .LVU331
 525:Drivers/STM32F4xx_HAL_Driver/Src/stm32f4xx_hal_exti.c **** 
 526:Drivers/STM32F4xx_HAL_Driver/Src/stm32f4xx_hal_exti.c ****   /* Check parameters */
 527:Drivers/STM32F4xx_HAL_Driver/Src/stm32f4xx_hal_exti.c ****   assert_param(IS_EXTI_LINE(hexti->Line));
 1207              		.loc 1 527 3 view .LVU332
 1208 0004 0268     		ldr	r2, [r0]
 1209 0006 22F0C063 		bic	r3, r2, #100663296
 1210 000a 23F01F03 		bic	r3, r3, #31
 1211 000e 3BB9     		cbnz	r3, .L111
 1212              		.loc 1 527 3 is_stmt 0 discriminator 2 view .LVU333
 1213 0010 02F0C063 		and	r3, r2, #100663296
 1214 0014 B3F1007F 		cmp	r3, #33554432
 1215 0018 13D0     		beq	.L112
 1216              		.loc 1 527 3 discriminator 3 view .LVU334
 1217 001a B3F1C06F 		cmp	r3, #100663296
 1218 001e 10D0     		beq	.L112
 1219              	.L111:
 1220              		.loc 1 527 3 discriminator 7 view .LVU335
 1221 0020 40F20F21 		movw	r1, #527
 1222 0024 0C48     		ldr	r0, .L117
 1223              	.LVL108:
 1224              		.loc 1 527 3 discriminator 7 view .LVU336
 1225 0026 FFF7FEFF 		bl	assert_failed
 1226              	.LVL109:
 1227              	.L113:
 528:Drivers/STM32F4xx_HAL_Driver/Src/stm32f4xx_hal_exti.c ****   assert_param(IS_EXTI_CONFIG_LINE(hexti->Line));
 1228              		.loc 1 528 3 is_stmt 1 view .LVU337
 1229 002a 2368     		ldr	r3, [r4]
ARM GAS  C:\Users\hanaj\AppData\Local\Temp\cc5LldRU.s 			page 33


 1230 002c 13F0007F 		tst	r3, #33554432
 1231 0030 0CD0     		beq	.L116
 1232              	.L114:
 529:Drivers/STM32F4xx_HAL_Driver/Src/stm32f4xx_hal_exti.c **** 
 530:Drivers/STM32F4xx_HAL_Driver/Src/stm32f4xx_hal_exti.c ****   /* Compute line mask */
 531:Drivers/STM32F4xx_HAL_Driver/Src/stm32f4xx_hal_exti.c ****   maskline = (1uL << (hexti->Line & EXTI_PIN_MASK));
 1233              		.loc 1 531 3 view .LVU338
 1234              		.loc 1 531 28 is_stmt 0 view .LVU339
 1235 0032 2268     		ldr	r2, [r4]
 1236              		.loc 1 531 35 view .LVU340
 1237 0034 02F01F02 		and	r2, r2, #31
 1238              		.loc 1 531 12 view .LVU341
 1239 0038 0123     		movs	r3, #1
 1240 003a 9340     		lsls	r3, r3, r2
 1241              	.LVL110:
 532:Drivers/STM32F4xx_HAL_Driver/Src/stm32f4xx_hal_exti.c **** 
 533:Drivers/STM32F4xx_HAL_Driver/Src/stm32f4xx_hal_exti.c ****   /* Generate Software interrupt */
 534:Drivers/STM32F4xx_HAL_Driver/Src/stm32f4xx_hal_exti.c ****   EXTI->SWIER = maskline;
 1242              		.loc 1 534 3 is_stmt 1 view .LVU342
 1243              		.loc 1 534 15 is_stmt 0 view .LVU343
 1244 003c 074A     		ldr	r2, .L117+4
 1245 003e 1361     		str	r3, [r2, #16]
 535:Drivers/STM32F4xx_HAL_Driver/Src/stm32f4xx_hal_exti.c **** }
 1246              		.loc 1 535 1 view .LVU344
 1247 0040 10BD     		pop	{r4, pc}
 1248              	.LVL111:
 1249              	.L112:
 527:Drivers/STM32F4xx_HAL_Driver/Src/stm32f4xx_hal_exti.c ****   assert_param(IS_EXTI_CONFIG_LINE(hexti->Line));
 1250              		.loc 1 527 3 discriminator 6 view .LVU345
 1251 0042 02F01F02 		and	r2, r2, #31
 1252 0046 162A     		cmp	r2, #22
 1253 0048 EFD9     		bls	.L113
 1254 004a E9E7     		b	.L111
 1255              	.LVL112:
 1256              	.L116:
 528:Drivers/STM32F4xx_HAL_Driver/Src/stm32f4xx_hal_exti.c **** 
 1257              		.loc 1 528 3 discriminator 1 view .LVU346
 1258 004c 4FF40471 		mov	r1, #528
 1259 0050 0148     		ldr	r0, .L117
 1260 0052 FFF7FEFF 		bl	assert_failed
 1261              	.LVL113:
 1262 0056 ECE7     		b	.L114
 1263              	.L118:
 1264              		.align	2
 1265              	.L117:
 1266 0058 00000000 		.word	.LC0
 1267 005c 003C0140 		.word	1073822720
 1268              		.cfi_endproc
 1269              	.LFE247:
 1271              		.text
 1272              	.Letext0:
 1273              		.file 2 "C:/Tools/arm-gnu-toolchain/arm-none-eabi/include/machine/_default_types.h"
 1274              		.file 3 "C:/Tools/arm-gnu-toolchain/arm-none-eabi/include/sys/_stdint.h"
 1275              		.file 4 "Drivers/CMSIS/Device/ST/STM32F4xx/Include/stm32f405xx.h"
 1276              		.file 5 "Drivers/STM32F4xx_HAL_Driver/Inc/stm32f4xx_hal_def.h"
 1277              		.file 6 "Drivers/STM32F4xx_HAL_Driver/Inc/stm32f4xx_hal_exti.h"
 1278              		.file 7 "Core/Inc/stm32f4xx_hal_conf.h"
ARM GAS  C:\Users\hanaj\AppData\Local\Temp\cc5LldRU.s 			page 34


ARM GAS  C:\Users\hanaj\AppData\Local\Temp\cc5LldRU.s 			page 35

